

Microchip Technology PIC18 LITE Macro Assembler V1.35 build -356382666 
                                                                                               Fri May 27 00:31:03 2016

Microchip Technology Omniscient Code Generator v1.35 (Free mode) build 201507080246
     1                           	processor	18F45K22
     2                           	fnconf	rparam,??,?,0
     3                           	opt	pw 120
     4                           	opt	lm
     5                           	psect	idataCOMRAM,global,class=CODE,delta=1
     6                           	psect	cinit,global,reloc=2,class=CODE,delta=1
     7                           	psect	bssCOMRAM,global,class=COMRAM,space=1,delta=1
     8                           	psect	dataCOMRAM,global,class=COMRAM,space=1,delta=1
     9                           	psect	bssBANK0,global,class=BANK0,space=1,delta=1
    10                           	psect	bssBANK1,global,class=BANK1,space=1,delta=1
    11                           	psect	bssBANK2,global,class=BANK2,space=1,delta=1
    12                           	psect	bssBANK3,global,class=BANK3,space=1,delta=1
    13                           	psect	bssBANK4,global,class=BANK4,space=1,delta=1
    14                           	psect	cstackBANK0,global,class=BANK0,space=1,delta=1
    15                           	psect	cstackCOMRAM,global,class=COMRAM,space=1,delta=1
    16                           	psect	text0,global,reloc=2,class=CODE,delta=1
    17                           	psect	text1,global,reloc=2,class=CODE,delta=1
    18                           	psect	text2,global,reloc=2,class=CODE,delta=1
    19                           	psect	text3,global,reloc=2,class=CODE,delta=1
    20                           	psect	text4,global,reloc=2,class=CODE,delta=1
    21                           	psect	text5,global,reloc=2,class=CODE,delta=1
    22                           	psect	text6,global,reloc=2,class=CODE,delta=1
    23                           	psect	text7,global,reloc=2,class=CODE,delta=1
    24                           	psect	text8,global,reloc=2,class=CODE,delta=1
    25                           	psect	text9,global,reloc=2,class=CODE,delta=1
    26                           	psect	text10,global,reloc=2,class=CODE,delta=1
    27                           	psect	text11,global,reloc=2,class=CODE,delta=1
    28                           	psect	text12,global,reloc=2,class=CODE,delta=1
    29                           	psect	text13,global,reloc=2,class=CODE,delta=1
    30                           	psect	text14,global,reloc=2,class=CODE,delta=1
    31                           	psect	text15,global,reloc=2,class=CODE,delta=1
    32                           	psect	text16,global,reloc=2,class=CODE,delta=1
    33                           	psect	text17,global,reloc=2,class=CODE,delta=1
    34                           	psect	text18,global,reloc=2,class=CODE,delta=1
    35                           	psect	text19,global,reloc=2,class=CODE,delta=1
    36                           	psect	text20,global,reloc=2,class=CODE,delta=1
    37                           	psect	text21,global,reloc=2,class=CODE,delta=1
    38                           	psect	text22,global,reloc=2,class=CODE,delta=1
    39                           	psect	intcode,global,reloc=2,class=CODE,delta=1
    40                           	psect	text24,global,reloc=2,class=CODE,delta=1
    41                           	psect	intsave_regs,global,class=BIGRAM,space=1,delta=1
    42                           	psect	rparam,global,class=COMRAM,space=1,delta=1
    43                           	psect	temp,global,ovrld,common,class=COMRAM,space=1,delta=1
    44  0000                     
    45                           	psect	idataCOMRAM
    46  0007D8                     __pidataCOMRAM:
    47                           	opt stack 0
    48                           
    49                           ;initializer for _Transmit_stall
    50  0007D8  01                 	db	1
    51  0000                     _ANSELA	set	3896
    52  0000                     _ANSELB	set	3897
    53  0000                     _ANSELC	set	3898
    54  0000                     _ANSELD	set	3899
    55  0000                     _ANSELE	set	3900
    56  0000                     _CCP4CON	set	3927
    57  0000                     _CCP5CON	set	3924
    58  0000                     _CCPR4H	set	3929
    59  0000                     _CCPR4L	set	3928
    60  0000                     _CCPR5H	set	3926
    61  0000                     _CCPR5L	set	3925
    62  0000                     _CCPTMRS1bits	set	3912
    63  0000                     _ADCON0	set	4034
    64  0000                     _ADCON0bits	set	4034
    65  0000                     _ADCON1	set	4033
    66  0000                     _ADCON2	set	4032
    67  0000                     _ADRESH	set	4036
    68  0000                     _ADRESL	set	4035
    69  0000                     _BAUD1CON	set	4024
    70  0000                     _EEADR	set	4009
    71  0000                     _EECON1bits	set	4006
    72  0000                     _EECON2	set	4007
    73  0000                     _EEDATA	set	4008
    74  0000                     _INTCON2bits	set	4081
    75  0000                     _INTCONbits	set	4082
    76  0000                     _IPR1bits	set	3999
    77  0000                     _LATA	set	3977
    78  0000                     _LATB	set	3978
    79  0000                     _LATC	set	3979
    80  0000                     _LATCbits	set	3979
    81  0000                     _LATD	set	3980
    82  0000                     _LATE	set	3981
    83  0000                     _OSCCON	set	4051
    84  0000                     _OSCCON2	set	4050
    85  0000                     _OSCTUNE	set	3995
    86  0000                     _PIE1bits	set	3997
    87  0000                     _PIE4bits	set	3962
    88  0000                     _PIR1bits	set	3998
    89  0000                     _PIR2bits	set	4001
    90  0000                     _PIR4bits	set	3963
    91  0000                     _PR2	set	4027
    92  0000                     _RC1STA	set	4011
    93  0000                     _RC1STAbits	set	4011
    94  0000                     _RCONbits	set	4048
    95  0000                     _RCREG1	set	4014
    96  0000                     _SPBRG1	set	4015
    97  0000                     _SPBRGH1	set	4016
    98  0000                     _T2CON	set	4026
    99  0000                     _T2CONbits	set	4026
   100  0000                     _TABLAT	set	4085
   101  0000                     _TBLPTRH	set	4087
   102  0000                     _TBLPTRL	set	4086
   103  0000                     _TBLPTRU	set	4088
   104  0000                     _TMR2	set	4028
   105  0000                     _TRISA	set	3986
   106  0000                     _TRISB	set	3987
   107  0000                     _TRISBbits	set	3987
   108  0000                     _TRISC	set	3988
   109  0000                     _TRISD	set	3989
   110  0000                     _TRISE	set	3990
   111  0000                     _TX1STA	set	4012
   112  0000                     _TXREG1	set	4013
   113  0000                     _WPUB	set	3937
   114  0000                     _LATA3	set	31819
   115  0000                     _LATB0	set	31824
   116  0000                     _LATB3	set	31827
   117  0000                     _LATB4	set	31828
   118  0000                     _LATB5	set	31829
   119  0000                     _LATD4	set	31844
   120  0000                     _LATD5	set	31845
   121  0000                     _LATD6	set	31846
   122  0000                     _LATD7	set	31847
   123                           
   124                           ; #config settings
   125  0000                     
   126                           	psect	cinit
   127  00046E                     __pcinit:
   128                           	opt stack 0
   129  00046E                     start_initialization:
   130                           	opt stack 0
   131  00046E                     __initialization:
   132                           	opt stack 0
   133                           
   134                           ; Clear objects allocated to BANK4 (200 bytes)
   135  00046E  EE04  F000         	lfsr	0,__pbssBANK4
   136  000472  0EC8               	movlw	200
   137  000474                     clear_0:
   138  000474  6AEE               	clrf	postinc0,c
   139  000476  06E8               	decf	wreg,f,c
   140  000478  E1FD               	bnz	clear_0
   141                           
   142                           ; Clear objects allocated to BANK3 (206 bytes)
   143  00047A  EE03  F000         	lfsr	0,__pbssBANK3
   144  00047E  0ECE               	movlw	206
   145  000480                     clear_1:
   146  000480  6AEE               	clrf	postinc0,c
   147  000482  06E8               	decf	wreg,f,c
   148  000484  E1FD               	bnz	clear_1
   149                           
   150                           ; Clear objects allocated to BANK2 (206 bytes)
   151  000486  EE02  F000         	lfsr	0,__pbssBANK2
   152  00048A  0ECE               	movlw	206
   153  00048C                     clear_2:
   154  00048C  6AEE               	clrf	postinc0,c
   155  00048E  06E8               	decf	wreg,f,c
   156  000490  E1FD               	bnz	clear_2
   157                           
   158                           ; Clear objects allocated to BANK1 (206 bytes)
   159  000492  EE01  F000         	lfsr	0,__pbssBANK1
   160  000496  0ECE               	movlw	206
   161  000498                     clear_3:
   162  000498  6AEE               	clrf	postinc0,c
   163  00049A  06E8               	decf	wreg,f,c
   164  00049C  E1FD               	bnz	clear_3
   165                           
   166                           ; Clear objects allocated to BANK0 (105 bytes)
   167  00049E  EE00  F060         	lfsr	0,__pbssBANK0
   168  0004A2  0E69               	movlw	105
   169  0004A4                     clear_4:
   170  0004A4  6AEE               	clrf	postinc0,c
   171  0004A6  06E8               	decf	wreg,f,c
   172  0004A8  E1FD               	bnz	clear_4
   173                           
   174                           ; Clear objects allocated to COMRAM (58 bytes)
   175  0004AA  EE00  F001         	lfsr	0,__pbssCOMRAM
   176  0004AE  0E3A               	movlw	58
   177  0004B0                     clear_5:
   178  0004B0  6AEE               	clrf	postinc0,c
   179  0004B2  06E8               	decf	wreg,f,c
   180  0004B4  E1FD               	bnz	clear_5
   181                           
   182                           ; Initialize objects allocated to COMRAM (1 bytes)
   183                           ; load TBLPTR registers with __pidataCOMRAM
   184  0004B6  0ED8               	movlw	low __pidataCOMRAM
   185  0004B8  6EF6               	movwf	tblptrl,c
   186  0004BA  0E07               	movlw	high __pidataCOMRAM
   187  0004BC  6EF7               	movwf	tblptrh,c
   188  0004BE  0E00               	movlw	low (__pidataCOMRAM shr (0+16))
   189  0004C0  6EF8               	movwf	tblptru,c
   190  0004C2  0009               	tblrd		*+	;fetch initializer
   191  0004C4  CFF5 F050          	movff	tablat,__pdataCOMRAM
   192  0004C8                     end_of_initialization:
   193                           	opt stack 0
   194  0004C8                     __end_of__initialization:
   195                           	opt stack 0
   196  0004C8  9051               	bcf	int$flags,0,c	;clear compiler interrupt flag (level 1)
   197  0004CA  9251               	bcf	int$flags,1,c	;clear compiler interrupt flag (level 2)
   198  0004CC  0E00               	movlw	low (__Lmediumconst shr (0+16))
   199  0004CE  6EF8               	movwf	tblptru,c
   200  0004D0  0100               	movlb	0
   201  0004D2  EF79  F003         	goto	_main	;jump to C main() function
   202                           tblptru	equ	0xFF8
   203                           tblptrh	equ	0xFF7
   204                           tblptrl	equ	0xFF6
   205                           tablat	equ	0xFF5
   206                           postinc0	equ	0xFEE
   207                           wreg	equ	0xFE8
   208                           
   209                           	psect	bssCOMRAM
   210  000001                     __pbssCOMRAM:
   211                           	opt stack 0
   212  000001                     _Currentcomp:
   213                           	opt stack 0
   214  000001                     	ds	12
   215  00000D                     _data:
   216                           	opt stack 0
   217  00000D                     	ds	12
   218  000019                     _addressErrorCounter:
   219                           	opt stack 0
   220  000019                     	ds	2
   221  00001B                     _alignErrorCounter:
   222                           	opt stack 0
   223  00001B                     	ds	2
   224  00001D                     _crcErrorCounter:
   225                           	opt stack 0
   226  00001D                     	ds	2
   227  00001F                     _dataAdressErrorCounter:
   228                           	opt stack 0
   229  00001F                     	ds	2
   230  000021                     _group:
   231                           	opt stack 0
   232  000021                     	ds	2
   233  000023                     _prev_pos:
   234                           	opt stack 0
   235  000023                     	ds	2
   236  000025                     _receiveArrayAddress:
   237                           	opt stack 0
   238  000025                     	ds	2
   239  000027                     _sendStructAddress:
   240                           	opt stack 0
   241  000027                     	ds	2
   242  000029                     _serial_available:
   243                           	opt stack 0
   244  000029                     	ds	2
   245  00002B                     _serial_peek:
   246                           	opt stack 0
   247  00002B                     	ds	2
   248  00002D                     _serial_read:
   249                           	opt stack 0
   250  00002D                     	ds	2
   251  00002F                     _serial_write:
   252                           	opt stack 0
   253  00002F                     	ds	2
   254  000031                     updateComms@previousPowerState:
   255                           	opt stack 0
   256  000031                     	ds	2
   257  000033                     _AKNAKsend:
   258                           	opt stack 0
   259  000033                     	ds	1
   260  000034                     _calc_CS:
   261                           	opt stack 0
   262  000034                     	ds	1
   263  000035                     _maxDataAddress:
   264                           	opt stack 0
   265  000035                     	ds	1
   266  000036                     _moduleAddress:
   267                           	opt stack 0
   268  000036                     	ds	1
   269  000037                     _returnAddress:
   270                           	opt stack 0
   271  000037                     	ds	1
   272  000038                     _rx_address:
   273                           	opt stack 0
   274  000038                     	ds	1
   275  000039                     _rx_array_inx:
   276                           	opt stack 0
   277  000039                     	ds	1
   278  00003A                     _rx_len:
   279                           	opt stack 0
   280  00003A                     	ds	1
   281                           tblptru	equ	0xFF8
   282                           tblptrh	equ	0xFF7
   283                           tblptrl	equ	0xFF6
   284                           tablat	equ	0xFF5
   285                           postinc0	equ	0xFEE
   286                           wreg	equ	0xFE8
   287                           
   288                           	psect	dataCOMRAM
   289  000050                     __pdataCOMRAM:
   290                           	opt stack 0
   291  000050                     _Transmit_stall:
   292                           	opt stack 0
   293  000050                     	ds	1
   294                           tblptru	equ	0xFF8
   295                           tblptrh	equ	0xFF7
   296                           tblptrl	equ	0xFF6
   297                           tablat	equ	0xFF5
   298                           postinc0	equ	0xFEE
   299                           wreg	equ	0xFE8
   300                           
   301                           	psect	bssBANK0
   302  000060                     __pbssBANK0:
   303                           	opt stack 0
   304  000060                     _receiveArray:
   305                           	opt stack 0
   306  000060                     	ds	40
   307  000088                     _registers:
   308                           	opt stack 0
   309  000088                     	ds	24
   310  0000A0                     _Current:
   311                           	opt stack 0
   312  0000A0                     	ds	12
   313  0000AC                     _CurrentADC:
   314                           	opt stack 0
   315  0000AC                     	ds	12
   316  0000B8                     _crc_buffer:
   317                           	opt stack 0
   318  0000B8                     	ds	17
   319                           tblptru	equ	0xFF8
   320                           tblptrh	equ	0xFF7
   321                           tblptrl	equ	0xFF6
   322                           tablat	equ	0xFF5
   323                           postinc0	equ	0xFEE
   324                           wreg	equ	0xFE8
   325                           
   326                           	psect	bssBANK1
   327  000100                     __pbssBANK1:
   328                           	opt stack 0
   329  000100                     _ring_buffer:
   330                           	opt stack 0
   331  000100                     	ds	206
   332                           tblptru	equ	0xFF8
   333                           tblptrh	equ	0xFF7
   334                           tblptrl	equ	0xFF6
   335                           tablat	equ	0xFF5
   336                           postinc0	equ	0xFEE
   337                           wreg	equ	0xFE8
   338                           
   339                           	psect	bssBANK2
   340  000200                     __pbssBANK2:
   341                           	opt stack 0
   342  000200                     _input_buffer:
   343                           	opt stack 0
   344  000200                     	ds	206
   345                           tblptru	equ	0xFF8
   346                           tblptrh	equ	0xFF7
   347                           tblptrl	equ	0xFF6
   348                           tablat	equ	0xFF5
   349                           postinc0	equ	0xFEE
   350                           wreg	equ	0xFE8
   351                           
   352                           	psect	bssBANK3
   353  000300                     __pbssBANK3:
   354                           	opt stack 0
   355  000300                     _output_buffer:
   356                           	opt stack 0
   357  000300                     	ds	206
   358                           tblptru	equ	0xFF8
   359                           tblptrh	equ	0xFF7
   360                           tblptrl	equ	0xFF6
   361                           tablat	equ	0xFF5
   362                           postinc0	equ	0xFEE
   363                           wreg	equ	0xFE8
   364                           
   365                           	psect	bssBANK4
   366  000400                     __pbssBANK4:
   367                           	opt stack 0
   368  000400                     _rx_buffer:
   369                           	opt stack 0
   370  000400                     	ds	200
   371                           tblptru	equ	0xFF8
   372                           tblptrh	equ	0xFF7
   373                           tblptrl	equ	0xFF6
   374                           tablat	equ	0xFF5
   375                           postinc0	equ	0xFEE
   376                           wreg	equ	0xFE8
   377                           
   378                           	psect	cstackBANK0
   379  0000C9                     __pcstackBANK0:
   380                           	opt stack 0
   381  0000C9                     EnableSlavePower@onof:
   382                           	opt stack 0
   383  0000C9                     Delay@i:
   384                           	opt stack 0
   385                           
   386                           ; 4 bytes @ 0x0
   387  0000C9                     	ds	2
   388  0000CB                     EnableSlavePower@slave:
   389                           	opt stack 0
   390                           
   391                           ; 1 bytes @ 0x2
   392  0000CB                     	ds	2
   393  0000CD                     ??_PotSetpoint:
   394  0000CD                     writeRegisters@val:
   395                           	opt stack 0
   396                           
   397                           ; 2 bytes @ 0x4
   398  0000CD                     	ds	2
   399  0000CF                     PotSetpoint@set_point:
   400                           	opt stack 0
   401  0000CF                     writeRegisters@i:
   402                           	opt stack 0
   403                           
   404                           ; 2 bytes @ 0x6
   405  0000CF                     	ds	2
   406  0000D1                     PotSetpoint@x:
   407                           	opt stack 0
   408  0000D1                     Clear595@i:
   409                           	opt stack 0
   410                           
   411                           ; 2 bytes @ 0x8
   412  0000D1                     	ds	2
   413  0000D3                     PotSetpoint@new_pos:
   414                           	opt stack 0
   415                           
   416                           ; 2 bytes @ 0xA
   417  0000D3                     	ds	2
   418                           tblptru	equ	0xFF8
   419                           tblptrh	equ	0xFF7
   420                           tblptrl	equ	0xFF6
   421                           tablat	equ	0xFF5
   422                           postinc0	equ	0xFEE
   423                           wreg	equ	0xFE8
   424                           
   425                           	psect	cstackCOMRAM
   426  00003B                     __pcstackCOMRAM:
   427                           	opt stack 0
   428  00003B                     ??_INTERRUPT_InterruptManager:
   429  00003B                     
   430                           ; 1 bytes @ 0x0
   431  00003B                     	ds	14
   432  000049                     DATAEE_ReadByte@bAdd:
   433                           	opt stack 0
   434  000049                     SetPin595@pin:
   435                           	opt stack 0
   436  000049                     PWM4_LoadDutyValue@dutyValue:
   437                           	opt stack 0
   438  000049                     Delay@wait:
   439                           	opt stack 0
   440                           
   441                           ; 4 bytes @ 0xE
   442  000049                     	ds	1
   443  00004A                     ??_ComputeStorageData:
   444  00004A                     SetPin595@value:
   445                           	opt stack 0
   446                           
   447                           ; 1 bytes @ 0xF
   448  00004A                     	ds	1
   449  00004B                     ??_SetPin595:
   450  00004B                     ??_PWM4_LoadDutyValue:
   451                           
   452                           ; 0 bytes @ 0x10
   453  00004B                     	ds	1
   454  00004C                     ComputeStorageData@i:
   455                           	opt stack 0
   456                           
   457                           ; 2 bytes @ 0x11
   458  00004C                     	ds	1
   459  00004D                     ??_Delay:
   460                           
   461                           ; 0 bytes @ 0x12
   462  00004D                     	ds	1
   463  00004E                     ??_writeRegisters:
   464  00004E                     PotSetpoint@new_point:
   465                           	opt stack 0
   466  00004E                     PotClear@x:
   467                           	opt stack 0
   468                           
   469                           ; 2 bytes @ 0x13
   470  00004E                     	ds	1
   471  00004F                     SetPin595@Reg:
   472                           	opt stack 0
   473                           
   474                           ; 1 bytes @ 0x14
   475  00004F                     	ds	1
   476  000050                     tblptru	equ	0xFF8
   477                           tblptrh	equ	0xFF7
   478                           tblptrl	equ	0xFF6
   479                           tablat	equ	0xFF5
   480                           postinc0	equ	0xFEE
   481                           wreg	equ	0xFE8
   482                           
   483                           ; 0 bytes @ 0x15
   484 ;;
   485 ;;Main: autosize = 0, tempsize = 0, incstack = 0, save=0
   486 ;;
   487 ;; *************** function _main *****************
   488 ;; Defined at:
   489 ;;		line 55 in file "main.c"
   490 ;; Parameters:    Size  Location     Type
   491 ;;		None
   492 ;; Auto vars:     Size  Location     Type
   493 ;;		None
   494 ;; Return value:  Size  Location     Type
   495 ;;		None               void
   496 ;; Registers used:
   497 ;;		wreg, fsr2l, fsr2h, status,2, status,0, cstack
   498 ;; Tracked objects:
   499 ;;		On entry : 0/0
   500 ;;		On exit  : 0/0
   501 ;;		Unchanged: 0/0
   502 ;; Data sizes:     COMRAM   BANK0   BANK1   BANK2   BANK3   BANK4   BANK5
   503 ;;      Params:         0       0       0       0       0       0       0
   504 ;;      Locals:         0       0       0       0       0       0       0
   505 ;;      Temps:          0       0       0       0       0       0       0
   506 ;;      Totals:         0       0       0       0       0       0       0
   507 ;;Total ram usage:        0 bytes
   508 ;; Hardware stack levels required when called:    7
   509 ;; This function calls:
   510 ;;		_CoolingStart
   511 ;;		_Delay
   512 ;;		_PDUStartup
   513 ;;		_SYSTEM_Initialize
   514 ;; This function is called by:
   515 ;;		Startup code after reset
   516 ;; This function uses a non-reentrant model
   517 ;;
   518                           
   519                           	psect	text0
   520  0006F2                     __ptext0:
   521                           	opt stack 0
   522  0006F2                     _main:
   523                           	opt stack 24
   524                           
   525                           ;main.c: 58: SYSTEM_Initialize();
   526                           
   527                           ;incstack = 0
   528  0006F2  ECA0  F003         	call	_SYSTEM_Initialize	;wreg free
   529                           
   530                           ;main.c: 59: PDUStartup();
   531  0006F6  EC9C  F002         	call	_PDUStartup	;wreg free
   532                           
   533                           ;main.c: 60: CoolingStart();
   534  0006FA  EC91  F003         	call	_CoolingStart	;wreg free
   535                           
   536                           ;main.c: 78: (INTCONbits.GIE = 1);
   537  0006FE  8EF2               	bsf	intcon,7,c	;volatile
   538                           
   539                           ;main.c: 81: (INTCONbits.PEIE = 1);
   540  000700  8CF2               	bsf	intcon,6,c	;volatile
   541  000702                     l3172:
   542                           
   543                           ;main.c: 90: {
   544                           ;main.c: 93: Delay(1000);
   545  000702  0EE8               	movlw	232
   546  000704  6E49               	movwf	Delay@wait,c
   547  000706  0E03               	movlw	3
   548  000708  6E4A               	movwf	Delay@wait+1,c
   549  00070A  0E00               	movlw	0
   550  00070C  6E4B               	movwf	Delay@wait+2,c
   551  00070E  0E00               	movlw	0
   552  000710  6E4C               	movwf	Delay@wait+3,c
   553  000712  ECCB  F002         	call	_Delay	;wreg free
   554                           
   555                           ;main.c: 94: do { LATA3 = ~LATA3; } while(0);
   556  000716  B689               	btfsc	3977,3,c	;volatile
   557  000718  D002               	goto	u1750
   558  00071A  8689               	bsf	3977,3,c	;volatile
   559  00071C  D7F2               	goto	l3172
   560  00071E                     u1750:
   561  00071E  9689               	bcf	3977,3,c	;volatile
   562  000720  D7F0               	goto	l3172
   563  000722                     __end_of_main:
   564                           	opt stack 0
   565                           tblptru	equ	0xFF8
   566                           tblptrh	equ	0xFF7
   567                           tblptrl	equ	0xFF6
   568                           tablat	equ	0xFF5
   569                           intcon	equ	0xFF2
   570                           postinc0	equ	0xFEE
   571                           wreg	equ	0xFE8
   572                           
   573 ;; *************** function _SYSTEM_Initialize *****************
   574 ;; Defined at:
   575 ;;		line 112 in file "mcc_generated_files/mcc.c"
   576 ;; Parameters:    Size  Location     Type
   577 ;;		None
   578 ;; Auto vars:     Size  Location     Type
   579 ;;		None
   580 ;; Return value:  Size  Location     Type
   581 ;;		None               void
   582 ;; Registers used:
   583 ;;		wreg, status,2, cstack
   584 ;; Tracked objects:
   585 ;;		On entry : 0/0
   586 ;;		On exit  : 0/0
   587 ;;		Unchanged: 0/0
   588 ;; Data sizes:     COMRAM   BANK0   BANK1   BANK2   BANK3   BANK4   BANK5
   589 ;;      Params:         0       0       0       0       0       0       0
   590 ;;      Locals:         0       0       0       0       0       0       0
   591 ;;      Temps:          0       0       0       0       0       0       0
   592 ;;      Totals:         0       0       0       0       0       0       0
   593 ;;Total ram usage:        0 bytes
   594 ;; Hardware stack levels used:    1
   595 ;; Hardware stack levels required when called:    4
   596 ;; This function calls:
   597 ;;		_ADC_Initialize
   598 ;;		_INTERRUPT_Initialize
   599 ;;		_OSCILLATOR_Initialize
   600 ;;		_PIN_MANAGER_Initialize
   601 ;;		_PWM4_Initialize
   602 ;;		_TMR2_Initialize
   603 ;; This function is called by:
   604 ;;		_main
   605 ;; This function uses a non-reentrant model
   606 ;;
   607                           
   608                           	psect	text1
   609  000740                     __ptext1:
   610                           	opt stack 0
   611  000740                     _SYSTEM_Initialize:
   612                           	opt stack 26
   613                           
   614                           ;mcc.c: 115: INTERRUPT_Initialize();
   615                           
   616                           ;incstack = 0
   617  000740  ECE2  F003         	call	_INTERRUPT_Initialize	;wreg free
   618                           
   619                           ;mcc.c: 116: PIN_MANAGER_Initialize();
   620  000744  ECF7  F002         	call	_PIN_MANAGER_Initialize	;wreg free
   621                           
   622                           ;mcc.c: 117: OSCILLATOR_Initialize();
   623  000748  ECDB  F003         	call	_OSCILLATOR_Initialize	;wreg free
   624                           
   625                           ;mcc.c: 118: PWM4_Initialize();
   626  00074C  ECAE  F003         	call	_PWM4_Initialize	;wreg free
   627                           
   628                           ;mcc.c: 119: TMR2_Initialize();
   629  000750  ECC7  F003         	call	_TMR2_Initialize	;wreg free
   630                           
   631                           ;mcc.c: 120: ADC_Initialize();
   632  000754  ECBB  F003         	call	_ADC_Initialize	;wreg free
   633                           
   634                           ;mcc.c: 121: LATB4 = 1;
   635  000758  888A               	bsf	3978,4,c	;volatile
   636  00075A  0012               	return		;funcret
   637  00075C                     __end_of_SYSTEM_Initialize:
   638                           	opt stack 0
   639                           tblptru	equ	0xFF8
   640                           tblptrh	equ	0xFF7
   641                           tblptrl	equ	0xFF6
   642                           tablat	equ	0xFF5
   643                           intcon	equ	0xFF2
   644                           postinc0	equ	0xFEE
   645                           wreg	equ	0xFE8
   646                           
   647 ;; *************** function _TMR2_Initialize *****************
   648 ;; Defined at:
   649 ;;		line 58 in file "mcc_generated_files/tmr2.c"
   650 ;; Parameters:    Size  Location     Type
   651 ;;		None
   652 ;; Auto vars:     Size  Location     Type
   653 ;;		None
   654 ;; Return value:  Size  Location     Type
   655 ;;		None               void
   656 ;; Registers used:
   657 ;;		wreg, status,2, cstack
   658 ;; Tracked objects:
   659 ;;		On entry : 0/0
   660 ;;		On exit  : 0/0
   661 ;;		Unchanged: 0/0
   662 ;; Data sizes:     COMRAM   BANK0   BANK1   BANK2   BANK3   BANK4   BANK5
   663 ;;      Params:         0       0       0       0       0       0       0
   664 ;;      Locals:         0       0       0       0       0       0       0
   665 ;;      Temps:          0       0       0       0       0       0       0
   666 ;;      Totals:         0       0       0       0       0       0       0
   667 ;;Total ram usage:        0 bytes
   668 ;; Hardware stack levels used:    1
   669 ;; Hardware stack levels required when called:    3
   670 ;; This function calls:
   671 ;;		_TMR2_StartTimer
   672 ;; This function is called by:
   673 ;;		_SYSTEM_Initialize
   674 ;; This function uses a non-reentrant model
   675 ;;
   676                           
   677                           	psect	text2
   678  00078E                     __ptext2:
   679                           	opt stack 0
   680  00078E                     _TMR2_Initialize:
   681                           	opt stack 26
   682                           
   683                           ;tmr2.c: 63: T2CON = 0x29;
   684                           
   685                           ;incstack = 0
   686  00078E  0E29               	movlw	41
   687  000790  6EBA               	movwf	4026,c	;volatile
   688                           
   689                           ;tmr2.c: 66: PR2 = 0xF9;
   690  000792  0EF9               	movlw	249
   691  000794  6EBB               	movwf	4027,c	;volatile
   692                           
   693                           ;tmr2.c: 69: TMR2 = 0x00;
   694  000796  0E00               	movlw	0
   695  000798  6EBC               	movwf	4028,c	;volatile
   696                           
   697                           ;tmr2.c: 72: PIR1bits.TMR2IF = 0;
   698  00079A  929E               	bcf	3998,1,c	;volatile
   699                           
   700                           ;tmr2.c: 75: TMR2_StartTimer();
   701  00079C  ECE8  F003         	call	_TMR2_StartTimer	;wreg free
   702  0007A0  0012               	return		;funcret
   703  0007A2                     __end_of_TMR2_Initialize:
   704                           	opt stack 0
   705                           tblptru	equ	0xFF8
   706                           tblptrh	equ	0xFF7
   707                           tblptrl	equ	0xFF6
   708                           tablat	equ	0xFF5
   709                           intcon	equ	0xFF2
   710                           postinc0	equ	0xFEE
   711                           wreg	equ	0xFE8
   712                           
   713 ;; *************** function _TMR2_StartTimer *****************
   714 ;; Defined at:
   715 ;;		line 78 in file "mcc_generated_files/tmr2.c"
   716 ;; Parameters:    Size  Location     Type
   717 ;;		None
   718 ;; Auto vars:     Size  Location     Type
   719 ;;		None
   720 ;; Return value:  Size  Location     Type
   721 ;;		None               void
   722 ;; Registers used:
   723 ;;		None
   724 ;; Tracked objects:
   725 ;;		On entry : 0/0
   726 ;;		On exit  : 0/0
   727 ;;		Unchanged: 0/0
   728 ;; Data sizes:     COMRAM   BANK0   BANK1   BANK2   BANK3   BANK4   BANK5
   729 ;;      Params:         0       0       0       0       0       0       0
   730 ;;      Locals:         0       0       0       0       0       0       0
   731 ;;      Temps:          0       0       0       0       0       0       0
   732 ;;      Totals:         0       0       0       0       0       0       0
   733 ;;Total ram usage:        0 bytes
   734 ;; Hardware stack levels used:    1
   735 ;; Hardware stack levels required when called:    2
   736 ;; This function calls:
   737 ;;		Nothing
   738 ;; This function is called by:
   739 ;;		_TMR2_Initialize
   740 ;; This function uses a non-reentrant model
   741 ;;
   742                           
   743                           	psect	text3
   744  0007D0                     __ptext3:
   745                           	opt stack 0
   746  0007D0                     _TMR2_StartTimer:
   747                           	opt stack 26
   748                           
   749                           ;tmr2.c: 81: T2CONbits.TMR2ON = 1;
   750                           
   751                           ;incstack = 0
   752  0007D0  84BA               	bsf	4026,2,c	;volatile
   753  0007D2  0012               	return		;funcret
   754  0007D4                     __end_of_TMR2_StartTimer:
   755                           	opt stack 0
   756                           tblptru	equ	0xFF8
   757                           tblptrh	equ	0xFF7
   758                           tblptrl	equ	0xFF6
   759                           tablat	equ	0xFF5
   760                           intcon	equ	0xFF2
   761                           postinc0	equ	0xFEE
   762                           wreg	equ	0xFE8
   763                           
   764 ;; *************** function _PWM4_Initialize *****************
   765 ;; Defined at:
   766 ;;		line 64 in file "mcc_generated_files/pwm4.c"
   767 ;; Parameters:    Size  Location     Type
   768 ;;		None
   769 ;; Auto vars:     Size  Location     Type
   770 ;;		None
   771 ;; Return value:  Size  Location     Type
   772 ;;		None               void
   773 ;; Registers used:
   774 ;;		wreg, status,2
   775 ;; Tracked objects:
   776 ;;		On entry : 0/0
   777 ;;		On exit  : 0/0
   778 ;;		Unchanged: 0/0
   779 ;; Data sizes:     COMRAM   BANK0   BANK1   BANK2   BANK3   BANK4   BANK5
   780 ;;      Params:         0       0       0       0       0       0       0
   781 ;;      Locals:         0       0       0       0       0       0       0
   782 ;;      Temps:          0       0       0       0       0       0       0
   783 ;;      Totals:         0       0       0       0       0       0       0
   784 ;;Total ram usage:        0 bytes
   785 ;; Hardware stack levels used:    1
   786 ;; Hardware stack levels required when called:    2
   787 ;; This function calls:
   788 ;;		Nothing
   789 ;; This function is called by:
   790 ;;		_SYSTEM_Initialize
   791 ;; This function uses a non-reentrant model
   792 ;;
   793                           
   794                           	psect	text4
   795  00075C                     __ptext4:
   796                           	opt stack 0
   797  00075C                     _PWM4_Initialize:
   798                           	opt stack 27
   799                           
   800                           ;pwm4.c: 69: CCP4CON = 0x3C;
   801                           
   802                           ;incstack = 0
   803  00075C  0E3C               	movlw	60
   804  00075E  010F               	movlb	15	; () banked
   805  000760  6F57               	movwf	87,b	;volatile
   806                           
   807                           ;pwm4.c: 72: CCPR4L = 0x7C;
   808  000762  0E7C               	movlw	124
   809  000764  010F               	movlb	15	; () banked
   810  000766  6F58               	movwf	88,b	;volatile
   811                           
   812                           ;pwm4.c: 75: CCPR4H = 0x00;
   813  000768  0E00               	movlw	0
   814  00076A  010F               	movlb	15	; () banked
   815  00076C  6F59               	movwf	89,b	;volatile
   816                           
   817                           ;pwm4.c: 78: CCPTMRS1bits.C4TSEL = 0x0;
   818  00076E  0EFC               	movlw	-4
   819  000770  010F               	movlb	15	; () banked
   820  000772  1748               	andwf	72,f,b	;volatile
   821                           
   822                           ; BSR set to: 15
   823  000774  0012               	return		;funcret
   824  000776                     __end_of_PWM4_Initialize:
   825                           	opt stack 0
   826                           tblptru	equ	0xFF8
   827                           tblptrh	equ	0xFF7
   828                           tblptrl	equ	0xFF6
   829                           tablat	equ	0xFF5
   830                           intcon	equ	0xFF2
   831                           postinc0	equ	0xFEE
   832                           wreg	equ	0xFE8
   833                           
   834 ;; *************** function _PIN_MANAGER_Initialize *****************
   835 ;; Defined at:
   836 ;;		line 49 in file "mcc_generated_files/pin_manager.c"
   837 ;; Parameters:    Size  Location     Type
   838 ;;		None
   839 ;; Auto vars:     Size  Location     Type
   840 ;;		None
   841 ;; Return value:  Size  Location     Type
   842 ;;		None               void
   843 ;; Registers used:
   844 ;;		wreg, status,2
   845 ;; Tracked objects:
   846 ;;		On entry : 0/0
   847 ;;		On exit  : 0/0
   848 ;;		Unchanged: 0/0
   849 ;; Data sizes:     COMRAM   BANK0   BANK1   BANK2   BANK3   BANK4   BANK5
   850 ;;      Params:         0       0       0       0       0       0       0
   851 ;;      Locals:         0       0       0       0       0       0       0
   852 ;;      Temps:          0       0       0       0       0       0       0
   853 ;;      Totals:         0       0       0       0       0       0       0
   854 ;;Total ram usage:        0 bytes
   855 ;; Hardware stack levels used:    1
   856 ;; Hardware stack levels required when called:    2
   857 ;; This function calls:
   858 ;;		Nothing
   859 ;; This function is called by:
   860 ;;		_SYSTEM_Initialize
   861 ;; This function uses a non-reentrant model
   862 ;;
   863                           
   864                           	psect	text5
   865  0005EE                     __ptext5:
   866                           	opt stack 0
   867  0005EE                     _PIN_MANAGER_Initialize:
   868                           	opt stack 27
   869                           
   870                           ;pin_manager.c: 51: LATB = 0x0;
   871                           
   872                           ; BSR set to: 15
   873                           ;incstack = 0
   874  0005EE  0E00               	movlw	0
   875  0005F0  6E8A               	movwf	3978,c	;volatile
   876                           
   877                           ;pin_manager.c: 52: LATA = 0x0;
   878  0005F2  0E00               	movlw	0
   879  0005F4  6E89               	movwf	3977,c	;volatile
   880                           
   881                           ;pin_manager.c: 53: ANSELE = 0x3;
   882  0005F6  0E03               	movlw	3
   883  0005F8  010F               	movlb	15	; () banked
   884  0005FA  6F3C               	movwf	60,b	;volatile
   885                           
   886                           ;pin_manager.c: 54: LATE = 0x0;
   887  0005FC  0E00               	movlw	0
   888  0005FE  6E8D               	movwf	3981,c	;volatile
   889                           
   890                           ;pin_manager.c: 55: LATD = 0x0;
   891  000600  0E00               	movlw	0
   892  000602  6E8C               	movwf	3980,c	;volatile
   893                           
   894                           ;pin_manager.c: 56: LATC = 0x0;
   895  000604  0E00               	movlw	0
   896  000606  6E8B               	movwf	3979,c	;volatile
   897                           
   898                           ;pin_manager.c: 57: ANSELA = 0x27;
   899  000608  0E27               	movlw	39
   900  00060A  010F               	movlb	15	; () banked
   901  00060C  6F38               	movwf	56,b	;volatile
   902                           
   903                           ;pin_manager.c: 58: ANSELB = 0x6;
   904  00060E  0E06               	movlw	6
   905  000610  010F               	movlb	15	; () banked
   906  000612  6F39               	movwf	57,b	;volatile
   907                           
   908                           ;pin_manager.c: 59: ANSELC = 0xDC;
   909  000614  0EDC               	movlw	220
   910  000616  010F               	movlb	15	; () banked
   911  000618  6F3A               	movwf	58,b	;volatile
   912                           
   913                           ;pin_manager.c: 60: ANSELD = 0xED;
   914  00061A  0EED               	movlw	237
   915  00061C  010F               	movlb	15	; () banked
   916  00061E  6F3B               	movwf	59,b	;volatile
   917                           
   918                           ;pin_manager.c: 61: WPUB = 0xC6;
   919  000620  0EC6               	movlw	198
   920  000622  6E61               	movwf	3937,c	;volatile
   921                           
   922                           ;pin_manager.c: 62: TRISD = 0xD;
   923  000624  0E0D               	movlw	13
   924  000626  6E95               	movwf	3989,c	;volatile
   925                           
   926                           ;pin_manager.c: 63: TRISE = 0x7;
   927  000628  0E07               	movlw	7
   928  00062A  6E96               	movwf	3990,c	;volatile
   929                           
   930                           ;pin_manager.c: 64: TRISB = 0xC6;
   931  00062C  0EC6               	movlw	198
   932  00062E  6E93               	movwf	3987,c	;volatile
   933                           
   934                           ;pin_manager.c: 65: TRISC = 0xDF;
   935  000630  0EDF               	movlw	223
   936  000632  6E94               	movwf	3988,c	;volatile
   937                           
   938                           ;pin_manager.c: 66: TRISA = 0xE7;
   939  000634  0EE7               	movlw	231
   940  000636  6E92               	movwf	3986,c	;volatile
   941                           
   942                           ; BSR set to: 15
   943                           ;pin_manager.c: 68: TRISBbits.RB3 = 0;
   944  000638  9693               	bcf	3987,3,c	;volatile
   945                           
   946                           ; BSR set to: 15
   947                           ;pin_manager.c: 69: TRISBbits.RB4 = 0;
   948  00063A  9893               	bcf	3987,4,c	;volatile
   949                           
   950                           ; BSR set to: 15
   951                           ;pin_manager.c: 70: TRISBbits.RB5 = 0;
   952  00063C  9A93               	bcf	3987,5,c	;volatile
   953                           
   954                           ; BSR set to: 15
   955                           ;pin_manager.c: 72: INTCON2bits.nRBPU = 0x1;
   956  00063E  8EF1               	bsf	intcon2,7,c	;volatile
   957                           
   958                           ; BSR set to: 15
   959                           ;pin_manager.c: 76: INTCONbits.RBIE = 0;
   960  000640  96F2               	bcf	intcon,3,c	;volatile
   961                           
   962                           ; BSR set to: 15
   963  000642  0012               	return		;funcret
   964  000644                     __end_of_PIN_MANAGER_Initialize:
   965                           	opt stack 0
   966                           tblptru	equ	0xFF8
   967                           tblptrh	equ	0xFF7
   968                           tblptrl	equ	0xFF6
   969                           tablat	equ	0xFF5
   970                           intcon	equ	0xFF2
   971                           intcon2	equ	0xFF1
   972                           postinc0	equ	0xFEE
   973                           wreg	equ	0xFE8
   974                           
   975 ;; *************** function _OSCILLATOR_Initialize *****************
   976 ;; Defined at:
   977 ;;		line 124 in file "mcc_generated_files/mcc.c"
   978 ;; Parameters:    Size  Location     Type
   979 ;;		None
   980 ;; Auto vars:     Size  Location     Type
   981 ;;		None
   982 ;; Return value:  Size  Location     Type
   983 ;;		None               void
   984 ;; Registers used:
   985 ;;		wreg, status,2
   986 ;; Tracked objects:
   987 ;;		On entry : 0/0
   988 ;;		On exit  : 0/0
   989 ;;		Unchanged: 0/0
   990 ;; Data sizes:     COMRAM   BANK0   BANK1   BANK2   BANK3   BANK4   BANK5
   991 ;;      Params:         0       0       0       0       0       0       0
   992 ;;      Locals:         0       0       0       0       0       0       0
   993 ;;      Temps:          0       0       0       0       0       0       0
   994 ;;      Totals:         0       0       0       0       0       0       0
   995 ;;Total ram usage:        0 bytes
   996 ;; Hardware stack levels used:    1
   997 ;; Hardware stack levels required when called:    2
   998 ;; This function calls:
   999 ;;		Nothing
  1000 ;; This function is called by:
  1001 ;;		_SYSTEM_Initialize
  1002 ;; This function uses a non-reentrant model
  1003 ;;
  1004                           
  1005                           	psect	text6
  1006  0007B6                     __ptext6:
  1007                           	opt stack 0
  1008  0007B6                     _OSCILLATOR_Initialize:
  1009                           	opt stack 27
  1010                           
  1011                           ;mcc.c: 127: OSCCON = 0x70;
  1012                           
  1013                           ; BSR set to: 15
  1014                           ;incstack = 0
  1015  0007B6  0E70               	movlw	112
  1016  0007B8  6ED3               	movwf	4051,c	;volatile
  1017                           
  1018                           ;mcc.c: 129: OSCCON2 = 0x04;
  1019  0007BA  0E04               	movlw	4
  1020  0007BC  6ED2               	movwf	4050,c	;volatile
  1021                           
  1022                           ;mcc.c: 131: OSCTUNE = 0x00;
  1023  0007BE  0E00               	movlw	0
  1024  0007C0  6E9B               	movwf	3995,c	;volatile
  1025  0007C2  0012               	return		;funcret
  1026  0007C4                     __end_of_OSCILLATOR_Initialize:
  1027                           	opt stack 0
  1028                           tblptru	equ	0xFF8
  1029                           tblptrh	equ	0xFF7
  1030                           tblptrl	equ	0xFF6
  1031                           tablat	equ	0xFF5
  1032                           intcon	equ	0xFF2
  1033                           intcon2	equ	0xFF1
  1034                           postinc0	equ	0xFEE
  1035                           wreg	equ	0xFE8
  1036                           
  1037 ;; *************** function _INTERRUPT_Initialize *****************
  1038 ;; Defined at:
  1039 ;;		line 52 in file "mcc_generated_files/interrupt_manager.c"
  1040 ;; Parameters:    Size  Location     Type
  1041 ;;		None
  1042 ;; Auto vars:     Size  Location     Type
  1043 ;;		None
  1044 ;; Return value:  Size  Location     Type
  1045 ;;		None               void
  1046 ;; Registers used:
  1047 ;;		None
  1048 ;; Tracked objects:
  1049 ;;		On entry : 0/0
  1050 ;;		On exit  : 0/0
  1051 ;;		Unchanged: 0/0
  1052 ;; Data sizes:     COMRAM   BANK0   BANK1   BANK2   BANK3   BANK4   BANK5
  1053 ;;      Params:         0       0       0       0       0       0       0
  1054 ;;      Locals:         0       0       0       0       0       0       0
  1055 ;;      Temps:          0       0       0       0       0       0       0
  1056 ;;      Totals:         0       0       0       0       0       0       0
  1057 ;;Total ram usage:        0 bytes
  1058 ;; Hardware stack levels used:    1
  1059 ;; Hardware stack levels required when called:    2
  1060 ;; This function calls:
  1061 ;;		Nothing
  1062 ;; This function is called by:
  1063 ;;		_SYSTEM_Initialize
  1064 ;; This function uses a non-reentrant model
  1065 ;;
  1066                           
  1067                           	psect	text7
  1068  0007C4                     __ptext7:
  1069                           	opt stack 0
  1070  0007C4                     _INTERRUPT_Initialize:
  1071                           	opt stack 27
  1072                           
  1073                           ;interrupt_manager.c: 55: RCONbits.IPEN = 0;
  1074                           
  1075                           ;incstack = 0
  1076  0007C4  9ED0               	bcf	4048,7,c	;volatile
  1077                           
  1078                           ;interrupt_manager.c: 60: IPR1bits.ADIP = 0;
  1079  0007C6  9C9F               	bcf	3999,6,c	;volatile
  1080  0007C8  0012               	return		;funcret
  1081  0007CA                     __end_of_INTERRUPT_Initialize:
  1082                           	opt stack 0
  1083                           tblptru	equ	0xFF8
  1084                           tblptrh	equ	0xFF7
  1085                           tblptrl	equ	0xFF6
  1086                           tablat	equ	0xFF5
  1087                           intcon	equ	0xFF2
  1088                           intcon2	equ	0xFF1
  1089                           postinc0	equ	0xFEE
  1090                           wreg	equ	0xFE8
  1091                           
  1092 ;; *************** function _ADC_Initialize *****************
  1093 ;; Defined at:
  1094 ;;		line 59 in file "mcc_generated_files/adc.c"
  1095 ;; Parameters:    Size  Location     Type
  1096 ;;		None
  1097 ;; Auto vars:     Size  Location     Type
  1098 ;;		None
  1099 ;; Return value:  Size  Location     Type
  1100 ;;		None               void
  1101 ;; Registers used:
  1102 ;;		wreg, status,2
  1103 ;; Tracked objects:
  1104 ;;		On entry : 0/0
  1105 ;;		On exit  : 0/0
  1106 ;;		Unchanged: 0/0
  1107 ;; Data sizes:     COMRAM   BANK0   BANK1   BANK2   BANK3   BANK4   BANK5
  1108 ;;      Params:         0       0       0       0       0       0       0
  1109 ;;      Locals:         0       0       0       0       0       0       0
  1110 ;;      Temps:          0       0       0       0       0       0       0
  1111 ;;      Totals:         0       0       0       0       0       0       0
  1112 ;;Total ram usage:        0 bytes
  1113 ;; Hardware stack levels used:    1
  1114 ;; Hardware stack levels required when called:    2
  1115 ;; This function calls:
  1116 ;;		Nothing
  1117 ;; This function is called by:
  1118 ;;		_SYSTEM_Initialize
  1119 ;; This function uses a non-reentrant model
  1120 ;;
  1121                           
  1122                           	psect	text8
  1123  000776                     __ptext8:
  1124                           	opt stack 0
  1125  000776                     _ADC_Initialize:
  1126                           	opt stack 27
  1127                           
  1128                           ;adc.c: 64: ADCON0 = 0x01;
  1129                           
  1130                           ;incstack = 0
  1131  000776  0E01               	movlw	1
  1132  000778  6EC2               	movwf	4034,c	;volatile
  1133                           
  1134                           ;adc.c: 67: ADCON1 = 0x00;
  1135  00077A  0E00               	movlw	0
  1136  00077C  6EC1               	movwf	4033,c	;volatile
  1137                           
  1138                           ;adc.c: 70: ADCON2 = 0x0D;
  1139  00077E  0E0D               	movlw	13
  1140  000780  6EC0               	movwf	4032,c	;volatile
  1141                           
  1142                           ;adc.c: 73: ADRESL = 0x00;
  1143  000782  0E00               	movlw	0
  1144  000784  6EC3               	movwf	4035,c	;volatile
  1145                           
  1146                           ;adc.c: 76: ADRESH = 0x00;
  1147  000786  0E00               	movlw	0
  1148  000788  6EC4               	movwf	4036,c	;volatile
  1149                           
  1150                           ;adc.c: 79: PIE1bits.ADIE = 1;
  1151  00078A  8C9D               	bsf	3997,6,c	;volatile
  1152  00078C  0012               	return		;funcret
  1153  00078E                     __end_of_ADC_Initialize:
  1154                           	opt stack 0
  1155                           tblptru	equ	0xFF8
  1156                           tblptrh	equ	0xFF7
  1157                           tblptrl	equ	0xFF6
  1158                           tablat	equ	0xFF5
  1159                           intcon	equ	0xFF2
  1160                           intcon2	equ	0xFF1
  1161                           postinc0	equ	0xFEE
  1162                           wreg	equ	0xFE8
  1163                           
  1164 ;; *************** function _PDUStartup *****************
  1165 ;; Defined at:
  1166 ;;		line 15 in file "PDU.c"
  1167 ;; Parameters:    Size  Location     Type
  1168 ;;		None
  1169 ;; Auto vars:     Size  Location     Type
  1170 ;;		None
  1171 ;; Return value:  Size  Location     Type
  1172 ;;		None               void
  1173 ;; Registers used:
  1174 ;;		wreg, fsr2l, fsr2h, status,2, status,0, cstack
  1175 ;; Tracked objects:
  1176 ;;		On entry : 0/0
  1177 ;;		On exit  : 0/0
  1178 ;;		Unchanged: 0/0
  1179 ;; Data sizes:     COMRAM   BANK0   BANK1   BANK2   BANK3   BANK4   BANK5
  1180 ;;      Params:         0       0       0       0       0       0       0
  1181 ;;      Locals:         0       0       0       0       0       0       0
  1182 ;;      Temps:          0       0       0       0       0       0       0
  1183 ;;      Totals:         0       0       0       0       0       0       0
  1184 ;;Total ram usage:        0 bytes
  1185 ;; Hardware stack levels used:    1
  1186 ;; Hardware stack levels required when called:    6
  1187 ;; This function calls:
  1188 ;;		_ComputeStorageData
  1189 ;;		_EnableSlavePower
  1190 ;;		_StartUp595
  1191 ;;		_Update
  1192 ;; This function is called by:
  1193 ;;		_main
  1194 ;; This function uses a non-reentrant model
  1195 ;;
  1196                           
  1197                           	psect	text9
  1198  000538                     __ptext9:
  1199                           	opt stack 0
  1200  000538                     _PDUStartup:
  1201                           	opt stack 24
  1202                           
  1203                           ;PDU.c: 18: StartUp595();
  1204                           
  1205                           ;incstack = 0
  1206  000538  EC6B  F002         	call	_StartUp595	;wreg free
  1207                           
  1208                           ;PDU.c: 20: EnableSlavePower(SAS, ON);
  1209  00053C  0E00               	movlw	0
  1210  00053E  0100               	movlb	0	; () banked
  1211  000540  6FCA               	movwf	(EnableSlavePower@onof+1)& (0+255),b
  1212  000542  0E01               	movlw	1
  1213  000544  6FC9               	movwf	EnableSlavePower@onof& (0+255),b
  1214  000546  0E03               	movlw	3
  1215  000548  ECEF  F001         	call	_EnableSlavePower
  1216                           
  1217                           ;PDU.c: 21: EnableSlavePower(DDS, ON);
  1218  00054C  0E00               	movlw	0
  1219  00054E  0100               	movlb	0	; () banked
  1220  000550  6FCA               	movwf	(EnableSlavePower@onof+1)& (0+255),b
  1221  000552  0E01               	movlw	1
  1222  000554  6FC9               	movwf	EnableSlavePower@onof& (0+255),b
  1223  000556  0E01               	movlw	1
  1224  000558  ECEF  F001         	call	_EnableSlavePower
  1225                           
  1226                           ;PDU.c: 22: EnableSlavePower(MCS, OFF);
  1227  00055C  0E00               	movlw	0
  1228  00055E  0100               	movlb	0	; () banked
  1229  000560  6FCA               	movwf	(EnableSlavePower@onof+1)& (0+255),b
  1230  000562  0E00               	movlw	0
  1231  000564  6FC9               	movwf	EnableSlavePower@onof& (0+255),b
  1232  000566  0E02               	movlw	2
  1233  000568  ECEF  F001         	call	_EnableSlavePower
  1234                           
  1235                           ;PDU.c: 23: EnableSlavePower(BMM, OFF);
  1236  00056C  0E00               	movlw	0
  1237  00056E  0100               	movlb	0	; () banked
  1238  000570  6FCA               	movwf	(EnableSlavePower@onof+1)& (0+255),b
  1239  000572  0E00               	movlw	0
  1240  000574  6FC9               	movwf	EnableSlavePower@onof& (0+255),b
  1241  000576  0E04               	movlw	4
  1242  000578  ECEF  F001         	call	_EnableSlavePower
  1243                           
  1244                           ;PDU.c: 24: EnableSlavePower(TSS, OFF);
  1245  00057C  0E00               	movlw	0
  1246  00057E  0100               	movlb	0	; () banked
  1247  000580  6FCA               	movwf	(EnableSlavePower@onof+1)& (0+255),b
  1248  000582  0E00               	movlw	0
  1249  000584  6FC9               	movwf	EnableSlavePower@onof& (0+255),b
  1250  000586  0E05               	movlw	5
  1251  000588  ECEF  F001         	call	_EnableSlavePower
  1252                           
  1253                           ;PDU.c: 25: Update();
  1254  00058C  ECE5  F003         	call	_Update	;wreg free
  1255                           
  1256                           ;PDU.c: 27: ComputeStorageData();
  1257  000590  EC4B  F001         	call	_ComputeStorageData	;wreg free
  1258  000594  0012               	return		;funcret
  1259  000596                     __end_of_PDUStartup:
  1260                           	opt stack 0
  1261                           tblptru	equ	0xFF8
  1262                           tblptrh	equ	0xFF7
  1263                           tblptrl	equ	0xFF6
  1264                           tablat	equ	0xFF5
  1265                           intcon	equ	0xFF2
  1266                           intcon2	equ	0xFF1
  1267                           postinc0	equ	0xFEE
  1268                           wreg	equ	0xFE8
  1269                           
  1270 ;; *************** function _Update *****************
  1271 ;; Defined at:
  1272 ;;		line 142 in file "PDU.c"
  1273 ;; Parameters:    Size  Location     Type
  1274 ;;		None
  1275 ;; Auto vars:     Size  Location     Type
  1276 ;;		None
  1277 ;; Return value:  Size  Location     Type
  1278 ;;		None               void
  1279 ;; Registers used:
  1280 ;;		wreg, fsr2l, fsr2h, status,2, status,0, cstack
  1281 ;; Tracked objects:
  1282 ;;		On entry : 0/0
  1283 ;;		On exit  : 0/0
  1284 ;;		Unchanged: 0/0
  1285 ;; Data sizes:     COMRAM   BANK0   BANK1   BANK2   BANK3   BANK4   BANK5
  1286 ;;      Params:         0       0       0       0       0       0       0
  1287 ;;      Locals:         0       0       0       0       0       0       0
  1288 ;;      Temps:          0       0       0       0       0       0       0
  1289 ;;      Totals:         0       0       0       0       0       0       0
  1290 ;;Total ram usage:        0 bytes
  1291 ;; Hardware stack levels used:    1
  1292 ;; Hardware stack levels required when called:    4
  1293 ;; This function calls:
  1294 ;;		_writeRegisters
  1295 ;; This function is called by:
  1296 ;;		_PDUStartup
  1297 ;;		_processPowerRequest
  1298 ;;		_ReadCurrent
  1299 ;; This function uses a non-reentrant model
  1300 ;;
  1301                           
  1302                           	psect	text10
  1303  0007CA                     __ptext10:
  1304                           	opt stack 0
  1305  0007CA                     _Update:
  1306                           	opt stack 25
  1307                           
  1308                           ;PDU.c: 143: writeRegisters();
  1309                           
  1310                           ;incstack = 0
  1311  0007CA  ECA7  F001         	call	_writeRegisters	;wreg free
  1312  0007CE  0012               	return		;funcret
  1313  0007D0                     __end_of_Update:
  1314                           	opt stack 0
  1315                           tblptru	equ	0xFF8
  1316                           tblptrh	equ	0xFF7
  1317                           tblptrl	equ	0xFF6
  1318                           tablat	equ	0xFF5
  1319                           intcon	equ	0xFF2
  1320                           intcon2	equ	0xFF1
  1321                           postinc0	equ	0xFEE
  1322                           wreg	equ	0xFE8
  1323                           
  1324 ;; *************** function _StartUp595 *****************
  1325 ;; Defined at:
  1326 ;;		line 10 in file "Shift595.c"
  1327 ;; Parameters:    Size  Location     Type
  1328 ;;		None
  1329 ;; Auto vars:     Size  Location     Type
  1330 ;;		None
  1331 ;; Return value:  Size  Location     Type
  1332 ;;		None               void
  1333 ;; Registers used:
  1334 ;;		wreg, fsr2l, fsr2h, status,2, status,0, cstack
  1335 ;; Tracked objects:
  1336 ;;		On entry : 0/0
  1337 ;;		On exit  : 0/0
  1338 ;;		Unchanged: 0/0
  1339 ;; Data sizes:     COMRAM   BANK0   BANK1   BANK2   BANK3   BANK4   BANK5
  1340 ;;      Params:         0       0       0       0       0       0       0
  1341 ;;      Locals:         0       0       0       0       0       0       0
  1342 ;;      Temps:          0       0       0       0       0       0       0
  1343 ;;      Totals:         0       0       0       0       0       0       0
  1344 ;;Total ram usage:        0 bytes
  1345 ;; Hardware stack levels used:    1
  1346 ;; Hardware stack levels required when called:    5
  1347 ;; This function calls:
  1348 ;;		_Clear595
  1349 ;;		_Delay
  1350 ;; This function is called by:
  1351 ;;		_PDUStartup
  1352 ;; This function uses a non-reentrant model
  1353 ;;
  1354                           
  1355                           	psect	text11
  1356  0004D6                     __ptext11:
  1357                           	opt stack 0
  1358  0004D6                     _StartUp595:
  1359                           	opt stack 24
  1360                           
  1361                           ;incstack = 0
  1362                           ;Shift595.c: 12: do { LATD5 = 1; } while(0);
  1363  0004D6  8A8C               	bsf	3980,5,c	;volatile
  1364                           
  1365                           ;Shift595.c: 13: do { LATB0 = 1; } while(0);
  1366  0004D8  808A               	bsf	3978,0,c	;volatile
  1367                           
  1368                           ;Shift595.c: 15: Delay(2);
  1369  0004DA  0E02               	movlw	2
  1370  0004DC  6E49               	movwf	Delay@wait,c
  1371  0004DE  0E00               	movlw	0
  1372  0004E0  6E4A               	movwf	Delay@wait+1,c
  1373  0004E2  0E00               	movlw	0
  1374  0004E4  6E4B               	movwf	Delay@wait+2,c
  1375  0004E6  0E00               	movlw	0
  1376  0004E8  6E4C               	movwf	Delay@wait+3,c
  1377  0004EA  ECCB  F002         	call	_Delay	;wreg free
  1378                           
  1379                           ;Shift595.c: 16: do { LATD5 = 0; } while(0);
  1380  0004EE  9A8C               	bcf	3980,5,c	;volatile
  1381                           
  1382                           ;Shift595.c: 17: Delay(2);
  1383  0004F0  0E02               	movlw	2
  1384  0004F2  6E49               	movwf	Delay@wait,c
  1385  0004F4  0E00               	movlw	0
  1386  0004F6  6E4A               	movwf	Delay@wait+1,c
  1387  0004F8  0E00               	movlw	0
  1388  0004FA  6E4B               	movwf	Delay@wait+2,c
  1389  0004FC  0E00               	movlw	0
  1390  0004FE  6E4C               	movwf	Delay@wait+3,c
  1391  000500  ECCB  F002         	call	_Delay	;wreg free
  1392                           
  1393                           ;Shift595.c: 18: do { LATB0 = 0; } while(0);
  1394  000504  908A               	bcf	3978,0,c	;volatile
  1395                           
  1396                           ;Shift595.c: 19: Delay(2);
  1397  000506  0E02               	movlw	2
  1398  000508  6E49               	movwf	Delay@wait,c
  1399  00050A  0E00               	movlw	0
  1400  00050C  6E4A               	movwf	Delay@wait+1,c
  1401  00050E  0E00               	movlw	0
  1402  000510  6E4B               	movwf	Delay@wait+2,c
  1403  000512  0E00               	movlw	0
  1404  000514  6E4C               	movwf	Delay@wait+3,c
  1405  000516  ECCB  F002         	call	_Delay	;wreg free
  1406                           
  1407                           ;Shift595.c: 20: do { LATD5 = 1; } while(0);
  1408  00051A  8A8C               	bsf	3980,5,c	;volatile
  1409                           
  1410                           ;Shift595.c: 21: Delay(2);
  1411  00051C  0E02               	movlw	2
  1412  00051E  6E49               	movwf	Delay@wait,c
  1413  000520  0E00               	movlw	0
  1414  000522  6E4A               	movwf	Delay@wait+1,c
  1415  000524  0E00               	movlw	0
  1416  000526  6E4B               	movwf	Delay@wait+2,c
  1417  000528  0E00               	movlw	0
  1418  00052A  6E4C               	movwf	Delay@wait+3,c
  1419  00052C  ECCB  F002         	call	_Delay	;wreg free
  1420                           
  1421                           ;Shift595.c: 22: do { LATB0 = 1; } while(0);
  1422  000530  808A               	bsf	3978,0,c	;volatile
  1423                           
  1424                           ;Shift595.c: 24: Clear595();
  1425  000532  EC5F  F003         	call	_Clear595	;wreg free
  1426  000536  0012               	return		;funcret
  1427  000538                     __end_of_StartUp595:
  1428                           	opt stack 0
  1429                           tblptru	equ	0xFF8
  1430                           tblptrh	equ	0xFF7
  1431                           tblptrl	equ	0xFF6
  1432                           tablat	equ	0xFF5
  1433                           intcon	equ	0xFF2
  1434                           intcon2	equ	0xFF1
  1435                           postinc0	equ	0xFEE
  1436                           wreg	equ	0xFE8
  1437                           
  1438 ;; *************** function _Clear595 *****************
  1439 ;; Defined at:
  1440 ;;		line 39 in file "Shift595.c"
  1441 ;; Parameters:    Size  Location     Type
  1442 ;;		None
  1443 ;; Auto vars:     Size  Location     Type
  1444 ;;  i               2    8[BANK0 ] int 
  1445 ;; Return value:  Size  Location     Type
  1446 ;;		None               void
  1447 ;; Registers used:
  1448 ;;		wreg, fsr2l, fsr2h, status,2, status,0, cstack
  1449 ;; Tracked objects:
  1450 ;;		On entry : 0/0
  1451 ;;		On exit  : 0/0
  1452 ;;		Unchanged: 0/0
  1453 ;; Data sizes:     COMRAM   BANK0   BANK1   BANK2   BANK3   BANK4   BANK5
  1454 ;;      Params:         0       0       0       0       0       0       0
  1455 ;;      Locals:         0       2       0       0       0       0       0
  1456 ;;      Temps:          0       0       0       0       0       0       0
  1457 ;;      Totals:         0       2       0       0       0       0       0
  1458 ;;Total ram usage:        2 bytes
  1459 ;; Hardware stack levels used:    1
  1460 ;; Hardware stack levels required when called:    4
  1461 ;; This function calls:
  1462 ;;		_writeRegisters
  1463 ;; This function is called by:
  1464 ;;		_StartUp595
  1465 ;; This function uses a non-reentrant model
  1466 ;;
  1467                           
  1468                           	psect	text12
  1469  0006BE                     __ptext12:
  1470                           	opt stack 0
  1471  0006BE                     _Clear595:
  1472                           	opt stack 24
  1473                           
  1474                           ;Shift595.c: 40: for (int i = 3 * 8 - 1; i >= 0; i--) {
  1475                           
  1476                           ;incstack = 0
  1477  0006BE  0E00               	movlw	0
  1478  0006C0  0100               	movlb	0	; () banked
  1479  0006C2  6FD2               	movwf	(Clear595@i+1)& (0+255),b
  1480  0006C4  0E17               	movlw	23
  1481  0006C6  6FD1               	movwf	Clear595@i& (0+255),b
  1482  0006C8                     l3052:
  1483                           
  1484                           ; BSR set to: 0
  1485  0006C8  0100               	movlb	0	; () banked
  1486  0006CA  BFD2               	btfsc	(Clear595@i+1)& (0+255),7,b
  1487  0006CC  D00F               	goto	l3062
  1488                           
  1489                           ; BSR set to: 0
  1490                           ;Shift595.c: 41: registers[i] = 0;
  1491                           
  1492                           ; BSR set to: 0
  1493                           
  1494                           ; BSR set to: 0
  1495  0006CE  0E88               	movlw	low _registers
  1496  0006D0  0100               	movlb	0	; () banked
  1497  0006D2  25D1               	addwf	Clear595@i& (0+255),w,b
  1498  0006D4  6ED9               	movwf	fsr2l,c
  1499  0006D6  0E00               	movlw	high _registers
  1500  0006D8  0100               	movlb	0	; () banked
  1501  0006DA  21D2               	addwfc	(Clear595@i+1)& (0+255),w,b
  1502  0006DC  6EDA               	movwf	fsr2h,c
  1503  0006DE  0E00               	movlw	0
  1504  0006E0  6EDF               	movwf	indf2,c
  1505                           
  1506                           ; BSR set to: 0
  1507  0006E2  0100               	movlb	0	; () banked
  1508  0006E4  07D1               	decf	Clear595@i& (0+255),f,b
  1509  0006E6  A0D8               	btfss	status,0,c
  1510  0006E8  07D2               	decf	(Clear595@i+1)& (0+255),f,b
  1511  0006EA  D7EE               	goto	l3052
  1512  0006EC                     l3062:
  1513                           
  1514                           ; BSR set to: 0
  1515                           ;Shift595.c: 42: }
  1516                           ;Shift595.c: 44: writeRegisters();
  1517  0006EC  ECA7  F001         	call	_writeRegisters	;wreg free
  1518  0006F0  0012               	return		;funcret
  1519  0006F2                     __end_of_Clear595:
  1520                           	opt stack 0
  1521                           tblptru	equ	0xFF8
  1522                           tblptrh	equ	0xFF7
  1523                           tblptrl	equ	0xFF6
  1524                           tablat	equ	0xFF5
  1525                           intcon	equ	0xFF2
  1526                           intcon2	equ	0xFF1
  1527                           postinc0	equ	0xFEE
  1528                           wreg	equ	0xFE8
  1529                           indf2	equ	0xFDF
  1530                           fsr2h	equ	0xFDA
  1531                           fsr2l	equ	0xFD9
  1532                           status	equ	0xFD8
  1533                           
  1534 ;; *************** function _writeRegisters *****************
  1535 ;; Defined at:
  1536 ;;		line 50 in file "Shift595.c"
  1537 ;; Parameters:    Size  Location     Type
  1538 ;;		None
  1539 ;; Auto vars:     Size  Location     Type
  1540 ;;  i               2    6[BANK0 ] int 
  1541 ;;  val             2    4[BANK0 ] int 
  1542 ;; Return value:  Size  Location     Type
  1543 ;;		None               void
  1544 ;; Registers used:
  1545 ;;		wreg, fsr2l, fsr2h, status,2, status,0, cstack
  1546 ;; Tracked objects:
  1547 ;;		On entry : 0/0
  1548 ;;		On exit  : 0/0
  1549 ;;		Unchanged: 0/0
  1550 ;; Data sizes:     COMRAM   BANK0   BANK1   BANK2   BANK3   BANK4   BANK5
  1551 ;;      Params:         0       0       0       0       0       0       0
  1552 ;;      Locals:         0       4       0       0       0       0       0
  1553 ;;      Temps:          1       0       0       0       0       0       0
  1554 ;;      Totals:         1       4       0       0       0       0       0
  1555 ;;Total ram usage:        5 bytes
  1556 ;; Hardware stack levels used:    1
  1557 ;; Hardware stack levels required when called:    3
  1558 ;; This function calls:
  1559 ;;		_Delay
  1560 ;; This function is called by:
  1561 ;;		_Update
  1562 ;;		_Clear595
  1563 ;; This function uses a non-reentrant model
  1564 ;;
  1565                           
  1566                           	psect	text13
  1567  00034E                     __ptext13:
  1568                           	opt stack 0
  1569  00034E                     _writeRegisters:
  1570                           	opt stack 25
  1571                           
  1572                           ;Shift595.c: 51: int val = 0;
  1573                           
  1574                           ;incstack = 0
  1575  00034E  0E00               	movlw	0
  1576  000350  0100               	movlb	0	; () banked
  1577  000352  6FCE               	movwf	(writeRegisters@val+1)& (0+255),b
  1578  000354  0E00               	movlw	0
  1579  000356  6FCD               	movwf	writeRegisters@val& (0+255),b
  1580                           
  1581                           ;Shift595.c: 52: for (int i = 3 * 8 - 1; i >= 0; i--) {
  1582  000358  0E00               	movlw	0
  1583  00035A  0100               	movlb	0	; () banked
  1584  00035C  6FD0               	movwf	(writeRegisters@i+1)& (0+255),b
  1585  00035E  0E17               	movlw	23
  1586  000360  6FCF               	movwf	writeRegisters@i& (0+255),b
  1587  000362                     l3028:
  1588                           
  1589                           ; BSR set to: 0
  1590  000362  0100               	movlb	0	; () banked
  1591  000364  BFD0               	btfsc	(writeRegisters@i+1)& (0+255),7,b
  1592  000366  D023               	goto	l692
  1593                           
  1594                           ; BSR set to: 0
  1595                           
  1596                           ; BSR set to: 0
  1597                           ;Shift595.c: 53: do { LATD7 = 0; } while(0);
  1598                           
  1599                           ; BSR set to: 0
  1600  000368  9E8C               	bcf	3980,7,c	;volatile
  1601                           
  1602                           ; BSR set to: 0
  1603                           ;Shift595.c: 55: val = registers[i];
  1604                           
  1605                           ; BSR set to: 0
  1606  00036A  0E88               	movlw	low _registers
  1607  00036C  0100               	movlb	0	; () banked
  1608  00036E  25CF               	addwf	writeRegisters@i& (0+255),w,b
  1609  000370  6ED9               	movwf	fsr2l,c
  1610  000372  0E00               	movlw	high _registers
  1611  000374  0100               	movlb	0	; () banked
  1612  000376  21D0               	addwfc	(writeRegisters@i+1)& (0+255),w,b
  1613  000378  6EDA               	movwf	fsr2h,c
  1614  00037A  50DF               	movf	indf2,w,c
  1615  00037C  6E4E               	movwf	??_writeRegisters& (0+255),c
  1616  00037E  504E               	movf	??_writeRegisters,w,c
  1617  000380  0100               	movlb	0	; () banked
  1618  000382  6FCD               	movwf	writeRegisters@val& (0+255),b
  1619  000384  6BCE               	clrf	(writeRegisters@val+1)& (0+255),b
  1620                           
  1621                           ; BSR set to: 0
  1622                           ;Shift595.c: 56: if (val == 1) {
  1623  000386  0100               	movlb	0	; () banked
  1624  000388  05CD               	decf	writeRegisters@val& (0+255),w,b
  1625  00038A  0100               	movlb	0	; () banked
  1626  00038C  11CE               	iorwf	(writeRegisters@val+1)& (0+255),w,b
  1627  00038E  A4D8               	btfss	status,2,c
  1628  000390  D002               	goto	l3036
  1629                           
  1630                           ; BSR set to: 0
  1631                           
  1632                           ;Shift595.c: 57: do { LATD4 = 1; } while(0);
  1633  000392  888C               	bsf	3980,4,c	;volatile
  1634                           
  1635                           ; BSR set to: 0
  1636                           ;Shift595.c: 58: } else if (val == 0) {
  1637  000394  D006               	goto	l690
  1638  000396                     l3036:
  1639                           
  1640                           ; BSR set to: 0
  1641  000396  0100               	movlb	0	; () banked
  1642  000398  51CD               	movf	writeRegisters@val& (0+255),w,b
  1643  00039A  0100               	movlb	0	; () banked
  1644  00039C  11CE               	iorwf	(writeRegisters@val+1)& (0+255),w,b
  1645  00039E  B4D8               	btfsc	status,2,c
  1646                           
  1647                           ; BSR set to: 0
  1648                           
  1649                           ;Shift595.c: 59: do { LATD4 = 0; } while(0);
  1650  0003A0  988C               	bcf	3980,4,c	;volatile
  1651  0003A2                     l690:
  1652                           
  1653                           ; BSR set to: 0
  1654  0003A2  8E8C               	bsf	3980,7,c	;volatile
  1655                           
  1656                           ; BSR set to: 0
  1657                           
  1658                           ; BSR set to: 0
  1659  0003A4  0100               	movlb	0	; () banked
  1660  0003A6  07CF               	decf	writeRegisters@i& (0+255),f,b
  1661  0003A8  A0D8               	btfss	status,0,c
  1662  0003AA  07D0               	decf	(writeRegisters@i+1)& (0+255),f,b
  1663  0003AC  D7DA               	goto	l3028
  1664  0003AE                     l692:
  1665                           
  1666                           ; BSR set to: 0
  1667  0003AE  9E8C               	bcf	3980,7,c	;volatile
  1668                           
  1669                           ; BSR set to: 0
  1670                           ;Shift595.c: 67: Delay(1);
  1671                           
  1672                           ; BSR set to: 0
  1673  0003B0  0E01               	movlw	1
  1674  0003B2  6E49               	movwf	Delay@wait,c
  1675  0003B4  0E00               	movlw	0
  1676  0003B6  6E4A               	movwf	Delay@wait+1,c
  1677  0003B8  0E00               	movlw	0
  1678  0003BA  6E4B               	movwf	Delay@wait+2,c
  1679  0003BC  0E00               	movlw	0
  1680  0003BE  6E4C               	movwf	Delay@wait+3,c
  1681  0003C0  ECCB  F002         	call	_Delay	;wreg free
  1682                           
  1683                           ;Shift595.c: 68: do { LATD6 = 1; } while(0);
  1684  0003C4  8C8C               	bsf	3980,6,c	;volatile
  1685                           
  1686                           ;Shift595.c: 69: Delay(1);
  1687  0003C6  0E01               	movlw	1
  1688  0003C8  6E49               	movwf	Delay@wait,c
  1689  0003CA  0E00               	movlw	0
  1690  0003CC  6E4A               	movwf	Delay@wait+1,c
  1691  0003CE  0E00               	movlw	0
  1692  0003D0  6E4B               	movwf	Delay@wait+2,c
  1693  0003D2  0E00               	movlw	0
  1694  0003D4  6E4C               	movwf	Delay@wait+3,c
  1695  0003D6  ECCB  F002         	call	_Delay	;wreg free
  1696                           
  1697                           ;Shift595.c: 70: do { LATD6 = 0; } while(0);
  1698  0003DA  9C8C               	bcf	3980,6,c	;volatile
  1699  0003DC  0012               	return	
  1700  0003DE                     __end_of_writeRegisters:
  1701                           	opt stack 0
  1702                           tblptru	equ	0xFF8
  1703                           tblptrh	equ	0xFF7
  1704                           tblptrl	equ	0xFF6
  1705                           tablat	equ	0xFF5
  1706                           intcon	equ	0xFF2
  1707                           intcon2	equ	0xFF1
  1708                           postinc0	equ	0xFEE
  1709                           wreg	equ	0xFE8
  1710                           indf2	equ	0xFDF
  1711                           fsr2h	equ	0xFDA
  1712                           fsr2l	equ	0xFD9
  1713                           status	equ	0xFD8
  1714                           
  1715 ;; *************** function _EnableSlavePower *****************
  1716 ;; Defined at:
  1717 ;;		line 32 in file "PDU.c"
  1718 ;; Parameters:    Size  Location     Type
  1719 ;;  slave           1    wreg     enum E5
  1720 ;;  onof            2    0[BANK0 ] int 
  1721 ;; Auto vars:     Size  Location     Type
  1722 ;;  slave           1    2[BANK0 ] enum E5
  1723 ;; Return value:  Size  Location     Type
  1724 ;;		None               void
  1725 ;; Registers used:
  1726 ;;		wreg, fsr2l, fsr2h, status,2, status,0, cstack
  1727 ;; Tracked objects:
  1728 ;;		On entry : 0/0
  1729 ;;		On exit  : 0/0
  1730 ;;		Unchanged: 0/0
  1731 ;; Data sizes:     COMRAM   BANK0   BANK1   BANK2   BANK3   BANK4   BANK5
  1732 ;;      Params:         0       2       0       0       0       0       0
  1733 ;;      Locals:         0       1       0       0       0       0       0
  1734 ;;      Temps:          0       0       0       0       0       0       0
  1735 ;;      Totals:         0       3       0       0       0       0       0
  1736 ;;Total ram usage:        3 bytes
  1737 ;; Hardware stack levels used:    1
  1738 ;; Hardware stack levels required when called:    3
  1739 ;; This function calls:
  1740 ;;		_SetPin595
  1741 ;; This function is called by:
  1742 ;;		_PDUStartup
  1743 ;;		_processPowerRequest
  1744 ;;		_FuseSystem
  1745 ;; This function uses a non-reentrant model
  1746 ;;
  1747                           
  1748                           	psect	text14
  1749  0003DE                     __ptext14:
  1750                           	opt stack 0
  1751  0003DE                     _EnableSlavePower:
  1752                           	opt stack 26
  1753                           
  1754                           ;incstack = 0
  1755                           ;EnableSlavePower@slave stored from wreg
  1756  0003DE  0100               	movlb	0	; () banked
  1757  0003E0  6FCB               	movwf	EnableSlavePower@slave& (0+255),b
  1758                           
  1759                           ;PDU.c: 33: switch (slave) {
  1760  0003E2  D030               	goto	l3080
  1761  0003E4                     l3066:
  1762                           
  1763                           ;PDU.c: 35: SetPin595(2, 1, onof);
  1764  0003E4  0E01               	movlw	1
  1765  0003E6  6E49               	movwf	SetPin595@pin,c
  1766  0003E8  C0C9  F04A         	movff	EnableSlavePower@onof,SetPin595@value
  1767  0003EC  0E02               	movlw	2
  1768  0003EE  EC22  F003         	call	_SetPin595
  1769                           
  1770                           ;PDU.c: 36: break;
  1771  0003F2  0012               	return	
  1772  0003F4                     l3068:
  1773                           
  1774                           ;PDU.c: 38: SetPin595(1, 1, onof);
  1775  0003F4  0E01               	movlw	1
  1776  0003F6  6E49               	movwf	SetPin595@pin,c
  1777  0003F8  C0C9  F04A         	movff	EnableSlavePower@onof,SetPin595@value
  1778  0003FC  0E01               	movlw	1
  1779  0003FE  EC22  F003         	call	_SetPin595
  1780                           
  1781                           ;PDU.c: 39: break;
  1782  000402  0012               	return	
  1783  000404                     l3070:
  1784                           
  1785                           ;PDU.c: 41: SetPin595(1, 6, onof);
  1786  000404  0E06               	movlw	6
  1787  000406  6E49               	movwf	SetPin595@pin,c
  1788  000408  C0C9  F04A         	movff	EnableSlavePower@onof,SetPin595@value
  1789  00040C  0E01               	movlw	1
  1790  00040E  EC22  F003         	call	_SetPin595
  1791                           
  1792                           ;PDU.c: 42: break;
  1793  000412  0012               	return	
  1794  000414                     l3072:
  1795                           
  1796                           ;PDU.c: 44: SetPin595(2, 6, onof);
  1797  000414  0E06               	movlw	6
  1798  000416  6E49               	movwf	SetPin595@pin,c
  1799  000418  C0C9  F04A         	movff	EnableSlavePower@onof,SetPin595@value
  1800  00041C  0E02               	movlw	2
  1801  00041E  EC22  F003         	call	_SetPin595
  1802                           
  1803                           ;PDU.c: 45: break;
  1804  000422  0012               	return	
  1805  000424                     l3074:
  1806                           
  1807                           ;PDU.c: 47: SetPin595(3, 6, onof);
  1808  000424  0E06               	movlw	6
  1809  000426  6E49               	movwf	SetPin595@pin,c
  1810  000428  C0C9  F04A         	movff	EnableSlavePower@onof,SetPin595@value
  1811  00042C  0E03               	movlw	3
  1812  00042E  EC22  F003         	call	_SetPin595
  1813                           
  1814                           ;PDU.c: 48: break;
  1815  000432  0012               	return	
  1816  000434                     l3076:
  1817                           
  1818                           ;PDU.c: 50: SetPin595(3, 1, onof);
  1819  000434  0E01               	movlw	1
  1820  000436  6E49               	movwf	SetPin595@pin,c
  1821  000438  C0C9  F04A         	movff	EnableSlavePower@onof,SetPin595@value
  1822  00043C  0E03               	movlw	3
  1823  00043E  EC22  F003         	call	_SetPin595
  1824                           
  1825                           ;PDU.c: 52: }
  1826                           
  1827                           ;PDU.c: 51: break;
  1828  000442  0012               	return	
  1829  000444                     l3080:
  1830  000444  0100               	movlb	0	; () banked
  1831  000446  51CB               	movf	EnableSlavePower@slave& (0+255),w,b
  1832                           
  1833                           ; Switch size 1, requested type "space"
  1834                           ; Number of cases is 6, Range of values is 1 to 6
  1835                           ; switch strategies available:
  1836                           ; Name         Instructions Cycles
  1837                           ; simple_byte           19    10 (average)
  1838                           ;	Chosen strategy is simple_byte
  1839  000448  0A01               	xorlw	1	; case 1
  1840  00044A  B4D8               	btfsc	status,2,c
  1841  00044C  D7E3               	goto	l3072
  1842  00044E  0A03               	xorlw	3	; case 2
  1843  000450  B4D8               	btfsc	status,2,c
  1844  000452  D7D8               	goto	l3070
  1845  000454  0A01               	xorlw	1	; case 3
  1846  000456  B4D8               	btfsc	status,2,c
  1847  000458  D7C5               	goto	l3066
  1848  00045A  0A07               	xorlw	7	; case 4
  1849  00045C  B4D8               	btfsc	status,2,c
  1850  00045E  D7CA               	goto	l3068
  1851  000460  0A01               	xorlw	1	; case 5
  1852  000462  B4D8               	btfsc	status,2,c
  1853  000464  D7DF               	goto	l3074
  1854  000466  0A03               	xorlw	3	; case 6
  1855  000468  A4D8               	btfss	status,2,c
  1856  00046A  0012               	return	
  1857  00046C  D7E3               	goto	l3076
  1858  00046E                     __end_of_EnableSlavePower:
  1859                           	opt stack 0
  1860                           tblptru	equ	0xFF8
  1861                           tblptrh	equ	0xFF7
  1862                           tblptrl	equ	0xFF6
  1863                           tablat	equ	0xFF5
  1864                           intcon	equ	0xFF2
  1865                           intcon2	equ	0xFF1
  1866                           postinc0	equ	0xFEE
  1867                           wreg	equ	0xFE8
  1868                           indf2	equ	0xFDF
  1869                           fsr2h	equ	0xFDA
  1870                           fsr2l	equ	0xFD9
  1871                           status	equ	0xFD8
  1872                           
  1873 ;; *************** function _SetPin595 *****************
  1874 ;; Defined at:
  1875 ;;		line 32 in file "Shift595.c"
  1876 ;; Parameters:    Size  Location     Type
  1877 ;;  Reg             1    wreg     unsigned char 
  1878 ;;  pin             1   14[COMRAM] unsigned char 
  1879 ;;  value           1   15[COMRAM] unsigned char 
  1880 ;; Auto vars:     Size  Location     Type
  1881 ;;  Reg             1   20[COMRAM] unsigned char 
  1882 ;; Return value:  Size  Location     Type
  1883 ;;		None               void
  1884 ;; Registers used:
  1885 ;;		wreg, fsr2l, fsr2h, status,2, status,0
  1886 ;; Tracked objects:
  1887 ;;		On entry : 0/0
  1888 ;;		On exit  : 0/0
  1889 ;;		Unchanged: 0/0
  1890 ;; Data sizes:     COMRAM   BANK0   BANK1   BANK2   BANK3   BANK4   BANK5
  1891 ;;      Params:         2       0       0       0       0       0       0
  1892 ;;      Locals:         1       0       0       0       0       0       0
  1893 ;;      Temps:          4       0       0       0       0       0       0
  1894 ;;      Totals:         7       0       0       0       0       0       0
  1895 ;;Total ram usage:        7 bytes
  1896 ;; Hardware stack levels used:    1
  1897 ;; Hardware stack levels required when called:    2
  1898 ;; This function calls:
  1899 ;;		Nothing
  1900 ;; This function is called by:
  1901 ;;		_EnableSlavePower
  1902 ;;		_ReadCurrent
  1903 ;; This function uses a non-reentrant model
  1904 ;;
  1905                           
  1906                           	psect	text15
  1907  000644                     __ptext15:
  1908                           	opt stack 0
  1909  000644                     _SetPin595:
  1910                           	opt stack 26
  1911                           
  1912                           ;incstack = 0
  1913                           ;SetPin595@Reg stored from wreg
  1914  000644  6E4F               	movwf	SetPin595@Reg,c
  1915                           
  1916                           ;Shift595.c: 33: registers[((Reg - 1)*8) + pin] = value;
  1917  000646  0EF8               	movlw	248
  1918  000648  6E4B               	movwf	??_SetPin595& (0+255),c
  1919  00064A  0EFF               	movlw	255
  1920  00064C  6E4C               	movwf	(??_SetPin595+1)& (0+255),c
  1921  00064E  5049               	movf	SetPin595@pin,w,c
  1922  000650  C04F  F04D         	movff	SetPin595@Reg,??_SetPin595+2
  1923  000654  6A4E               	clrf	(??_SetPin595+3)& (0+255),c
  1924  000656  90D8               	bcf	status,0,c
  1925  000658  364D               	rlcf	??_SetPin595+2,f,c
  1926  00065A  364E               	rlcf	??_SetPin595+3,f,c
  1927  00065C  90D8               	bcf	status,0,c
  1928  00065E  364D               	rlcf	??_SetPin595+2,f,c
  1929  000660  364E               	rlcf	??_SetPin595+3,f,c
  1930  000662  90D8               	bcf	status,0,c
  1931  000664  364D               	rlcf	??_SetPin595+2,f,c
  1932  000666  364E               	rlcf	??_SetPin595+3,f,c
  1933  000668  264D               	addwf	??_SetPin595+2,f,c
  1934  00066A  0E00               	movlw	0
  1935  00066C  224E               	addwfc	??_SetPin595+3,f,c
  1936  00066E  504B               	movf	??_SetPin595,w,c
  1937  000670  264D               	addwf	??_SetPin595+2,f,c
  1938  000672  504C               	movf	??_SetPin595+1,w,c
  1939  000674  224E               	addwfc	??_SetPin595+3,f,c
  1940  000676  0E88               	movlw	low _registers
  1941  000678  244D               	addwf	??_SetPin595+2,w,c
  1942  00067A  6ED9               	movwf	fsr2l,c
  1943  00067C  0E00               	movlw	high _registers
  1944  00067E  204E               	addwfc	??_SetPin595+3,w,c
  1945  000680  6EDA               	movwf	fsr2h,c
  1946  000682  C04A  FFDF         	movff	SetPin595@value,indf2
  1947  000686  0012               	return		;funcret
  1948  000688                     __end_of_SetPin595:
  1949                           	opt stack 0
  1950                           tblptru	equ	0xFF8
  1951                           tblptrh	equ	0xFF7
  1952                           tblptrl	equ	0xFF6
  1953                           tablat	equ	0xFF5
  1954                           intcon	equ	0xFF2
  1955                           intcon2	equ	0xFF1
  1956                           postinc0	equ	0xFEE
  1957                           wreg	equ	0xFE8
  1958                           indf2	equ	0xFDF
  1959                           fsr2h	equ	0xFDA
  1960                           fsr2l	equ	0xFD9
  1961                           status	equ	0xFD8
  1962                           
  1963 ;; *************** function _ComputeStorageData *****************
  1964 ;; Defined at:
  1965 ;;		line 94 in file "PDU.c"
  1966 ;; Parameters:    Size  Location     Type
  1967 ;;		None
  1968 ;; Auto vars:     Size  Location     Type
  1969 ;;  i               2   17[COMRAM] int 
  1970 ;; Return value:  Size  Location     Type
  1971 ;;		None               void
  1972 ;; Registers used:
  1973 ;;		wreg, fsr2l, fsr2h, status,2, status,0, cstack
  1974 ;; Tracked objects:
  1975 ;;		On entry : 0/0
  1976 ;;		On exit  : 0/0
  1977 ;;		Unchanged: 0/0
  1978 ;; Data sizes:     COMRAM   BANK0   BANK1   BANK2   BANK3   BANK4   BANK5
  1979 ;;      Params:         0       0       0       0       0       0       0
  1980 ;;      Locals:         2       0       0       0       0       0       0
  1981 ;;      Temps:          2       0       0       0       0       0       0
  1982 ;;      Totals:         4       0       0       0       0       0       0
  1983 ;;Total ram usage:        4 bytes
  1984 ;; Hardware stack levels used:    1
  1985 ;; Hardware stack levels required when called:    3
  1986 ;; This function calls:
  1987 ;;		_DATAEE_ReadByte
  1988 ;; This function is called by:
  1989 ;;		_PDUStartup
  1990 ;; This function uses a non-reentrant model
  1991 ;;
  1992                           
  1993                           	psect	text16
  1994  000296                     __ptext16:
  1995                           	opt stack 0
  1996  000296                     _ComputeStorageData:
  1997                           	opt stack 26
  1998                           
  1999                           ;PDU.c: 95: for (int i = 0; i < 12; i++) {
  2000                           
  2001                           ;incstack = 0
  2002  000296  0E00               	movlw	0
  2003  000298  6E4D               	movwf	ComputeStorageData@i+1,c
  2004  00029A  0E00               	movlw	0
  2005  00029C  6E4C               	movwf	ComputeStorageData@i,c
  2006  00029E                     l1604:
  2007  00029E  BE4D               	btfsc	ComputeStorageData@i+1,7,c
  2008  0002A0  D006               	goto	l1608
  2009  0002A2  504D               	movf	ComputeStorageData@i+1,w,c
  2010  0002A4  E111               	bnz	l1614
  2011  0002A6  0E0C               	movlw	12
  2012  0002A8  5C4C               	subwf	ComputeStorageData@i,w,c
  2013  0002AA  B0D8               	btfsc	status,0,c
  2014  0002AC  D00D               	goto	l1614
  2015  0002AE                     l1608:
  2016                           
  2017                           ;PDU.c: 96: data[i] = DATAEE_ReadByte(i);
  2018  0002AE  0E0D               	movlw	low _data
  2019  0002B0  244C               	addwf	ComputeStorageData@i,w,c
  2020  0002B2  6ED9               	movwf	fsr2l,c
  2021  0002B4  0E00               	movlw	high _data
  2022  0002B6  204D               	addwfc	ComputeStorageData@i+1,w,c
  2023  0002B8  6EDA               	movwf	fsr2h,c
  2024  0002BA  504C               	movf	ComputeStorageData@i,w,c
  2025  0002BC  ECD1  F003         	call	_DATAEE_ReadByte
  2026  0002C0  6EDF               	movwf	indf2,c
  2027  0002C2  4A4C               	infsnz	ComputeStorageData@i,f,c
  2028  0002C4  2A4D               	incf	ComputeStorageData@i+1,f,c
  2029  0002C6  D7EB               	goto	l1604
  2030  0002C8                     l1614:
  2031                           
  2032                           ;PDU.c: 97: }
  2033                           ;PDU.c: 98: Currentcomp[0] = ((data[0] << 8) | data[1]);
  2034  0002C8  500E               	movf	_data+1,w,c
  2035  0002CA  C00D  F04A         	movff	_data,??_ComputeStorageData
  2036  0002CE  6A4B               	clrf	(??_ComputeStorageData+1)& (0+255),c
  2037  0002D0  C04A  F04B         	movff	??_ComputeStorageData,??_ComputeStorageData+1
  2038  0002D4  6A4A               	clrf	??_ComputeStorageData,c
  2039  0002D6  104A               	iorwf	??_ComputeStorageData,w,c
  2040  0002D8  6E01               	movwf	_Currentcomp,c
  2041  0002DA  504B               	movf	??_ComputeStorageData+1,w,c
  2042  0002DC  6E02               	movwf	_Currentcomp+1,c
  2043                           
  2044                           ;PDU.c: 99: Currentcomp[1] = ((data[2] << 8) | data[3]);
  2045  0002DE  5010               	movf	_data+3,w,c
  2046  0002E0  C00F  F04A         	movff	_data+2,??_ComputeStorageData
  2047  0002E4  6A4B               	clrf	(??_ComputeStorageData+1)& (0+255),c
  2048  0002E6  C04A  F04B         	movff	??_ComputeStorageData,??_ComputeStorageData+1
  2049  0002EA  6A4A               	clrf	??_ComputeStorageData,c
  2050  0002EC  104A               	iorwf	??_ComputeStorageData,w,c
  2051  0002EE  6E03               	movwf	_Currentcomp+2,c
  2052  0002F0  504B               	movf	??_ComputeStorageData+1,w,c
  2053  0002F2  6E04               	movwf	_Currentcomp+3,c
  2054                           
  2055                           ;PDU.c: 100: Currentcomp[2] = ((data[4] << 8) | data[5]);
  2056  0002F4  5012               	movf	_data+5,w,c
  2057  0002F6  C011  F04A         	movff	_data+4,??_ComputeStorageData
  2058  0002FA  6A4B               	clrf	(??_ComputeStorageData+1)& (0+255),c
  2059  0002FC  C04A  F04B         	movff	??_ComputeStorageData,??_ComputeStorageData+1
  2060  000300  6A4A               	clrf	??_ComputeStorageData,c
  2061  000302  104A               	iorwf	??_ComputeStorageData,w,c
  2062  000304  6E05               	movwf	_Currentcomp+4,c
  2063  000306  504B               	movf	??_ComputeStorageData+1,w,c
  2064  000308  6E06               	movwf	_Currentcomp+5,c
  2065                           
  2066                           ;PDU.c: 101: Currentcomp[3] = ((data[6] << 8) | data[7]);
  2067  00030A  5014               	movf	_data+7,w,c
  2068  00030C  C013  F04A         	movff	_data+6,??_ComputeStorageData
  2069  000310  6A4B               	clrf	(??_ComputeStorageData+1)& (0+255),c
  2070  000312  C04A  F04B         	movff	??_ComputeStorageData,??_ComputeStorageData+1
  2071  000316  6A4A               	clrf	??_ComputeStorageData,c
  2072  000318  104A               	iorwf	??_ComputeStorageData,w,c
  2073  00031A  6E07               	movwf	_Currentcomp+6,c
  2074  00031C  504B               	movf	??_ComputeStorageData+1,w,c
  2075  00031E  6E08               	movwf	_Currentcomp+7,c
  2076                           
  2077                           ;PDU.c: 102: Currentcomp[4] = ((data[8] << 8) | data[9]);
  2078  000320  5016               	movf	_data+9,w,c
  2079  000322  C015  F04A         	movff	_data+8,??_ComputeStorageData
  2080  000326  6A4B               	clrf	(??_ComputeStorageData+1)& (0+255),c
  2081  000328  C04A  F04B         	movff	??_ComputeStorageData,??_ComputeStorageData+1
  2082  00032C  6A4A               	clrf	??_ComputeStorageData,c
  2083  00032E  104A               	iorwf	??_ComputeStorageData,w,c
  2084  000330  6E09               	movwf	_Currentcomp+8,c
  2085  000332  504B               	movf	??_ComputeStorageData+1,w,c
  2086  000334  6E0A               	movwf	_Currentcomp+9,c
  2087                           
  2088                           ;PDU.c: 103: Currentcomp[5] = ((data[10] << 8) | data[11]);
  2089  000336  5018               	movf	_data+11,w,c
  2090  000338  C017  F04A         	movff	_data+10,??_ComputeStorageData
  2091  00033C  6A4B               	clrf	(??_ComputeStorageData+1)& (0+255),c
  2092  00033E  C04A  F04B         	movff	??_ComputeStorageData,??_ComputeStorageData+1
  2093  000342  6A4A               	clrf	??_ComputeStorageData,c
  2094  000344  104A               	iorwf	??_ComputeStorageData,w,c
  2095  000346  6E0B               	movwf	_Currentcomp+10,c
  2096  000348  504B               	movf	??_ComputeStorageData+1,w,c
  2097  00034A  6E0C               	movwf	_Currentcomp+11,c
  2098  00034C  0012               	return		;funcret
  2099  00034E                     __end_of_ComputeStorageData:
  2100                           	opt stack 0
  2101                           tblptru	equ	0xFF8
  2102                           tblptrh	equ	0xFF7
  2103                           tblptrl	equ	0xFF6
  2104                           tablat	equ	0xFF5
  2105                           intcon	equ	0xFF2
  2106                           intcon2	equ	0xFF1
  2107                           postinc0	equ	0xFEE
  2108                           wreg	equ	0xFE8
  2109                           indf2	equ	0xFDF
  2110                           fsr2h	equ	0xFDA
  2111                           fsr2l	equ	0xFD9
  2112                           status	equ	0xFD8
  2113                           
  2114 ;; *************** function _DATAEE_ReadByte *****************
  2115 ;; Defined at:
  2116 ;;		line 189 in file "mcc_generated_files/memory.c"
  2117 ;; Parameters:    Size  Location     Type
  2118 ;;  bAdd            1    wreg     unsigned char 
  2119 ;; Auto vars:     Size  Location     Type
  2120 ;;  bAdd            1   14[COMRAM] unsigned char 
  2121 ;; Return value:  Size  Location     Type
  2122 ;;                  1    wreg      unsigned char 
  2123 ;; Registers used:
  2124 ;;		wreg, status,2
  2125 ;; Tracked objects:
  2126 ;;		On entry : 0/0
  2127 ;;		On exit  : 0/0
  2128 ;;		Unchanged: 0/0
  2129 ;; Data sizes:     COMRAM   BANK0   BANK1   BANK2   BANK3   BANK4   BANK5
  2130 ;;      Params:         0       0       0       0       0       0       0
  2131 ;;      Locals:         1       0       0       0       0       0       0
  2132 ;;      Temps:          0       0       0       0       0       0       0
  2133 ;;      Totals:         1       0       0       0       0       0       0
  2134 ;;Total ram usage:        1 bytes
  2135 ;; Hardware stack levels used:    1
  2136 ;; Hardware stack levels required when called:    2
  2137 ;; This function calls:
  2138 ;;		Nothing
  2139 ;; This function is called by:
  2140 ;;		_ComputeStorageData
  2141 ;; This function uses a non-reentrant model
  2142 ;;
  2143                           
  2144                           	psect	text17
  2145  0007A2                     __ptext17:
  2146                           	opt stack 0
  2147  0007A2                     _DATAEE_ReadByte:
  2148                           	opt stack 26
  2149                           
  2150                           ;incstack = 0
  2151                           ;DATAEE_ReadByte@bAdd stored from wreg
  2152  0007A2  6E49               	movwf	DATAEE_ReadByte@bAdd,c
  2153                           
  2154                           ;memory.c: 191: EEADR = (bAdd & 0xFF);
  2155  0007A4  C049  FFA9         	movff	DATAEE_ReadByte@bAdd,4009	;volatile
  2156                           
  2157                           ;memory.c: 192: EECON1bits.CFGS = 0;
  2158  0007A8  9CA6               	bcf	4006,6,c	;volatile
  2159                           
  2160                           ;memory.c: 193: EECON1bits.EEPGD = 0;
  2161  0007AA  9EA6               	bcf	4006,7,c	;volatile
  2162                           
  2163                           ;memory.c: 194: EECON1bits.RD = 1;
  2164  0007AC  80A6               	bsf	4006,0,c	;volatile
  2165                           
  2166                           ;memory.c: 195: __nop();
  2167  0007AE  F000               	nop	
  2168                           
  2169                           ;memory.c: 196: __nop();
  2170  0007B0  F000               	nop	
  2171                           
  2172                           ;memory.c: 198: return (EEDATA);
  2173  0007B2  50A8               	movf	4008,w,c	;volatile
  2174  0007B4  0012               	return	
  2175  0007B6                     __end_of_DATAEE_ReadByte:
  2176                           	opt stack 0
  2177                           tblptru	equ	0xFF8
  2178                           tblptrh	equ	0xFF7
  2179                           tblptrl	equ	0xFF6
  2180                           tablat	equ	0xFF5
  2181                           intcon	equ	0xFF2
  2182                           intcon2	equ	0xFF1
  2183                           postinc0	equ	0xFEE
  2184                           wreg	equ	0xFE8
  2185                           indf2	equ	0xFDF
  2186                           fsr2h	equ	0xFDA
  2187                           fsr2l	equ	0xFD9
  2188                           status	equ	0xFD8
  2189                           
  2190 ;; *************** function _CoolingStart *****************
  2191 ;; Defined at:
  2192 ;;		line 19 in file "CoolingControl.c"
  2193 ;; Parameters:    Size  Location     Type
  2194 ;;		None
  2195 ;; Auto vars:     Size  Location     Type
  2196 ;;		None
  2197 ;; Return value:  Size  Location     Type
  2198 ;;		None               void
  2199 ;; Registers used:
  2200 ;;		wreg, status,2, status,0, cstack
  2201 ;; Tracked objects:
  2202 ;;		On entry : 0/0
  2203 ;;		On exit  : 0/0
  2204 ;;		Unchanged: 0/0
  2205 ;; Data sizes:     COMRAM   BANK0   BANK1   BANK2   BANK3   BANK4   BANK5
  2206 ;;      Params:         0       0       0       0       0       0       0
  2207 ;;      Locals:         0       0       0       0       0       0       0
  2208 ;;      Temps:          0       0       0       0       0       0       0
  2209 ;;      Totals:         0       0       0       0       0       0       0
  2210 ;;Total ram usage:        0 bytes
  2211 ;; Hardware stack levels used:    1
  2212 ;; Hardware stack levels required when called:    4
  2213 ;; This function calls:
  2214 ;;		_PWM4_LoadDutyValue
  2215 ;;		_PotClear
  2216 ;;		_PotSetpoint
  2217 ;; This function is called by:
  2218 ;;		_main
  2219 ;; This function uses a non-reentrant model
  2220 ;;
  2221                           
  2222                           	psect	text18
  2223  000722                     __ptext18:
  2224                           	opt stack 0
  2225  000722                     _CoolingStart:
  2226                           	opt stack 26
  2227                           
  2228                           ;CoolingControl.c: 21: PotClear();
  2229                           
  2230                           ;incstack = 0
  2231  000722  ECE7  F000         	call	_PotClear	;wreg free
  2232                           
  2233                           ;CoolingControl.c: 22: PotSetpoint(15);
  2234  000726  0E00               	movlw	0
  2235  000728  6E4F               	movwf	PotSetpoint@new_point+1,c
  2236  00072A  0E0F               	movlw	15
  2237  00072C  6E4E               	movwf	PotSetpoint@new_point,c
  2238  00072E  EC46  F000         	call	_PotSetpoint	;wreg free
  2239                           
  2240                           ;CoolingControl.c: 23: PWM4_LoadDutyValue(700);
  2241  000732  0E02               	movlw	2
  2242  000734  6E4A               	movwf	PWM4_LoadDutyValue@dutyValue+1,c
  2243  000736  0EBC               	movlw	188
  2244  000738  6E49               	movwf	PWM4_LoadDutyValue@dutyValue,c
  2245  00073A  EC44  F003         	call	_PWM4_LoadDutyValue	;wreg free
  2246  00073E  0012               	return		;funcret
  2247  000740                     __end_of_CoolingStart:
  2248                           	opt stack 0
  2249                           tblptru	equ	0xFF8
  2250                           tblptrh	equ	0xFF7
  2251                           tblptrl	equ	0xFF6
  2252                           tablat	equ	0xFF5
  2253                           intcon	equ	0xFF2
  2254                           intcon2	equ	0xFF1
  2255                           postinc0	equ	0xFEE
  2256                           wreg	equ	0xFE8
  2257                           indf2	equ	0xFDF
  2258                           fsr2h	equ	0xFDA
  2259                           fsr2l	equ	0xFD9
  2260                           status	equ	0xFD8
  2261                           
  2262 ;; *************** function _PotSetpoint *****************
  2263 ;; Defined at:
  2264 ;;		line 21 in file "DigiPot.c"
  2265 ;; Parameters:    Size  Location     Type
  2266 ;;  new_point       2   19[COMRAM] int 
  2267 ;; Auto vars:     Size  Location     Type
  2268 ;;  new_pos         2   10[BANK0 ] int 
  2269 ;;  x               2    8[BANK0 ] int 
  2270 ;;  set_point       2    6[BANK0 ] int 
  2271 ;; Return value:  Size  Location     Type
  2272 ;;		None               void
  2273 ;; Registers used:
  2274 ;;		wreg, status,2, status,0, cstack
  2275 ;; Tracked objects:
  2276 ;;		On entry : 0/0
  2277 ;;		On exit  : 0/0
  2278 ;;		Unchanged: 0/0
  2279 ;; Data sizes:     COMRAM   BANK0   BANK1   BANK2   BANK3   BANK4   BANK5
  2280 ;;      Params:         2       0       0       0       0       0       0
  2281 ;;      Locals:         0       6       0       0       0       0       0
  2282 ;;      Temps:          0       2       0       0       0       0       0
  2283 ;;      Totals:         2       8       0       0       0       0       0
  2284 ;;Total ram usage:       10 bytes
  2285 ;; Hardware stack levels used:    1
  2286 ;; Hardware stack levels required when called:    3
  2287 ;; This function calls:
  2288 ;;		_Delay
  2289 ;; This function is called by:
  2290 ;;		_CoolingStart
  2291 ;; This function uses a non-reentrant model
  2292 ;;
  2293                           
  2294                           	psect	text19
  2295  00008C                     __ptext19:
  2296                           	opt stack 0
  2297  00008C                     _PotSetpoint:
  2298                           	opt stack 26
  2299                           
  2300                           ;DigiPot.c: 22: int set_point;
  2301                           ;DigiPot.c: 24: if (new_point > 32) {
  2302                           
  2303                           ;incstack = 0
  2304  00008C  BE4F               	btfsc	PotSetpoint@new_point+1,7,c
  2305  00008E  D00A               	goto	l3116
  2306  000090  504F               	movf	PotSetpoint@new_point+1,w,c
  2307  000092  E104               	bnz	u1700
  2308  000094  0E21               	movlw	33
  2309  000096  5C4E               	subwf	PotSetpoint@new_point,w,c
  2310  000098  A0D8               	btfss	status,0,c
  2311  00009A  D004               	goto	l3116
  2312  00009C                     u1700:
  2313                           
  2314                           ;DigiPot.c: 25: new_point = 32;
  2315  00009C  0E00               	movlw	0
  2316  00009E  6E4F               	movwf	PotSetpoint@new_point+1,c
  2317  0000A0  0E20               	movlw	32
  2318  0000A2  6E4E               	movwf	PotSetpoint@new_point,c
  2319  0000A4                     l3116:
  2320                           
  2321                           ;DigiPot.c: 26: }
  2322                           ;DigiPot.c: 27: if (new_point <= 0) {
  2323  0000A4  BE4F               	btfsc	PotSetpoint@new_point+1,7,c
  2324  0000A6  D005               	goto	l3118
  2325  0000A8  504F               	movf	PotSetpoint@new_point+1,w,c
  2326  0000AA  E107               	bnz	l3120
  2327  0000AC  044E               	decf	PotSetpoint@new_point,w,c
  2328  0000AE  B0D8               	btfsc	status,0,c
  2329  0000B0  D004               	goto	l3120
  2330  0000B2                     l3118:
  2331                           
  2332                           ;DigiPot.c: 28: new_point = 0;
  2333  0000B2  0E00               	movlw	0
  2334  0000B4  6E4F               	movwf	PotSetpoint@new_point+1,c
  2335  0000B6  0E00               	movlw	0
  2336  0000B8  6E4E               	movwf	PotSetpoint@new_point,c
  2337  0000BA                     l3120:
  2338                           
  2339                           ;DigiPot.c: 29: }
  2340                           ;DigiPot.c: 31: int new_pos = new_point;
  2341  0000BA  C04E  F0D3         	movff	PotSetpoint@new_point,PotSetpoint@new_pos
  2342  0000BE  C04F  F0D4         	movff	PotSetpoint@new_point+1,PotSetpoint@new_pos+1
  2343                           
  2344                           ;DigiPot.c: 35: LATB5 = 0;
  2345  0000C2  9A8A               	bcf	3978,5,c	;volatile
  2346                           
  2347                           ;DigiPot.c: 38: if (new_pos > prev_pos) {
  2348  0000C4  0100               	movlb	0	; () banked
  2349  0000C6  51D3               	movf	PotSetpoint@new_pos& (0+255),w,b
  2350  0000C8  5C23               	subwf	_prev_pos,w,c
  2351  0000CA  5024               	movf	_prev_pos+1,w,c
  2352  0000CC  0A80               	xorlw	128
  2353  0000CE  0100               	movlb	0	; () banked
  2354  0000D0  6FCD               	movwf	??_PotSetpoint& (0+255),b
  2355  0000D2  0100               	movlb	0	; () banked
  2356  0000D4  51D4               	movf	(PotSetpoint@new_pos+1)& (0+255),w,b
  2357  0000D6  0A80               	xorlw	128
  2358  0000D8  0100               	movlb	0	; () banked
  2359  0000DA  59CD               	subwfb	??_PotSetpoint& (0+255),w,b
  2360  0000DC  B0D8               	btfsc	status,0,c
  2361  0000DE  D016               	goto	l362
  2362                           
  2363                           ; BSR set to: 0
  2364                           ;DigiPot.c: 40: LATB3 = 1;
  2365  0000E0  868A               	bsf	3978,3,c	;volatile
  2366                           
  2367                           ; BSR set to: 0
  2368                           ;DigiPot.c: 41: set_point = new_pos - prev_pos;
  2369  0000E2  C023  F0CD         	movff	_prev_pos,??_PotSetpoint
  2370  0000E6  C024  F0CE         	movff	_prev_pos+1,??_PotSetpoint+1
  2371  0000EA  0100               	movlb	0	; () banked
  2372  0000EC  1FCD               	comf	??_PotSetpoint& (0+255),f,b
  2373  0000EE  1FCE               	comf	(??_PotSetpoint+1)& (0+255),f,b
  2374  0000F0  4BCD               	infsnz	??_PotSetpoint& (0+255),f,b
  2375  0000F2  2BCE               	incf	(??_PotSetpoint+1)& (0+255),f,b
  2376  0000F4  0100               	movlb	0	; () banked
  2377  0000F6  51D3               	movf	PotSetpoint@new_pos& (0+255),w,b
  2378  0000F8  0100               	movlb	0	; () banked
  2379  0000FA  25CD               	addwf	??_PotSetpoint& (0+255),w,b
  2380  0000FC  0100               	movlb	0	; () banked
  2381  0000FE  6FCF               	movwf	PotSetpoint@set_point& (0+255),b
  2382  000100  0100               	movlb	0	; () banked
  2383  000102  51D4               	movf	(PotSetpoint@new_pos+1)& (0+255),w,b
  2384  000104  0100               	movlb	0	; () banked
  2385  000106  21CE               	addwfc	(??_PotSetpoint+1)& (0+255),w,b
  2386  000108  0100               	movlb	0	; () banked
  2387  00010A  6FD0               	movwf	(PotSetpoint@set_point+1)& (0+255),b
  2388  00010C                     l362:
  2389                           
  2390                           ; BSR set to: 0
  2391                           ;DigiPot.c: 42: }
  2392                           ;DigiPot.c: 43: if (new_pos < prev_pos) {
  2393  00010C  5023               	movf	_prev_pos,w,c
  2394  00010E  0100               	movlb	0	; () banked
  2395  000110  5DD3               	subwf	PotSetpoint@new_pos& (0+255),w,b
  2396  000112  0100               	movlb	0	; () banked
  2397  000114  51D4               	movf	(PotSetpoint@new_pos+1)& (0+255),w,b
  2398  000116  0A80               	xorlw	128
  2399  000118  0100               	movlb	0	; () banked
  2400  00011A  6FCD               	movwf	??_PotSetpoint& (0+255),b
  2401  00011C  5024               	movf	_prev_pos+1,w,c
  2402  00011E  0A80               	xorlw	128
  2403  000120  0100               	movlb	0	; () banked
  2404  000122  59CD               	subwfb	??_PotSetpoint& (0+255),w,b
  2405  000124  B0D8               	btfsc	status,0,c
  2406  000126  D014               	goto	l3134
  2407                           
  2408                           ; BSR set to: 0
  2409                           ;DigiPot.c: 45: LATB3 = 0;
  2410  000128  968A               	bcf	3978,3,c	;volatile
  2411                           
  2412                           ; BSR set to: 0
  2413                           ;DigiPot.c: 46: set_point = prev_pos - new_pos;
  2414  00012A  C0D3  F0CD         	movff	PotSetpoint@new_pos,??_PotSetpoint
  2415  00012E  C0D4  F0CE         	movff	PotSetpoint@new_pos+1,??_PotSetpoint+1
  2416  000132  0100               	movlb	0	; () banked
  2417  000134  1FCD               	comf	??_PotSetpoint& (0+255),f,b
  2418  000136  1FCE               	comf	(??_PotSetpoint+1)& (0+255),f,b
  2419  000138  4BCD               	infsnz	??_PotSetpoint& (0+255),f,b
  2420  00013A  2BCE               	incf	(??_PotSetpoint+1)& (0+255),f,b
  2421  00013C  5023               	movf	_prev_pos,w,c
  2422  00013E  0100               	movlb	0	; () banked
  2423  000140  25CD               	addwf	??_PotSetpoint& (0+255),w,b
  2424  000142  0100               	movlb	0	; () banked
  2425  000144  6FCF               	movwf	PotSetpoint@set_point& (0+255),b
  2426  000146  5024               	movf	_prev_pos+1,w,c
  2427  000148  0100               	movlb	0	; () banked
  2428  00014A  21CE               	addwfc	(??_PotSetpoint+1)& (0+255),w,b
  2429  00014C  0100               	movlb	0	; () banked
  2430  00014E  6FD0               	movwf	(PotSetpoint@set_point+1)& (0+255),b
  2431  000150                     l3134:
  2432                           
  2433                           ; BSR set to: 0
  2434                           ;DigiPot.c: 47: }
  2435                           ;DigiPot.c: 48: Delay(1);
  2436  000150  0E01               	movlw	1
  2437  000152  6E49               	movwf	Delay@wait,c
  2438  000154  0E00               	movlw	0
  2439  000156  6E4A               	movwf	Delay@wait+1,c
  2440  000158  0E00               	movlw	0
  2441  00015A  6E4B               	movwf	Delay@wait+2,c
  2442  00015C  0E00               	movlw	0
  2443  00015E  6E4C               	movwf	Delay@wait+3,c
  2444  000160  ECCB  F002         	call	_Delay	;wreg free
  2445                           
  2446                           ;DigiPot.c: 50: int x;
  2447                           ;DigiPot.c: 52: for (x = 0; x < set_point; x++) {
  2448  000164  0E00               	movlw	0
  2449  000166  0100               	movlb	0	; () banked
  2450  000168  6FD2               	movwf	(PotSetpoint@x+1)& (0+255),b
  2451  00016A  0E00               	movlw	0
  2452  00016C  6FD1               	movwf	PotSetpoint@x& (0+255),b
  2453  00016E  D019               	goto	l3144
  2454  000170                     l365:
  2455                           
  2456                           ; BSR set to: 0
  2457                           ;DigiPot.c: 53: LATB4 = 1;
  2458  000170  888A               	bsf	3978,4,c	;volatile
  2459                           
  2460                           ; BSR set to: 0
  2461                           ;DigiPot.c: 54: Delay(1);
  2462  000172  0E01               	movlw	1
  2463  000174  6E49               	movwf	Delay@wait,c
  2464  000176  0E00               	movlw	0
  2465  000178  6E4A               	movwf	Delay@wait+1,c
  2466  00017A  0E00               	movlw	0
  2467  00017C  6E4B               	movwf	Delay@wait+2,c
  2468  00017E  0E00               	movlw	0
  2469  000180  6E4C               	movwf	Delay@wait+3,c
  2470  000182  ECCB  F002         	call	_Delay	;wreg free
  2471                           
  2472                           ;DigiPot.c: 55: LATB4 = 0;
  2473  000186  988A               	bcf	3978,4,c	;volatile
  2474                           
  2475                           ;DigiPot.c: 56: Delay(1);
  2476  000188  0E01               	movlw	1
  2477  00018A  6E49               	movwf	Delay@wait,c
  2478  00018C  0E00               	movlw	0
  2479  00018E  6E4A               	movwf	Delay@wait+1,c
  2480  000190  0E00               	movlw	0
  2481  000192  6E4B               	movwf	Delay@wait+2,c
  2482  000194  0E00               	movlw	0
  2483  000196  6E4C               	movwf	Delay@wait+3,c
  2484  000198  ECCB  F002         	call	_Delay	;wreg free
  2485  00019C  0100               	movlb	0	; () banked
  2486  00019E  4BD1               	infsnz	PotSetpoint@x& (0+255),f,b
  2487  0001A0  2BD2               	incf	(PotSetpoint@x+1)& (0+255),f,b
  2488  0001A2                     l3144:
  2489                           
  2490                           ; BSR set to: 0
  2491  0001A2  0100               	movlb	0	; () banked
  2492  0001A4  51CF               	movf	PotSetpoint@set_point& (0+255),w,b
  2493  0001A6  0100               	movlb	0	; () banked
  2494  0001A8  5DD1               	subwf	PotSetpoint@x& (0+255),w,b
  2495  0001AA  0100               	movlb	0	; () banked
  2496  0001AC  51D2               	movf	(PotSetpoint@x+1)& (0+255),w,b
  2497  0001AE  0A80               	xorlw	128
  2498  0001B0  0100               	movlb	0	; () banked
  2499  0001B2  6FCD               	movwf	??_PotSetpoint& (0+255),b
  2500  0001B4  0100               	movlb	0	; () banked
  2501  0001B6  51D0               	movf	(PotSetpoint@set_point+1)& (0+255),w,b
  2502  0001B8  0A80               	xorlw	128
  2503  0001BA  0100               	movlb	0	; () banked
  2504  0001BC  59CD               	subwfb	??_PotSetpoint& (0+255),w,b
  2505  0001BE  A0D8               	btfss	status,0,c
  2506  0001C0  D7D7               	goto	l365
  2507                           
  2508                           ; BSR set to: 0
  2509                           ;DigiPot.c: 57: }
  2510                           ;DigiPot.c: 59: LATB5 = 1;
  2511  0001C2  8A8A               	bsf	3978,5,c	;volatile
  2512                           
  2513                           ;DigiPot.c: 60: prev_pos = new_pos;
  2514  0001C4  C0D3  F023         	movff	PotSetpoint@new_pos,_prev_pos
  2515  0001C8  C0D4  F024         	movff	PotSetpoint@new_pos+1,_prev_pos+1
  2516                           
  2517                           ; BSR set to: 0
  2518  0001CC  0012               	return		;funcret
  2519  0001CE                     __end_of_PotSetpoint:
  2520                           	opt stack 0
  2521                           tblptru	equ	0xFF8
  2522                           tblptrh	equ	0xFF7
  2523                           tblptrl	equ	0xFF6
  2524                           tablat	equ	0xFF5
  2525                           intcon	equ	0xFF2
  2526                           intcon2	equ	0xFF1
  2527                           postinc0	equ	0xFEE
  2528                           wreg	equ	0xFE8
  2529                           indf2	equ	0xFDF
  2530                           fsr2h	equ	0xFDA
  2531                           fsr2l	equ	0xFD9
  2532                           status	equ	0xFD8
  2533                           
  2534 ;; *************** function _PotClear *****************
  2535 ;; Defined at:
  2536 ;;		line 66 in file "DigiPot.c"
  2537 ;; Parameters:    Size  Location     Type
  2538 ;;		None
  2539 ;; Auto vars:     Size  Location     Type
  2540 ;;  x               2   19[COMRAM] int 
  2541 ;; Return value:  Size  Location     Type
  2542 ;;		None               void
  2543 ;; Registers used:
  2544 ;;		wreg, status,2, status,0, cstack
  2545 ;; Tracked objects:
  2546 ;;		On entry : 0/0
  2547 ;;		On exit  : 0/0
  2548 ;;		Unchanged: 0/0
  2549 ;; Data sizes:     COMRAM   BANK0   BANK1   BANK2   BANK3   BANK4   BANK5
  2550 ;;      Params:         0       0       0       0       0       0       0
  2551 ;;      Locals:         2       0       0       0       0       0       0
  2552 ;;      Temps:          0       0       0       0       0       0       0
  2553 ;;      Totals:         2       0       0       0       0       0       0
  2554 ;;Total ram usage:        2 bytes
  2555 ;; Hardware stack levels used:    1
  2556 ;; Hardware stack levels required when called:    3
  2557 ;; This function calls:
  2558 ;;		_Delay
  2559 ;; This function is called by:
  2560 ;;		_CoolingStart
  2561 ;; This function uses a non-reentrant model
  2562 ;;
  2563                           
  2564                           	psect	text20
  2565  0001CE                     __ptext20:
  2566                           	opt stack 0
  2567  0001CE                     _PotClear:
  2568                           	opt stack 26
  2569                           
  2570                           ;DigiPot.c: 67: Delay(1);
  2571                           
  2572                           ; BSR set to: 0
  2573                           ;incstack = 0
  2574  0001CE  0E01               	movlw	1
  2575  0001D0  6E49               	movwf	Delay@wait,c
  2576  0001D2  0E00               	movlw	0
  2577  0001D4  6E4A               	movwf	Delay@wait+1,c
  2578  0001D6  0E00               	movlw	0
  2579  0001D8  6E4B               	movwf	Delay@wait+2,c
  2580  0001DA  0E00               	movlw	0
  2581  0001DC  6E4C               	movwf	Delay@wait+3,c
  2582  0001DE  ECCB  F002         	call	_Delay	;wreg free
  2583                           
  2584                           ;DigiPot.c: 69: LATB5 = 0;
  2585  0001E2  9A8A               	bcf	3978,5,c	;volatile
  2586                           
  2587                           ;DigiPot.c: 70: Delay(1);
  2588  0001E4  0E01               	movlw	1
  2589  0001E6  6E49               	movwf	Delay@wait,c
  2590  0001E8  0E00               	movlw	0
  2591  0001EA  6E4A               	movwf	Delay@wait+1,c
  2592  0001EC  0E00               	movlw	0
  2593  0001EE  6E4B               	movwf	Delay@wait+2,c
  2594  0001F0  0E00               	movlw	0
  2595  0001F2  6E4C               	movwf	Delay@wait+3,c
  2596  0001F4  ECCB  F002         	call	_Delay	;wreg free
  2597                           
  2598                           ;DigiPot.c: 71: LATB3 = 0;
  2599  0001F8  968A               	bcf	3978,3,c	;volatile
  2600                           
  2601                           ;DigiPot.c: 72: Delay(1);
  2602  0001FA  0E01               	movlw	1
  2603  0001FC  6E49               	movwf	Delay@wait,c
  2604  0001FE  0E00               	movlw	0
  2605  000200  6E4A               	movwf	Delay@wait+1,c
  2606  000202  0E00               	movlw	0
  2607  000204  6E4B               	movwf	Delay@wait+2,c
  2608  000206  0E00               	movlw	0
  2609  000208  6E4C               	movwf	Delay@wait+3,c
  2610  00020A  ECCB  F002         	call	_Delay	;wreg free
  2611                           
  2612                           ;DigiPot.c: 73: int x;
  2613                           ;DigiPot.c: 74: for (x = 0; x < 32; x++) {
  2614  00020E  0E00               	movlw	0
  2615  000210  6E4F               	movwf	PotClear@x+1,c
  2616  000212  0E00               	movlw	0
  2617  000214  6E4E               	movwf	PotClear@x,c
  2618  000216  BE4F               	btfsc	PotClear@x+1,7,c
  2619  000218  D006               	goto	l370
  2620  00021A  504F               	movf	PotClear@x+1,w,c
  2621  00021C  E121               	bnz	l371
  2622  00021E  0E20               	movlw	32
  2623  000220  5C4E               	subwf	PotClear@x,w,c
  2624  000222  B0D8               	btfsc	status,0,c
  2625  000224  D01D               	goto	l371
  2626  000226                     l370:
  2627                           
  2628                           ;DigiPot.c: 75: LATB4 = 1;
  2629  000226  888A               	bsf	3978,4,c	;volatile
  2630                           
  2631                           ;DigiPot.c: 76: Delay(1);
  2632  000228  0E01               	movlw	1
  2633  00022A  6E49               	movwf	Delay@wait,c
  2634  00022C  0E00               	movlw	0
  2635  00022E  6E4A               	movwf	Delay@wait+1,c
  2636  000230  0E00               	movlw	0
  2637  000232  6E4B               	movwf	Delay@wait+2,c
  2638  000234  0E00               	movlw	0
  2639  000236  6E4C               	movwf	Delay@wait+3,c
  2640  000238  ECCB  F002         	call	_Delay	;wreg free
  2641                           
  2642                           ;DigiPot.c: 77: LATB4 = 0;
  2643  00023C  988A               	bcf	3978,4,c	;volatile
  2644                           
  2645                           ;DigiPot.c: 78: Delay(1);
  2646  00023E  0E01               	movlw	1
  2647  000240  6E49               	movwf	Delay@wait,c
  2648  000242  0E00               	movlw	0
  2649  000244  6E4A               	movwf	Delay@wait+1,c
  2650  000246  0E00               	movlw	0
  2651  000248  6E4B               	movwf	Delay@wait+2,c
  2652  00024A  0E00               	movlw	0
  2653  00024C  6E4C               	movwf	Delay@wait+3,c
  2654  00024E  ECCB  F002         	call	_Delay	;wreg free
  2655  000252  4A4E               	infsnz	PotClear@x,f,c
  2656  000254  2A4F               	incf	PotClear@x+1,f,c
  2657  000256  BE4F               	btfsc	PotClear@x+1,7,c
  2658  000258  D7E6               	goto	l370
  2659  00025A  504F               	movf	PotClear@x+1,w,c
  2660  00025C  E101               	bnz	u1690
  2661  00025E  D7DF               	goto	L1
  2662  000260                     u1690:
  2663  000260                     l371:
  2664                           
  2665                           ;DigiPot.c: 79: }
  2666                           ;DigiPot.c: 80: LATB4 = 1;
  2667  000260  888A               	bsf	3978,4,c	;volatile
  2668                           
  2669                           ;DigiPot.c: 81: Delay(1);
  2670  000262  0E01               	movlw	1
  2671  000264  6E49               	movwf	Delay@wait,c
  2672  000266  0E00               	movlw	0
  2673  000268  6E4A               	movwf	Delay@wait+1,c
  2674  00026A  0E00               	movlw	0
  2675  00026C  6E4B               	movwf	Delay@wait+2,c
  2676  00026E  0E00               	movlw	0
  2677  000270  6E4C               	movwf	Delay@wait+3,c
  2678  000272  ECCB  F002         	call	_Delay	;wreg free
  2679                           
  2680                           ;DigiPot.c: 83: LATB5 = 1;
  2681  000276  8A8A               	bsf	3978,5,c	;volatile
  2682                           
  2683                           ;DigiPot.c: 84: prev_pos = 0;
  2684  000278  0E00               	movlw	0
  2685  00027A  6E24               	movwf	_prev_pos+1,c
  2686  00027C  0E00               	movlw	0
  2687  00027E  6E23               	movwf	_prev_pos,c
  2688                           
  2689                           ;DigiPot.c: 85: Delay(1);
  2690  000280  0E01               	movlw	1
  2691  000282  6E49               	movwf	Delay@wait,c
  2692  000284  0E00               	movlw	0
  2693  000286  6E4A               	movwf	Delay@wait+1,c
  2694  000288  0E00               	movlw	0
  2695  00028A  6E4B               	movwf	Delay@wait+2,c
  2696  00028C  0E00               	movlw	0
  2697  00028E  6E4C               	movwf	Delay@wait+3,c
  2698  000290  ECCB  F002         	call	_Delay	;wreg free
  2699  000294  0012               	return		;funcret
  2700  000296                     __end_of_PotClear:
  2701                           	opt stack 0
  2702                           tblptru	equ	0xFF8
  2703                           tblptrh	equ	0xFF7
  2704                           tblptrl	equ	0xFF6
  2705                           tablat	equ	0xFF5
  2706                           intcon	equ	0xFF2
  2707                           intcon2	equ	0xFF1
  2708                           postinc0	equ	0xFEE
  2709                           wreg	equ	0xFE8
  2710                           indf2	equ	0xFDF
  2711                           fsr2h	equ	0xFDA
  2712                           fsr2l	equ	0xFD9
  2713                           status	equ	0xFD8
  2714                           
  2715 ;; *************** function _Delay *****************
  2716 ;; Defined at:
  2717 ;;		line 9 in file "Functions.c"
  2718 ;; Parameters:    Size  Location     Type
  2719 ;;  wait            4   14[COMRAM] long 
  2720 ;; Auto vars:     Size  Location     Type
  2721 ;;  i               4    0[BANK0 ] long 
  2722 ;; Return value:  Size  Location     Type
  2723 ;;		None               void
  2724 ;; Registers used:
  2725 ;;		wreg, status,2, status,0
  2726 ;; Tracked objects:
  2727 ;;		On entry : 0/0
  2728 ;;		On exit  : 0/0
  2729 ;;		Unchanged: 0/0
  2730 ;; Data sizes:     COMRAM   BANK0   BANK1   BANK2   BANK3   BANK4   BANK5
  2731 ;;      Params:         4       0       0       0       0       0       0
  2732 ;;      Locals:         0       4       0       0       0       0       0
  2733 ;;      Temps:          1       0       0       0       0       0       0
  2734 ;;      Totals:         5       4       0       0       0       0       0
  2735 ;;Total ram usage:        9 bytes
  2736 ;; Hardware stack levels used:    1
  2737 ;; Hardware stack levels required when called:    2
  2738 ;; This function calls:
  2739 ;;		Nothing
  2740 ;; This function is called by:
  2741 ;;		_main
  2742 ;;		_PotSetpoint
  2743 ;;		_PotClear
  2744 ;;		_StartUp595
  2745 ;;		_writeRegisters
  2746 ;;		_respondECU
  2747 ;; This function uses a non-reentrant model
  2748 ;;
  2749                           
  2750                           	psect	text21
  2751  000596                     __ptext21:
  2752                           	opt stack 0
  2753  000596                     _Delay:
  2754                           	opt stack 25
  2755                           
  2756                           ;Functions.c: 10: long int i = 0;
  2757                           
  2758                           ;incstack = 0
  2759  000596  0E00               	movlw	0
  2760  000598  0100               	movlb	0	; () banked
  2761  00059A  6FC9               	movwf	Delay@i& (0+255),b
  2762  00059C  0E00               	movlw	0
  2763  00059E  6FCA               	movwf	(Delay@i+1)& (0+255),b
  2764  0005A0  0E00               	movlw	0
  2765  0005A2  6FCB               	movwf	(Delay@i+2)& (0+255),b
  2766  0005A4  0E00               	movlw	0
  2767  0005A6  6FCC               	movwf	(Delay@i+3)& (0+255),b
  2768                           
  2769                           ;Functions.c: 11: for (; wait > i; i++) {
  2770  0005A8  D00F               	goto	l3024
  2771  0005AA                     l3020:
  2772                           
  2773                           ; BSR set to: 0
  2774                           ;Functions.c: 12: _delay((unsigned long)((1)*(16000000/4000.0)));
  2775  0005AA  0E06               	movlw	6
  2776  0005AC  6E4D               	movwf	??_Delay& (0+255),c
  2777  0005AE  0E30               	movlw	48
  2778  0005B0                     u1907:
  2779  0005B0  2EE8               	decfsz	wreg,f,c
  2780  0005B2  D7FE               	goto	u1907
  2781  0005B4  2E4D               	decfsz	??_Delay& (0+255),f,c
  2782  0005B6  D7FC               	goto	u1907
  2783  0005B8  D000               	nop2	
  2784  0005BA  0E01               	movlw	1
  2785  0005BC  0100               	movlb	0	; () banked
  2786  0005BE  27C9               	addwf	Delay@i& (0+255),f,b
  2787  0005C0  0E00               	movlw	0
  2788  0005C2  23CA               	addwfc	(Delay@i+1)& (0+255),f,b
  2789  0005C4  23CB               	addwfc	(Delay@i+2)& (0+255),f,b
  2790  0005C6  23CC               	addwfc	(Delay@i+3)& (0+255),f,b
  2791  0005C8                     l3024:
  2792                           
  2793                           ; BSR set to: 0
  2794  0005C8  5049               	movf	Delay@wait,w,c
  2795  0005CA  0100               	movlb	0	; () banked
  2796  0005CC  5DC9               	subwf	Delay@i& (0+255),w,b
  2797  0005CE  504A               	movf	Delay@wait+1,w,c
  2798  0005D0  0100               	movlb	0	; () banked
  2799  0005D2  59CA               	subwfb	(Delay@i+1)& (0+255),w,b
  2800  0005D4  504B               	movf	Delay@wait+2,w,c
  2801  0005D6  0100               	movlb	0	; () banked
  2802  0005D8  59CB               	subwfb	(Delay@i+2)& (0+255),w,b
  2803  0005DA  0100               	movlb	0	; () banked
  2804  0005DC  51CC               	movf	(Delay@i+3)& (0+255),w,b
  2805  0005DE  0A80               	xorlw	128
  2806  0005E0  6E4D               	movwf	??_Delay& (0+255),c
  2807  0005E2  504C               	movf	Delay@wait+3,w,c
  2808  0005E4  0A80               	xorlw	128
  2809  0005E6  584D               	subwfb	??_Delay& (0+255),w,c
  2810  0005E8  B0D8               	btfsc	status,0,c
  2811  0005EA  0012               	return	
  2812  0005EC  D7DE               	goto	l3020
  2813  0005EE                     __end_of_Delay:
  2814                           	opt stack 0
  2815                           tblptru	equ	0xFF8
  2816                           tblptrh	equ	0xFF7
  2817                           tblptrl	equ	0xFF6
  2818                           tablat	equ	0xFF5
  2819                           intcon	equ	0xFF2
  2820                           intcon2	equ	0xFF1
  2821                           postinc0	equ	0xFEE
  2822                           wreg	equ	0xFE8
  2823                           indf2	equ	0xFDF
  2824                           fsr2h	equ	0xFDA
  2825                           fsr2l	equ	0xFD9
  2826                           status	equ	0xFD8
  2827                           
  2828 ;; *************** function _PWM4_LoadDutyValue *****************
  2829 ;; Defined at:
  2830 ;;		line 81 in file "mcc_generated_files/pwm4.c"
  2831 ;; Parameters:    Size  Location     Type
  2832 ;;  dutyValue       2   14[COMRAM] unsigned int 
  2833 ;; Auto vars:     Size  Location     Type
  2834 ;;		None
  2835 ;; Return value:  Size  Location     Type
  2836 ;;		None               void
  2837 ;; Registers used:
  2838 ;;		wreg, status,2, status,0
  2839 ;; Tracked objects:
  2840 ;;		On entry : 0/0
  2841 ;;		On exit  : 0/0
  2842 ;;		Unchanged: 0/0
  2843 ;; Data sizes:     COMRAM   BANK0   BANK1   BANK2   BANK3   BANK4   BANK5
  2844 ;;      Params:         2       0       0       0       0       0       0
  2845 ;;      Locals:         0       0       0       0       0       0       0
  2846 ;;      Temps:          2       0       0       0       0       0       0
  2847 ;;      Totals:         4       0       0       0       0       0       0
  2848 ;;Total ram usage:        4 bytes
  2849 ;; Hardware stack levels used:    1
  2850 ;; Hardware stack levels required when called:    2
  2851 ;; This function calls:
  2852 ;;		Nothing
  2853 ;; This function is called by:
  2854 ;;		_CoolingStart
  2855 ;; This function uses a non-reentrant model
  2856 ;;
  2857                           
  2858                           	psect	text22
  2859  000688                     __ptext22:
  2860                           	opt stack 0
  2861  000688                     _PWM4_LoadDutyValue:
  2862                           	opt stack 27
  2863                           
  2864                           ;pwm4.c: 84: CCPR4L = ((dutyValue & 0x03FC)>>2);
  2865                           
  2866                           ; BSR set to: 0
  2867                           ;incstack = 0
  2868  000688  C049  F04B         	movff	PWM4_LoadDutyValue@dutyValue,??_PWM4_LoadDutyValue
  2869  00068C  C04A  F04C         	movff	PWM4_LoadDutyValue@dutyValue+1,??_PWM4_LoadDutyValue+1
  2870  000690  90D8               	bcf	status,0,c
  2871  000692  324C               	rrcf	??_PWM4_LoadDutyValue+1,f,c
  2872  000694  324B               	rrcf	??_PWM4_LoadDutyValue,f,c
  2873  000696  90D8               	bcf	status,0,c
  2874  000698  324C               	rrcf	??_PWM4_LoadDutyValue+1,f,c
  2875  00069A  324B               	rrcf	??_PWM4_LoadDutyValue,f,c
  2876  00069C  504B               	movf	??_PWM4_LoadDutyValue,w,c
  2877  00069E  010F               	movlb	15	; () banked
  2878  0006A0  6F58               	movwf	88,b	;volatile
  2879                           
  2880                           ;pwm4.c: 87: CCP4CON = (CCP4CON & 0xCF) | ((dutyValue & 0x0003)<<4);
  2881  0006A2  C049  F04B         	movff	PWM4_LoadDutyValue@dutyValue,??_PWM4_LoadDutyValue
  2882  0006A6  0E03               	movlw	3
  2883  0006A8  164B               	andwf	??_PWM4_LoadDutyValue,f,c
  2884  0006AA  3A4B               	swapf	??_PWM4_LoadDutyValue,f,c
  2885  0006AC  0EF0               	movlw	240
  2886  0006AE  164B               	andwf	??_PWM4_LoadDutyValue,f,c
  2887  0006B0  010F               	movlb	15	; () banked
  2888  0006B2  5157               	movf	87,w,b	;volatile
  2889  0006B4  0BCF               	andlw	207
  2890  0006B6  104B               	iorwf	??_PWM4_LoadDutyValue,w,c
  2891  0006B8  010F               	movlb	15	; () banked
  2892  0006BA  6F57               	movwf	87,b	;volatile
  2893                           
  2894                           ; BSR set to: 15
  2895  0006BC  0012               	return		;funcret
  2896  0006BE                     __end_of_PWM4_LoadDutyValue:
  2897                           	opt stack 0
  2898                           tblptru	equ	0xFF8
  2899                           tblptrh	equ	0xFF7
  2900                           tblptrl	equ	0xFF6
  2901                           tablat	equ	0xFF5
  2902                           intcon	equ	0xFF2
  2903                           intcon2	equ	0xFF1
  2904                           postinc0	equ	0xFEE
  2905                           wreg	equ	0xFE8
  2906                           indf2	equ	0xFDF
  2907                           fsr2h	equ	0xFDA
  2908                           fsr2l	equ	0xFD9
  2909                           status	equ	0xFD8
  2910                           
  2911 ;; *************** function _INTERRUPT_InterruptManager *****************
  2912 ;; Defined at:
  2913 ;;		line 63 in file "mcc_generated_files/interrupt_manager.c"
  2914 ;; Parameters:    Size  Location     Type
  2915 ;;		None
  2916 ;; Auto vars:     Size  Location     Type
  2917 ;;		None
  2918 ;; Return value:  Size  Location     Type
  2919 ;;		None               void
  2920 ;; Registers used:
  2921 ;;		cstack
  2922 ;; Tracked objects:
  2923 ;;		On entry : 0/0
  2924 ;;		On exit  : 0/0
  2925 ;;		Unchanged: 0/0
  2926 ;; Data sizes:     COMRAM   BANK0   BANK1   BANK2   BANK3   BANK4   BANK5
  2927 ;;      Params:         0       0       0       0       0       0       0
  2928 ;;      Locals:         0       0       0       0       0       0       0
  2929 ;;      Temps:         14       0       0       0       0       0       0
  2930 ;;      Totals:        14       0       0       0       0       0       0
  2931 ;;Total ram usage:       14 bytes
  2932 ;; Hardware stack levels used:    1
  2933 ;; Hardware stack levels required when called:    1
  2934 ;; This function calls:
  2935 ;;		_ADC_ISR
  2936 ;; This function is called by:
  2937 ;;		Interrupt level 2
  2938 ;; This function uses a non-reentrant model
  2939 ;;
  2940                           
  2941                           	psect	intcode
  2942  000008                     __pintcode:
  2943                           	opt stack 0
  2944  000008                     _INTERRUPT_InterruptManager:
  2945                           	opt stack 24
  2946                           
  2947                           ; BSR set to: 15
  2948                           ;incstack = 0
  2949  000008  8251               	bsf	btemp,1,c	;set compiler interrupt flag (level 2)
  2950  00000A  CFFA F03B          	movff	pclath,??_INTERRUPT_InterruptManager
  2951  00000E  CFFB F03C          	movff	pclatu,??_INTERRUPT_InterruptManager+1
  2952  000012  CFE9 F03D          	movff	fsr0l,??_INTERRUPT_InterruptManager+2
  2953  000016  CFEA F03E          	movff	fsr0h,??_INTERRUPT_InterruptManager+3
  2954  00001A  CFE1 F03F          	movff	fsr1l,??_INTERRUPT_InterruptManager+4
  2955  00001E  CFE2 F040          	movff	fsr1h,??_INTERRUPT_InterruptManager+5
  2956  000022  CFD9 F041          	movff	fsr2l,??_INTERRUPT_InterruptManager+6
  2957  000026  CFDA F042          	movff	fsr2h,??_INTERRUPT_InterruptManager+7
  2958  00002A  CFF3 F043          	movff	prodl,??_INTERRUPT_InterruptManager+8
  2959  00002E  CFF4 F044          	movff	prodh,??_INTERRUPT_InterruptManager+9
  2960  000032  CFF6 F045          	movff	tblptrl,??_INTERRUPT_InterruptManager+10
  2961  000036  CFF7 F046          	movff	tblptrh,??_INTERRUPT_InterruptManager+11
  2962  00003A  CFF8 F047          	movff	tblptru,??_INTERRUPT_InterruptManager+12
  2963  00003E  CFF5 F048          	movff	tablat,??_INTERRUPT_InterruptManager+13
  2964                           
  2965                           ;interrupt_manager.c: 66: if(PIE1bits.ADIE == 1 && PIR1bits.ADIF == 1)
  2966  000042  BC9D               	btfsc	3997,6,c	;volatile
  2967  000044  AC9E               	btfss	3998,6,c	;volatile
  2968  000046  D002               	goto	i2l216
  2969                           
  2970                           ;interrupt_manager.c: 67: {
  2971                           ;interrupt_manager.c: 68: ADC_ISR();
  2972  000048  ECEA  F003         	call	_ADC_ISR	;wreg free
  2973  00004C                     i2l216:
  2974  00004C  C048  FFF5         	movff	??_INTERRUPT_InterruptManager+13,tablat
  2975  000050  C047  FFF8         	movff	??_INTERRUPT_InterruptManager+12,tblptru
  2976  000054  C046  FFF7         	movff	??_INTERRUPT_InterruptManager+11,tblptrh
  2977  000058  C045  FFF6         	movff	??_INTERRUPT_InterruptManager+10,tblptrl
  2978  00005C  C044  FFF4         	movff	??_INTERRUPT_InterruptManager+9,prodh
  2979  000060  C043  FFF3         	movff	??_INTERRUPT_InterruptManager+8,prodl
  2980  000064  C042  FFDA         	movff	??_INTERRUPT_InterruptManager+7,fsr2h
  2981  000068  C041  FFD9         	movff	??_INTERRUPT_InterruptManager+6,fsr2l
  2982  00006C  C040  FFE2         	movff	??_INTERRUPT_InterruptManager+5,fsr1h
  2983  000070  C03F  FFE1         	movff	??_INTERRUPT_InterruptManager+4,fsr1l
  2984  000074  C03E  FFEA         	movff	??_INTERRUPT_InterruptManager+3,fsr0h
  2985  000078  C03D  FFE9         	movff	??_INTERRUPT_InterruptManager+2,fsr0l
  2986  00007C  C03C  FFFB         	movff	??_INTERRUPT_InterruptManager+1,pclatu
  2987  000080  C03B  FFFA         	movff	??_INTERRUPT_InterruptManager,pclath
  2988  000084  9251               	bcf	btemp,1,c	;clear compiler interrupt flag (level 2)
  2989  000086  0011               	retfie		f
  2990  000088                     __end_of_INTERRUPT_InterruptManager:
  2991                           	opt stack 0
  2992                           pclatu	equ	0xFFB
  2993                           pclath	equ	0xFFA
  2994                           tblptru	equ	0xFF8
  2995                           tblptrh	equ	0xFF7
  2996                           tblptrl	equ	0xFF6
  2997                           tablat	equ	0xFF5
  2998                           prodh	equ	0xFF4
  2999                           prodl	equ	0xFF3
  3000                           intcon	equ	0xFF2
  3001                           intcon2	equ	0xFF1
  3002                           postinc0	equ	0xFEE
  3003                           fsr0h	equ	0xFEA
  3004                           fsr0l	equ	0xFE9
  3005                           wreg	equ	0xFE8
  3006                           fsr1h	equ	0xFE2
  3007                           fsr1l	equ	0xFE1
  3008                           indf2	equ	0xFDF
  3009                           fsr2h	equ	0xFDA
  3010                           fsr2l	equ	0xFD9
  3011                           status	equ	0xFD8
  3012                           
  3013 ;; *************** function _ADC_ISR *****************
  3014 ;; Defined at:
  3015 ;;		line 128 in file "mcc_generated_files/adc.c"
  3016 ;; Parameters:    Size  Location     Type
  3017 ;;		None
  3018 ;; Auto vars:     Size  Location     Type
  3019 ;;		None
  3020 ;; Return value:  Size  Location     Type
  3021 ;;		None               void
  3022 ;; Registers used:
  3023 ;;		None
  3024 ;; Tracked objects:
  3025 ;;		On entry : 0/0
  3026 ;;		On exit  : 0/0
  3027 ;;		Unchanged: 0/0
  3028 ;; Data sizes:     COMRAM   BANK0   BANK1   BANK2   BANK3   BANK4   BANK5
  3029 ;;      Params:         0       0       0       0       0       0       0
  3030 ;;      Locals:         0       0       0       0       0       0       0
  3031 ;;      Temps:          0       0       0       0       0       0       0
  3032 ;;      Totals:         0       0       0       0       0       0       0
  3033 ;;Total ram usage:        0 bytes
  3034 ;; Hardware stack levels used:    1
  3035 ;; This function calls:
  3036 ;;		Nothing
  3037 ;; This function is called by:
  3038 ;;		_INTERRUPT_InterruptManager
  3039 ;; This function uses a non-reentrant model
  3040 ;;
  3041                           
  3042                           	psect	text24
  3043  0007D4                     __ptext24:
  3044                           	opt stack 0
  3045  0007D4                     _ADC_ISR:
  3046                           	opt stack 24
  3047                           
  3048                           ;adc.c: 131: PIR1bits.ADIF = 0;
  3049                           
  3050                           ;incstack = 0
  3051  0007D4  9C9E               	bcf	3998,6,c	;volatile
  3052  0007D6  0012               	return		;funcret
  3053  0007D8                     __end_of_ADC_ISR:
  3054                           	opt stack 0
  3055  0000                     pclatu	equ	0xFFB
  3056                           pclath	equ	0xFFA
  3057                           tblptru	equ	0xFF8
  3058                           tblptrh	equ	0xFF7
  3059                           tblptrl	equ	0xFF6
  3060                           tablat	equ	0xFF5
  3061                           prodh	equ	0xFF4
  3062                           prodl	equ	0xFF3
  3063                           intcon	equ	0xFF2
  3064                           intcon2	equ	0xFF1
  3065                           postinc0	equ	0xFEE
  3066                           fsr0h	equ	0xFEA
  3067                           fsr0l	equ	0xFE9
  3068                           wreg	equ	0xFE8
  3069                           fsr1h	equ	0xFE2
  3070                           fsr1l	equ	0xFE1
  3071                           indf2	equ	0xFDF
  3072                           fsr2h	equ	0xFDA
  3073                           fsr2l	equ	0xFD9
  3074                           status	equ	0xFD8
  3075                           pclatu	equ	0xFFB
  3076                           pclath	equ	0xFFA
  3077                           tblptru	equ	0xFF8
  3078                           tblptrh	equ	0xFF7
  3079                           tblptrl	equ	0xFF6
  3080                           tablat	equ	0xFF5
  3081                           prodh	equ	0xFF4
  3082                           prodl	equ	0xFF3
  3083                           intcon	equ	0xFF2
  3084                           intcon2	equ	0xFF1
  3085                           postinc0	equ	0xFEE
  3086                           fsr0h	equ	0xFEA
  3087                           fsr0l	equ	0xFE9
  3088                           wreg	equ	0xFE8
  3089                           fsr1h	equ	0xFE2
  3090                           fsr1l	equ	0xFE1
  3091                           indf2	equ	0xFDF
  3092                           fsr2h	equ	0xFDA
  3093                           fsr2l	equ	0xFD9
  3094                           status	equ	0xFD8
  3095                           
  3096                           	psect	rparam
  3097  0000                     pclatu	equ	0xFFB
  3098                           pclath	equ	0xFFA
  3099                           tblptru	equ	0xFF8
  3100                           tblptrh	equ	0xFF7
  3101                           tblptrl	equ	0xFF6
  3102                           tablat	equ	0xFF5
  3103                           prodh	equ	0xFF4
  3104                           prodl	equ	0xFF3
  3105                           intcon	equ	0xFF2
  3106                           intcon2	equ	0xFF1
  3107                           postinc0	equ	0xFEE
  3108                           fsr0h	equ	0xFEA
  3109                           fsr0l	equ	0xFE9
  3110                           wreg	equ	0xFE8
  3111                           fsr1h	equ	0xFE2
  3112                           fsr1l	equ	0xFE1
  3113                           indf2	equ	0xFDF
  3114                           fsr2h	equ	0xFDA
  3115                           fsr2l	equ	0xFD9
  3116                           status	equ	0xFD8
  3117                           
  3118                           	psect	temp
  3119  000051                     btemp:
  3120                           	opt stack 0
  3121  000051                     	ds	1
  3122  0000                     int$flags	set	btemp
  3123                           pclatu	equ	0xFFB
  3124                           pclath	equ	0xFFA
  3125                           tblptru	equ	0xFF8
  3126                           tblptrh	equ	0xFF7
  3127                           tblptrl	equ	0xFF6
  3128                           tablat	equ	0xFF5
  3129                           prodh	equ	0xFF4
  3130                           prodl	equ	0xFF3
  3131                           intcon	equ	0xFF2
  3132                           intcon2	equ	0xFF1
  3133                           postinc0	equ	0xFEE
  3134                           fsr0h	equ	0xFEA
  3135                           fsr0l	equ	0xFE9
  3136                           wreg	equ	0xFE8
  3137                           fsr1h	equ	0xFE2
  3138                           fsr1l	equ	0xFE1
  3139                           indf2	equ	0xFDF
  3140                           fsr2h	equ	0xFDA
  3141                           fsr2l	equ	0xFD9
  3142                           status	equ	0xFD8


Data Sizes:
    Strings     0
    Constant    0
    Data        1
    BSS         981
    Persistent  0
    Stack       0

Auto Spaces:
    Space          Size  Autos    Used
    COMRAM           94     21      80
    BANK0           160     12     117
    BANK1           256      0     206
    BANK2           256      0     206
    BANK3           256      0     206
    BANK4           256      0     200
    BANK5           256      0       0

Pointer List with Targets:

    sp__memset	PTR void  size(2) Largest target is 206
		 -> output_buffer(BANK3[206]), input_buffer(BANK2[206]), ring_buffer(BANK1[206]), 

    sendStructAddress	PTR unsigned char  size(2) Largest target is 206
		 -> NULL(NULL[0]), ring_buffer(BANK1[206]), 

    serial_read	PTR FTN()unsigned char  size(2) Largest target is 0
		 -> Absolute function(), 

    serial_peek	PTR FTN()unsigned char  size(2) Largest target is 0
		 -> Absolute function(), 

    serial_available	PTR FTN()int  size(2) Largest target is 0
		 -> Absolute function(), 

    serial_write	PTR FTN(unsigned char ,)void  size(2) Largest target is 0
		 -> Absolute function(), 

    receiveArrayAddress	PTR volatile int  size(2) Largest target is 0
		 -> NULL(NULL[0]), 


Critical Paths under _main in COMRAM

    _Update->_writeRegisters
    _Clear595->_writeRegisters
    _writeRegisters->_Delay
    _EnableSlavePower->_SetPin595
    _ComputeStorageData->_DATAEE_ReadByte
    _CoolingStart->_PotClear
    _CoolingStart->_PotSetpoint
    _PotSetpoint->_Delay
    _PotClear->_Delay

Critical Paths under _INTERRUPT_InterruptManager in COMRAM

    None.

Critical Paths under _main in BANK0

    _Update->_writeRegisters
    _StartUp595->_Clear595
    _Clear595->_writeRegisters
    _writeRegisters->_Delay
    _CoolingStart->_PotSetpoint
    _PotSetpoint->_Delay
    _PotClear->_Delay

Critical Paths under _INTERRUPT_InterruptManager in BANK0

    None.

Critical Paths under _main in BANK1

    None.

Critical Paths under _INTERRUPT_InterruptManager in BANK1

    None.

Critical Paths under _main in BANK2

    None.

Critical Paths under _INTERRUPT_InterruptManager in BANK2

    None.

Critical Paths under _main in BANK3

    None.

Critical Paths under _INTERRUPT_InterruptManager in BANK3

    None.

Critical Paths under _main in BANK4

    None.

Critical Paths under _INTERRUPT_InterruptManager in BANK4

    None.

Critical Paths under _main in BANK5

    None.

Critical Paths under _INTERRUPT_InterruptManager in BANK5

    None.

Call Graph Tables:

 ---------------------------------------------------------------------------------
 (Depth) Function   	        Calls       Base Space   Used Autos Params    Refs
 ---------------------------------------------------------------------------------
 (0) _main                                                 0     0      0   15901
                       _CoolingStart
                              _Delay
                         _PDUStartup
                  _SYSTEM_Initialize
 ---------------------------------------------------------------------------------
 (1) _SYSTEM_Initialize                                    0     0      0       0
                     _ADC_Initialize
               _INTERRUPT_Initialize
              _OSCILLATOR_Initialize
             _PIN_MANAGER_Initialize
                    _PWM4_Initialize
                    _TMR2_Initialize
 ---------------------------------------------------------------------------------
 (2) _TMR2_Initialize                                      0     0      0       0
                    _TMR2_StartTimer
 ---------------------------------------------------------------------------------
 (3) _TMR2_StartTimer                                      0     0      0       0
 ---------------------------------------------------------------------------------
 (2) _PWM4_Initialize                                      0     0      0       0
 ---------------------------------------------------------------------------------
 (2) _PIN_MANAGER_Initialize                               0     0      0       0
 ---------------------------------------------------------------------------------
 (2) _OSCILLATOR_Initialize                                0     0      0       0
 ---------------------------------------------------------------------------------
 (2) _INTERRUPT_Initialize                                 0     0      0       0
 ---------------------------------------------------------------------------------
 (2) _ADC_Initialize                                       0     0      0       0
 ---------------------------------------------------------------------------------
 (1) _PDUStartup                                           0     0      0   10724
                 _ComputeStorageData
                   _EnableSlavePower
                         _StartUp595
                             _Update
 ---------------------------------------------------------------------------------
 (2) _Update                                               0     0      0    1698
                     _writeRegisters
 ---------------------------------------------------------------------------------
 (2) _StartUp595                                           0     0      0    3328
                           _Clear595
                              _Delay
 ---------------------------------------------------------------------------------
 (3) _Clear595                                             2     2      0    1797
                                              8 BANK0      2     2      0
                     _writeRegisters
 ---------------------------------------------------------------------------------
 (3) _writeRegisters                                       5     5      0    1698
                                             19 COMRAM     1     1      0
                                              4 BANK0      4     4      0
                              _Delay
 ---------------------------------------------------------------------------------
 (2) _EnableSlavePower                                     3     1      2    5623
                                              0 BANK0      3     1      2
                          _SetPin595
 ---------------------------------------------------------------------------------
 (3) _SetPin595                                            7     5      2    3789
                                             14 COMRAM     7     5      2
 ---------------------------------------------------------------------------------
 (2) _ComputeStorageData                                   4     4      0      75
                                             15 COMRAM     4     4      0
                    _DATAEE_ReadByte
 ---------------------------------------------------------------------------------
 (3) _DATAEE_ReadByte                                      1     1      0      15
                                             14 COMRAM     1     1      0
 ---------------------------------------------------------------------------------
 (1) _CoolingStart                                         0     0      0    3646
                 _PWM4_LoadDutyValue
                           _PotClear
                        _PotSetpoint
 ---------------------------------------------------------------------------------
 (2) _PotSetpoint                                         10     8      2    1939
                                             19 COMRAM     2     0      2
                                              4 BANK0      8     8      0
                              _Delay
 ---------------------------------------------------------------------------------
 (2) _PotClear                                             2     2      0    1599
                                             19 COMRAM     2     2      0
                              _Delay
 ---------------------------------------------------------------------------------
 (4) _Delay                                                9     5      4    1531
                                             14 COMRAM     5     1      4
                                              0 BANK0      4     4      0
 ---------------------------------------------------------------------------------
 (2) _PWM4_LoadDutyValue                                   4     2      2     108
                                             14 COMRAM     4     2      2
 ---------------------------------------------------------------------------------
 Estimated maximum stack depth 4
 ---------------------------------------------------------------------------------
 (Depth) Function   	        Calls       Base Space   Used Autos Params    Refs
 ---------------------------------------------------------------------------------
 (6) _INTERRUPT_InterruptManager                          14    14      0       0
                                              0 COMRAM    14    14      0
                            _ADC_ISR
 ---------------------------------------------------------------------------------
 (7) _ADC_ISR                                              0     0      0       0
 ---------------------------------------------------------------------------------
 Estimated maximum stack depth 7
 ---------------------------------------------------------------------------------

 Call Graph Graphs:

 _main (ROOT)
   _CoolingStart
     _PWM4_LoadDutyValue
     _PotClear
       _Delay
     _PotSetpoint
       _Delay
   _Delay
   _PDUStartup
     _ComputeStorageData
       _DATAEE_ReadByte
     _EnableSlavePower
       _SetPin595
     _StartUp595
       _Clear595
         _writeRegisters
           _Delay
       _Delay
     _Update
       _writeRegisters
         _Delay
   _SYSTEM_Initialize
     _ADC_Initialize
     _INTERRUPT_Initialize
     _OSCILLATOR_Initialize
     _PIN_MANAGER_Initialize
     _PWM4_Initialize
     _TMR2_Initialize
       _TMR2_StartTimer

 _INTERRUPT_InterruptManager (ROOT)
   _ADC_ISR

 Address spaces:
Name               Size   Autos  Total    Cost      Usage
BIGRAM             5FF      0       0      16        0.0%
EEDATA             100      0       0       0        0.0%
BITBANK5           100      0       0      14        0.0%
BANK5              100      0       0      15        0.0%
BITBANK4           100      0       0      12        0.0%
BANK4              100      0      C8      13       78.1%
BITBANK3           100      0       0      10        0.0%
BANK3              100      0      CE      11       80.5%
BITBANK2           100      0       0       7        0.0%
BANK2              100      0      CE       8       80.5%
BITBANK1           100      0       0       5        0.0%
BANK1              100      0      CE       6       80.5%
BITBANK0            A0      0       0       3        0.0%
BANK0               A0      C      75       4       73.1%
BITCOMRAM           5E      0       0       0        0.0%
COMRAM              5E     15      50       1       85.1%
BITSFR_1             0      0       0      40        0.0%
SFR_1                0      0       0      40        0.0%
BITSFR               0      0       0      40        0.0%
SFR                  0      0       0      40        0.0%
STACK                0      0       0       2        0.0%
NULL                 0      0       0       0        0.0%
ABS                  0      0     3F7       9        0.0%
DATA                 0      0     3F7      17        0.0%
CODE                 0      0       0       0        0.0%


Microchip Technology PIC18 Macro Assembler V1.35 build -356382666 
Symbol Table                                                                                   Fri May 27 00:31:03 2016

                       _rx_array_inx 0039                       ??_CoolingStart 0050  
                       __CFG_CP0$OFF 000000                         __CFG_CP1$OFF 000000  
                       __CFG_CP2$OFF 000000                         __CFG_CP3$OFF 000000  
                                l370 0226                                  l362 010C  
                                l371 0260                                  l365 0170  
                                l690 03A2                                  l692 03AE  
                       __CFG_CPB$OFF 000000                                  _PR2 000FBB  
                       __CFG_CPD$OFF 000000                      __end_of_ADC_ISR 07D8  
                    _TMR2_Initialize 078E                      _PWM4_Initialize 075C  
                                wreg 000FE8                         __CFG_LVP$OFF 000000  
                               l3020 05AA                                 l3024 05C8  
                               l3120 00BA                                 l3116 00A4  
                               l1604 029E                                 l3036 0396  
                               l3028 0362                                 l3052 06C8  
                               l3134 0150                                 l3118 00B2  
                               l1614 02C8                                 l3070 0404  
                               l3062 06EC                                 l3144 01A2  
                               l1608 02AE                                 l3072 0414  
                               l3080 0444                                 l3074 0424  
                               l3066 03E4                                 l3076 0434  
                               l3068 03F4                                 l3172 0702  
                               _LATA 000F89                                 _LATB 000F8A  
                               _LATC 000F8B                                 _LATD 000F8C  
                               _LATE 000F8D                                 u1700 009C  
                               u1750 071E                                 u1690 0260  
                               u1907 05B0                                 _TMR2 000FBC  
                               _WPUB 000F61                                 _data 000D  
                               _main 06F2             __end_of_EnableSlavePower 046E  
                               fsr0h 000FEA                                 fsr1h 000FE2  
                               fsr0l 000FE9                                 fsr2h 000FDA  
                               fsr1l 000FE1                                 indf2 000FDF  
                               fsr2l 000FD9                                 btemp 0051  
                      __CFG_BORV$190 000000                                 pclat 000FFA  
                               prodh 000FF4                                 prodl 000FF3  
                               start 0088                        __CFG_IESO$OFF 000000  
                       ___param_bank 000010       __size_of_OSCILLATOR_Initialize 000E  
      __end_of_OSCILLATOR_Initialize 07C4                                ?_main 003B  
                              _EEADR 000FA9                                _T2CON 000FBA  
                              _LATB0 007C50                                _LATA3 007C4B  
                              _LATB3 007C53                                _LATB4 007C54  
                              _LATB5 007C55                                _LATD4 007C64  
                              _LATD5 007C65                                _LATD6 007C66  
                              _LATD7 007C67                       __CFG_DEBUG$OFF 000000  
                              i2l216 004C                          ?_PDUStartup 003B  
                 _PWM4_LoadDutyValue 0688                                _TRISA 000F92  
                              _TRISB 000F93                                _TRISC 000F94  
                              _TRISD 000F95                                _TRISE 000F96  
                              _Delay 0596                        __CFG_WRT0$OFF 000000  
                      __CFG_WRT1$OFF 000000                        __CFG_WRT2$OFF 000000  
                      __CFG_WRT3$OFF 000000                       __CFG_EBTR0$OFF 000000  
                     __CFG_FCMEN$OFF 000000                       __CFG_EBTR1$OFF 000000  
                     __CFG_EBTR2$OFF 000000                       __CFG_EBTR3$OFF 000000  
                   ??_writeRegisters 004E                        __CFG_WRTB$OFF 000000  
                      __CFG_WRTC$OFF 000000                        __CFG_WRTD$OFF 000000  
                    _DATAEE_ReadByte 07A2                       __CFG_EBTRB$OFF 000000  
                              _group 0021                  ?_PWM4_LoadDutyValue 0049  
                 __CFG_MCLRE$EXTMCLR 000000                                tablat 000FF5  
                              status 000FD8                     __end_of_Clear595 06F2  
                     __CFG_HFOFST$ON 000000                      _TMR2_StartTimer 07D0  
                     __CFG_PBADEN$ON 000000                 PotSetpoint@new_point 004E  
                    __initialization 046E                         __end_of_main 0722  
                         _CurrentADC 00AC                 ??_PWM4_LoadDutyValue 004B  
            __end_of_PWM4_Initialize 0776              __end_of_TMR2_Initialize 07A2  
                          ??_ADC_ISR 003B          ?_INTERRUPT_InterruptManager 003B  
               PotSetpoint@set_point 00CF                               ??_main 0050  
                   __end_of_PotClear 0296                        __activetblptr 000002  
                             ?_Delay 0049                               _ADCON0 000FC2  
                             _ADCON1 000FC1                               _ADCON2 000FC0  
                             _ADRESH 000FC4                               _ADRESL 000FC3  
                             _EEDATA 000FA8                               _CCPR4H 000F59  
                             _CCPR5H 000F56                               _CCPR4L 000F58  
                             _CCPR5L 000F55                               _EECON2 000FA7  
                             _ANSELA 000F38                               _ANSELB 000F39  
                             _ANSELC 000F3A                               _ANSELD 000F3B  
                             _ANSELE 000F3C                               _RC1STA 000FAB  
                             Delay@i 00C9                       __CFG_WDTEN$OFF 000000  
                             _TABLAT 000FF5                               _RCREG1 000FAE  
                             _OSCCON 000FD3                               _SPBRG1 000FAF  
               __end_of_CoolingStart 0740                               _TX1STA 000FAC  
                             _TXREG1 000FAD                  __size_of_PDUStartup 005E  
                     __CFG_XINST$OFF 000000                        ??_PotSetpoint 00CD  
                       _CCPTMRS1bits 000F48                               _Update 07CA  
                 __size_of_SetPin595 0044                        _output_buffer 0300  
                     __CFG_STVREN$ON 000000                               clear_0 0474  
                             clear_1 0480                               clear_2 048C  
                             clear_3 0498                               clear_4 04A4  
                             clear_5 04B0                               _rx_len 003A  
            __end_of_DATAEE_ReadByte 07B6                         __pdataCOMRAM 0050  
                             tblptrh 000FF7                               tblptrl 000FF6  
                             tblptru 000FF8                           _StartUp595 04D6  
            __end_of_TMR2_StartTimer 07D4        __size_of_INTERRUPT_Initialize 0006  
                  _SYSTEM_Initialize 0740                           __accesstop 0060  
            __end_of__initialization 04C8                   ?_SYSTEM_Initialize 003B  
                      ___rparam_used 000001                        __end_of_Delay 05EE  
                     __pcstackCOMRAM 003B                  ??_SYSTEM_Initialize 0049  
                   ?_TMR2_Initialize 003B                     ?_PWM4_Initialize 003B  
                __end_of_PotSetpoint 01CE          __size_of_ComputeStorageData 00B8  
        PWM4_LoadDutyValue@dutyValue 0049                          _Currentcomp 0001  
                          ?_Clear595 003B                              ??_Delay 004D  
                  __end_of_SetPin595 0688            __end_of_SYSTEM_Initialize 075C  
                _addressErrorCounter 0019                           __pbssBANK0 0060  
                         __pbssBANK1 0100                           __pbssBANK2 0200  
                         __pbssBANK3 0300                           __pbssBANK4 0400  
                    __CFG_PLLCFG$OFF 000000                    ?_EnableSlavePower 00C9  
                          ?_PotClear 003B                   ??_EnableSlavePower 0050  
                 __CFG_CCP2MX$PORTC1 000000                              ?_Update 003B  
                 __CFG_CCP3MX$PORTB5 000000                              _CCP4CON 000F57  
                            _CCP5CON 000F54                              _ADC_ISR 07D4  
                         _crc_buffer 00B8              __size_of_ADC_Initialize 0018  
                   ?_DATAEE_ReadByte 003B                         ??_PDUStartup 0050  
                         ??_Clear595 004F                              _OSCCON2 000FD2  
                            _TBLPTRH 000FF7                              _TBLPTRL 000FF6  
                            _TBLPTRU 000FF8                          ?_StartUp595 003B  
                            _OSCTUNE 000F9B                              _SPBRGH1 000FB0  
                _receiveArrayAddress 0025                __size_of_CoolingStart 001E  
                   ?_TMR2_StartTimer 003B                              _Current 00A0  
                  _alignErrorCounter 001B                      __CFG_PWRTEN$OFF 000000  
                         ??_PotClear 004E                              __Hparam 0000  
                            __Lparam 0000                   __end_of_PDUStartup 0596  
                        _PotSetpoint 008C                            _AKNAKsend 0033  
                    __size_of_Update 0006                              _calc_CS 0034  
                            __pcinit 046E                              __ramtop 0600  
                            __ptext0 06F2                              __ptext1 0740  
                            __ptext2 078E                              __ptext3 07D0  
                            __ptext4 075C                              __ptext5 05EE  
                            __ptext6 07B6                              __ptext7 07C4  
                            __ptext8 0776                              __ptext9 0538  
                       _CoolingStart 0722                _OSCILLATOR_Initialize 07B6  
                          _T2CONbits 000FBA             ??_PIN_MANAGER_Initialize 0049  
                          Clear595@i 00D1           __size_of_SYSTEM_Initialize 001C  
               end_of_initialization 04C8                            Delay@wait 0049  
                      __Lmediumconst 0000                  __size_of_StartUp595 0062  
                            postinc0 000FEE          __size_of_PWM4_LoadDutyValue 0036  
                       SetPin595@Reg 004F                         SetPin595@pin 0049  
             _dataAdressErrorCounter 001F                           _rx_address 0038  
                          _TRISBbits 000F93              __size_of_writeRegisters 0090  
                      _moduleAddress 0036         __end_of_INTERRUPT_Initialize 07CA  
                     __end_of_Update 07D0                      _crcErrorCounter 001D  
                      __pidataCOMRAM 07D8                       _ADC_Initialize 0776  
             ?_OSCILLATOR_Initialize 003B                  start_initialization 046E  
    __size_of_PIN_MANAGER_Initialize 0056                EnableSlavePower@slave 00CB  
                  __size_of_Clear595 0034                            PotClear@x 004E  
                          _SetPin595 0644                  DATAEE_ReadByte@bAdd 0049  
                           ??_Update 004F                    __size_of_PotClear 00C8  
             __end_of_ADC_Initialize 078E           __end_of_ComputeStorageData 034E  
                           ?_ADC_ISR 003B            __size_of_EnableSlavePower 0090  
                        __pbssCOMRAM 0001                        __pcstackBANK0 00C9  
                       ??_StartUp595 004F             __size_of_PWM4_Initialize 001A  
           __size_of_TMR2_Initialize 0014                           ?_SetPin595 0049  
             _PIN_MANAGER_Initialize 05EE                         ?_PotSetpoint 004E  
                          __pintcode 0008                   __end_of_StartUp595 0538  
                    ?_ADC_Initialize 003B         ??_INTERRUPT_InterruptManager 003B  
                   __CFG_PRICLKEN$ON 000000                             _BAUD1CON 000FB8  
                     __size_of_Delay 0058             __size_of_DATAEE_ReadByte 0014  
               _INTERRUPT_Initialize 07C4                         _receiveArray 0060  
                           _LATCbits 000F8B                       _writeRegisters 034E  
                          _registers 0088                             _IPR1bits 000F9F  
                           _PIE1bits 000F9D                             _PIE4bits 000F7A  
           __size_of_TMR2_StartTimer 0004  __size_of_INTERRUPT_InterruptManager 0080  
                           _PIR1bits 000F9E                             _PIR2bits 000FA1  
                           _PIR4bits 000F7B                             _RCONbits 000FD0  
                   __CFG_WDTPS$32768 000000                         PotSetpoint@x 00D1  
                       _input_buffer 0200                            _rx_buffer 0400  
                   __size_of_ADC_ISR 0004                           _ADCON0bits 000FC2  
                           _Clear595 06BE                          _INTCON2bits 000FF1  
              ?_INTERRUPT_Initialize 003B                    _sendStructAddress 0027  
             __end_of_writeRegisters 03DE                   PotSetpoint@new_pos 00D3  
                        ??_SetPin595 004B                 EnableSlavePower@onof 00C9  
                  ??_TMR2_Initialize 0049                    ??_PWM4_Initialize 0049  
                         _EECON1bits 000FA6                             _PotClear 01CE  
                           __Hrparam 0000           __end_of_PWM4_LoadDutyValue 06BE  
                           __Lrparam 0000                   __CFG_BOREN$SBORDIS 000000  
                  __CFG_P2BMX$PORTD2 000000              ??_OSCILLATOR_Initialize 0049  
                   _EnableSlavePower 03DE                             __ptext10 07CA  
                           __ptext11 04D6                             __ptext20 01CE  
                           __ptext12 06BE                             __ptext21 0596  
                           __ptext13 034E                             __ptext22 0688  
                           __ptext14 03DE                             __ptext15 0644  
                           __ptext24 07D4                             __ptext16 0296  
                           __ptext17 07A2                             __ptext18 0722  
                           __ptext19 008C                      ?_writeRegisters 003B  
                      _returnAddress 0037                        __size_of_main 0030  
                     _Transmit_stall 0050                    ??_DATAEE_ReadByte 0049  
                         _RC1STAbits 000FAB                             _prev_pos 0023  
                  writeRegisters@val 00CD                             int$flags 0051  
                       _serial_write 002F                    ??_TMR2_StartTimer 0049  
 __end_of_INTERRUPT_InterruptManager 0088           _INTERRUPT_InterruptManager 0008  
               __size_of_PotSetpoint 0142                           _INTCONbits 000FF2  
                ComputeStorageData@i 004C                   _ComputeStorageData 0296  
             ??_INTERRUPT_Initialize 0049                     _serial_available 0029  
                           intlevel2 0000                  ?_ComputeStorageData 003B  
            ?_PIN_MANAGER_Initialize 003B                       SetPin595@value 004A  
                        _ring_buffer 0100                     ??_ADC_Initialize 0049  
                        _serial_peek 002B                          _serial_read 002D  
               ??_ComputeStorageData 004A                        ?_CoolingStart 003B  
                         _PDUStartup 0538                    __CFG_T3CMX$PORTC0 000000  
                     _maxDataAddress 0035                      writeRegisters@i 00CF  
     __end_of_PIN_MANAGER_Initialize 0644        updateComms@previousPowerState 0031  
                  __CFG_FOSC$INTIO67 000000  
