

Microchip Technology PIC18 LITE Macro Assembler V1.36 build -262312587 
                                                                                               Tue Aug 23 10:29:40 2016

Microchip Technology Omniscient Code Generator v1.36 (Free mode) build 201601150325
     1                           	processor	18F45K22
     2                           	fnconf	rparam,??,?,0
     3                           	opt	pw 120
     4                           	opt	lm
     5                           	psect	idataCOMRAM,global,class=CODE,delta=1
     6                           	psect	mediumconst,global,reloc=2,class=MEDIUMCONST,delta=1
     7                           	psect	cinit,global,reloc=2,class=CODE,delta=1
     8                           	psect	bssCOMRAM,global,class=COMRAM,space=1,delta=1
     9                           	psect	dataCOMRAM,global,class=COMRAM,space=1,delta=1
    10                           	psect	bssBANK0,global,class=BANK0,space=1,delta=1
    11                           	psect	bssBANK1,global,class=BANK1,space=1,delta=1
    12                           	psect	bssBANK2,global,class=BANK2,space=1,delta=1
    13                           	psect	bssBANK3,global,class=BANK3,space=1,delta=1
    14                           	psect	bssBANK4,global,class=BANK4,space=1,delta=1
    15                           	psect	bssBANK5,global,class=BANK5,space=1,delta=1
    16                           	psect	cstackBANK1,global,class=BANK1,space=1,delta=1
    17                           	psect	cstackBANK0,global,class=BANK0,space=1,delta=1
    18                           	psect	cstackCOMRAM,global,class=COMRAM,space=1,delta=1
    19                           	psect	text0,global,reloc=2,class=CODE,delta=1
    20                           	psect	text1,global,reloc=2,class=CODE,delta=1
    21                           	psect	text2,global,reloc=2,class=CODE,delta=1
    22                           	psect	text3,global,reloc=2,class=CODE,delta=1
    23                           	psect	text4,global,reloc=2,class=CODE,delta=1
    24                           	psect	text5,global,reloc=2,class=CODE,delta=1
    25                           	psect	text6,global,reloc=2,class=CODE,delta=1
    26                           	psect	text7,global,reloc=2,class=CODE,delta=1
    27                           	psect	text8,global,reloc=2,class=CODE,delta=1
    28                           	psect	text9,global,reloc=2,class=CODE,delta=1
    29                           	psect	text10,global,reloc=2,class=CODE,delta=1
    30                           	psect	text11,global,reloc=2,class=CODE,delta=1
    31                           	psect	text12,global,reloc=2,class=CODE,delta=1
    32                           	psect	text13,global,reloc=2,class=CODE,delta=1
    33                           	psect	text14,global,reloc=2,class=CODE,delta=1
    34                           	psect	text15,global,reloc=2,class=CODE,delta=1
    35                           	psect	text16,global,reloc=2,class=CODE,delta=1
    36                           	psect	text17,global,reloc=2,class=CODE,delta=1
    37                           	psect	text18,global,reloc=2,class=CODE,delta=1
    38                           	psect	text19,global,reloc=2,class=CODE,delta=1
    39                           	psect	text20,global,reloc=2,class=CODE,delta=1
    40                           	psect	intcode,global,reloc=2,class=CODE,delta=1
    41                           	psect	text22,global,reloc=2,class=CODE,delta=1
    42                           	psect	text23,global,reloc=2,class=CODE,delta=1
    43                           	psect	text24,global,reloc=2,class=CODE,delta=1
    44                           	psect	text25,global,reloc=2,class=CODE,delta=1
    45                           	psect	text26,global,reloc=2,class=CODE,delta=1
    46                           	psect	text27,global,reloc=2,class=CODE,delta=1
    47                           	psect	text28,global,reloc=2,class=CODE,delta=1
    48                           	psect	text29,global,reloc=2,class=CODE,delta=1
    49                           	psect	text30,global,reloc=2,class=CODE,delta=1
    50                           	psect	text31,global,reloc=2,class=CODE,delta=1
    51                           	psect	text32,global,reloc=2,class=CODE,delta=1
    52                           	psect	text33,global,reloc=2,class=CODE,delta=1
    53                           	psect	intsave_regs,global,class=BIGRAM,space=1,delta=1
    54                           	psect	rparam,global,class=COMRAM,space=1,delta=1
    55                           	psect	temp,global,ovrld,common,class=COMRAM,space=1,delta=1
    56  0000                     
    57 ;; Function _TMR2_DefaultInterruptHandler is unused but had its address taken
    58  0000                     
    59                           	psect	idataCOMRAM
    60  000E82                     __pidataCOMRAM:
    61                           	opt stack 0
    62                           
    63                           ;initializer for _Transmit_stall
    64  000E82  01                 	db	1
    65                           
    66                           	psect	mediumconst
    67  007BD2                     __pmediumconst:
    68                           	opt stack 0
    69  007BD2  00                 	db	0
    70  007BD3                     _OledFont:
    71                           	opt stack 0
    72  007BD3  00                 	db	0
    73  007BD4  00                 	db	0
    74  007BD5  00                 	db	0
    75  007BD6  00                 	db	0
    76  007BD7  00                 	db	0
    77  007BD8  00                 	db	0
    78  007BD9  00                 	db	0
    79  007BDA  00                 	db	0
    80  007BDB  00                 	db	0
    81  007BDC  00                 	db	0
    82  007BDD  5F                 	db	95
    83  007BDE  00                 	db	0
    84  007BDF  00                 	db	0
    85  007BE0  00                 	db	0
    86  007BE1  00                 	db	0
    87  007BE2  00                 	db	0
    88  007BE3  00                 	db	0
    89  007BE4  00                 	db	0
    90  007BE5  07                 	db	7
    91  007BE6  00                 	db	0
    92  007BE7  07                 	db	7
    93  007BE8  00                 	db	0
    94  007BE9  00                 	db	0
    95  007BEA  00                 	db	0
    96  007BEB  00                 	db	0
    97  007BEC  14                 	db	20
    98  007BED  7F                 	db	127
    99  007BEE  14                 	db	20
   100  007BEF  7F                 	db	127
   101  007BF0  14                 	db	20
   102  007BF1  00                 	db	0
   103  007BF2  00                 	db	0
   104  007BF3  00                 	db	0
   105  007BF4  24                 	db	36
   106  007BF5  2A                 	db	42
   107  007BF6  7F                 	db	127
   108  007BF7  2A                 	db	42
   109  007BF8  12                 	db	18
   110  007BF9  00                 	db	0
   111  007BFA  00                 	db	0
   112  007BFB  00                 	db	0
   113  007BFC  23                 	db	35
   114  007BFD  13                 	db	19
   115  007BFE  08                 	db	8
   116  007BFF  64                 	db	100
   117  007C00  62                 	db	98
   118  007C01  00                 	db	0
   119  007C02  00                 	db	0
   120  007C03  00                 	db	0
   121  007C04  36                 	db	54
   122  007C05  49                 	db	73
   123  007C06  55                 	db	85
   124  007C07  22                 	db	34
   125  007C08  50                 	db	80
   126  007C09  00                 	db	0
   127  007C0A  00                 	db	0
   128  007C0B  00                 	db	0
   129  007C0C  00                 	db	0
   130  007C0D  05                 	db	5
   131  007C0E  03                 	db	3
   132  007C0F  00                 	db	0
   133  007C10  00                 	db	0
   134  007C11  00                 	db	0
   135  007C12  00                 	db	0
   136  007C13  00                 	db	0
   137  007C14  1C                 	db	28
   138  007C15  22                 	db	34
   139  007C16  41                 	db	65
   140  007C17  00                 	db	0
   141  007C18  00                 	db	0
   142  007C19  00                 	db	0
   143  007C1A  00                 	db	0
   144  007C1B  00                 	db	0
   145  007C1C  41                 	db	65
   146  007C1D  22                 	db	34
   147  007C1E  1C                 	db	28
   148  007C1F  00                 	db	0
   149  007C20  00                 	db	0
   150  007C21  00                 	db	0
   151  007C22  00                 	db	0
   152  007C23  00                 	db	0
   153  007C24  08                 	db	8
   154  007C25  2A                 	db	42
   155  007C26  1C                 	db	28
   156  007C27  2A                 	db	42
   157  007C28  08                 	db	8
   158  007C29  00                 	db	0
   159  007C2A  00                 	db	0
   160  007C2B  00                 	db	0
   161  007C2C  08                 	db	8
   162  007C2D  08                 	db	8
   163  007C2E  3E                 	db	62
   164  007C2F  08                 	db	8
   165  007C30  08                 	db	8
   166  007C31  00                 	db	0
   167  007C32  00                 	db	0
   168  007C33  00                 	db	0
   169  007C34  A0                 	db	160
   170  007C35  60                 	db	96
   171  007C36  00                 	db	0
   172  007C37  00                 	db	0
   173  007C38  00                 	db	0
   174  007C39  00                 	db	0
   175  007C3A  00                 	db	0
   176  007C3B  00                 	db	0
   177  007C3C  08                 	db	8
   178  007C3D  08                 	db	8
   179  007C3E  08                 	db	8
   180  007C3F  08                 	db	8
   181  007C40  08                 	db	8
   182  007C41  00                 	db	0
   183  007C42  00                 	db	0
   184  007C43  00                 	db	0
   185  007C44  60                 	db	96
   186  007C45  60                 	db	96
   187  007C46  00                 	db	0
   188  007C47  00                 	db	0
   189  007C48  00                 	db	0
   190  007C49  00                 	db	0
   191  007C4A  00                 	db	0
   192  007C4B  00                 	db	0
   193  007C4C  20                 	db	32
   194  007C4D  10                 	db	16
   195  007C4E  08                 	db	8
   196  007C4F  04                 	db	4
   197  007C50  02                 	db	2
   198  007C51  00                 	db	0
   199  007C52  00                 	db	0
   200  007C53  00                 	db	0
   201  007C54  3E                 	db	62
   202  007C55  51                 	db	81
   203  007C56  49                 	db	73
   204  007C57  45                 	db	69
   205  007C58  3E                 	db	62
   206  007C59  00                 	db	0
   207  007C5A  00                 	db	0
   208  007C5B  00                 	db	0
   209  007C5C  00                 	db	0
   210  007C5D  42                 	db	66
   211  007C5E  7F                 	db	127
   212  007C5F  40                 	db	64
   213  007C60  00                 	db	0
   214  007C61  00                 	db	0
   215  007C62  00                 	db	0
   216  007C63  00                 	db	0
   217  007C64  62                 	db	98
   218  007C65  51                 	db	81
   219  007C66  49                 	db	73
   220  007C67  49                 	db	73
   221  007C68  46                 	db	70
   222  007C69  00                 	db	0
   223  007C6A  00                 	db	0
   224  007C6B  00                 	db	0
   225  007C6C  22                 	db	34
   226  007C6D  41                 	db	65
   227  007C6E  49                 	db	73
   228  007C6F  49                 	db	73
   229  007C70  36                 	db	54
   230  007C71  00                 	db	0
   231  007C72  00                 	db	0
   232  007C73  00                 	db	0
   233  007C74  18                 	db	24
   234  007C75  14                 	db	20
   235  007C76  12                 	db	18
   236  007C77  7F                 	db	127
   237  007C78  10                 	db	16
   238  007C79  00                 	db	0
   239  007C7A  00                 	db	0
   240  007C7B  00                 	db	0
   241  007C7C  27                 	db	39
   242  007C7D  45                 	db	69
   243  007C7E  45                 	db	69
   244  007C7F  45                 	db	69
   245  007C80  39                 	db	57
   246  007C81  00                 	db	0
   247  007C82  00                 	db	0
   248  007C83  00                 	db	0
   249  007C84  3C                 	db	60
   250  007C85  4A                 	db	74
   251  007C86  49                 	db	73
   252  007C87  49                 	db	73
   253  007C88  30                 	db	48
   254  007C89  00                 	db	0
   255  007C8A  00                 	db	0
   256  007C8B  00                 	db	0
   257  007C8C  01                 	db	1
   258  007C8D  71                 	db	113
   259  007C8E  09                 	db	9
   260  007C8F  05                 	db	5
   261  007C90  03                 	db	3
   262  007C91  00                 	db	0
   263  007C92  00                 	db	0
   264  007C93  00                 	db	0
   265  007C94  36                 	db	54
   266  007C95  49                 	db	73
   267  007C96  49                 	db	73
   268  007C97  49                 	db	73
   269  007C98  36                 	db	54
   270  007C99  00                 	db	0
   271  007C9A  00                 	db	0
   272  007C9B  00                 	db	0
   273  007C9C  06                 	db	6
   274  007C9D  49                 	db	73
   275  007C9E  49                 	db	73
   276  007C9F  29                 	db	41
   277  007CA0  1E                 	db	30
   278  007CA1  00                 	db	0
   279  007CA2  00                 	db	0
   280  007CA3  00                 	db	0
   281  007CA4  00                 	db	0
   282  007CA5  36                 	db	54
   283  007CA6  36                 	db	54
   284  007CA7  00                 	db	0
   285  007CA8  00                 	db	0
   286  007CA9  00                 	db	0
   287  007CAA  00                 	db	0
   288  007CAB  00                 	db	0
   289  007CAC  00                 	db	0
   290  007CAD  AC                 	db	172
   291  007CAE  6C                 	db	108
   292  007CAF  00                 	db	0
   293  007CB0  00                 	db	0
   294  007CB1  00                 	db	0
   295  007CB2  00                 	db	0
   296  007CB3  00                 	db	0
   297  007CB4  08                 	db	8
   298  007CB5  14                 	db	20
   299  007CB6  22                 	db	34
   300  007CB7  41                 	db	65
   301  007CB8  00                 	db	0
   302  007CB9  00                 	db	0
   303  007CBA  00                 	db	0
   304  007CBB  00                 	db	0
   305  007CBC  14                 	db	20
   306  007CBD  14                 	db	20
   307  007CBE  14                 	db	20
   308  007CBF  14                 	db	20
   309  007CC0  14                 	db	20
   310  007CC1  00                 	db	0
   311  007CC2  00                 	db	0
   312  007CC3  00                 	db	0
   313  007CC4  41                 	db	65
   314  007CC5  22                 	db	34
   315  007CC6  14                 	db	20
   316  007CC7  08                 	db	8
   317  007CC8  00                 	db	0
   318  007CC9  00                 	db	0
   319  007CCA  00                 	db	0
   320  007CCB  00                 	db	0
   321  007CCC  02                 	db	2
   322  007CCD  01                 	db	1
   323  007CCE  51                 	db	81
   324  007CCF  09                 	db	9
   325  007CD0  06                 	db	6
   326  007CD1  00                 	db	0
   327  007CD2  00                 	db	0
   328  007CD3  00                 	db	0
   329  007CD4  32                 	db	50
   330  007CD5  49                 	db	73
   331  007CD6  79                 	db	121
   332  007CD7  41                 	db	65
   333  007CD8  3E                 	db	62
   334  007CD9  00                 	db	0
   335  007CDA  00                 	db	0
   336  007CDB  00                 	db	0
   337  007CDC  7E                 	db	126
   338  007CDD  09                 	db	9
   339  007CDE  09                 	db	9
   340  007CDF  09                 	db	9
   341  007CE0  7E                 	db	126
   342  007CE1  00                 	db	0
   343  007CE2  00                 	db	0
   344  007CE3  00                 	db	0
   345  007CE4  7F                 	db	127
   346  007CE5  49                 	db	73
   347  007CE6  49                 	db	73
   348  007CE7  49                 	db	73
   349  007CE8  36                 	db	54
   350  007CE9  00                 	db	0
   351  007CEA  00                 	db	0
   352  007CEB  00                 	db	0
   353  007CEC  3E                 	db	62
   354  007CED  41                 	db	65
   355  007CEE  41                 	db	65
   356  007CEF  41                 	db	65
   357  007CF0  22                 	db	34
   358  007CF1  00                 	db	0
   359  007CF2  00                 	db	0
   360  007CF3  00                 	db	0
   361  007CF4  7F                 	db	127
   362  007CF5  41                 	db	65
   363  007CF6  41                 	db	65
   364  007CF7  22                 	db	34
   365  007CF8  1C                 	db	28
   366  007CF9  00                 	db	0
   367  007CFA  00                 	db	0
   368  007CFB  00                 	db	0
   369  007CFC  7F                 	db	127
   370  007CFD  49                 	db	73
   371  007CFE  49                 	db	73
   372  007CFF  49                 	db	73
   373  007D00  41                 	db	65
   374  007D01  00                 	db	0
   375  007D02  00                 	db	0
   376  007D03  00                 	db	0
   377  007D04  7F                 	db	127
   378  007D05  09                 	db	9
   379  007D06  09                 	db	9
   380  007D07  09                 	db	9
   381  007D08  01                 	db	1
   382  007D09  00                 	db	0
   383  007D0A  00                 	db	0
   384  007D0B  00                 	db	0
   385  007D0C  3E                 	db	62
   386  007D0D  41                 	db	65
   387  007D0E  41                 	db	65
   388  007D0F  51                 	db	81
   389  007D10  72                 	db	114
   390  007D11  00                 	db	0
   391  007D12  00                 	db	0
   392  007D13  00                 	db	0
   393  007D14  7F                 	db	127
   394  007D15  08                 	db	8
   395  007D16  08                 	db	8
   396  007D17  08                 	db	8
   397  007D18  7F                 	db	127
   398  007D19  00                 	db	0
   399  007D1A  00                 	db	0
   400  007D1B  00                 	db	0
   401  007D1C  41                 	db	65
   402  007D1D  7F                 	db	127
   403  007D1E  41                 	db	65
   404  007D1F  00                 	db	0
   405  007D20  00                 	db	0
   406  007D21  00                 	db	0
   407  007D22  00                 	db	0
   408  007D23  00                 	db	0
   409  007D24  20                 	db	32
   410  007D25  40                 	db	64
   411  007D26  41                 	db	65
   412  007D27  3F                 	db	63
   413  007D28  01                 	db	1
   414  007D29  00                 	db	0
   415  007D2A  00                 	db	0
   416  007D2B  00                 	db	0
   417  007D2C  7F                 	db	127
   418  007D2D  08                 	db	8
   419  007D2E  14                 	db	20
   420  007D2F  22                 	db	34
   421  007D30  41                 	db	65
   422  007D31  00                 	db	0
   423  007D32  00                 	db	0
   424  007D33  00                 	db	0
   425  007D34  7F                 	db	127
   426  007D35  40                 	db	64
   427  007D36  40                 	db	64
   428  007D37  40                 	db	64
   429  007D38  40                 	db	64
   430  007D39  00                 	db	0
   431  007D3A  00                 	db	0
   432  007D3B  00                 	db	0
   433  007D3C  7F                 	db	127
   434  007D3D  02                 	db	2
   435  007D3E  0C                 	db	12
   436  007D3F  02                 	db	2
   437  007D40  7F                 	db	127
   438  007D41  00                 	db	0
   439  007D42  00                 	db	0
   440  007D43  00                 	db	0
   441  007D44  7F                 	db	127
   442  007D45  04                 	db	4
   443  007D46  08                 	db	8
   444  007D47  10                 	db	16
   445  007D48  7F                 	db	127
   446  007D49  00                 	db	0
   447  007D4A  00                 	db	0
   448  007D4B  00                 	db	0
   449  007D4C  3E                 	db	62
   450  007D4D  41                 	db	65
   451  007D4E  41                 	db	65
   452  007D4F  41                 	db	65
   453  007D50  3E                 	db	62
   454  007D51  00                 	db	0
   455  007D52  00                 	db	0
   456  007D53  00                 	db	0
   457  007D54  7F                 	db	127
   458  007D55  09                 	db	9
   459  007D56  09                 	db	9
   460  007D57  09                 	db	9
   461  007D58  06                 	db	6
   462  007D59  00                 	db	0
   463  007D5A  00                 	db	0
   464  007D5B  00                 	db	0
   465  007D5C  3E                 	db	62
   466  007D5D  41                 	db	65
   467  007D5E  51                 	db	81
   468  007D5F  21                 	db	33
   469  007D60  5E                 	db	94
   470  007D61  00                 	db	0
   471  007D62  00                 	db	0
   472  007D63  00                 	db	0
   473  007D64  7F                 	db	127
   474  007D65  09                 	db	9
   475  007D66  19                 	db	25
   476  007D67  29                 	db	41
   477  007D68  46                 	db	70
   478  007D69  00                 	db	0
   479  007D6A  00                 	db	0
   480  007D6B  00                 	db	0
   481  007D6C  26                 	db	38
   482  007D6D  49                 	db	73
   483  007D6E  49                 	db	73
   484  007D6F  49                 	db	73
   485  007D70  32                 	db	50
   486  007D71  00                 	db	0
   487  007D72  00                 	db	0
   488  007D73  00                 	db	0
   489  007D74  01                 	db	1
   490  007D75  01                 	db	1
   491  007D76  7F                 	db	127
   492  007D77  01                 	db	1
   493  007D78  01                 	db	1
   494  007D79  00                 	db	0
   495  007D7A  00                 	db	0
   496  007D7B  00                 	db	0
   497  007D7C  3F                 	db	63
   498  007D7D  40                 	db	64
   499  007D7E  40                 	db	64
   500  007D7F  40                 	db	64
   501  007D80  3F                 	db	63
   502  007D81  00                 	db	0
   503  007D82  00                 	db	0
   504  007D83  00                 	db	0
   505  007D84  1F                 	db	31
   506  007D85  20                 	db	32
   507  007D86  40                 	db	64
   508  007D87  20                 	db	32
   509  007D88  1F                 	db	31
   510  007D89  00                 	db	0
   511  007D8A  00                 	db	0
   512  007D8B  00                 	db	0
   513  007D8C  3F                 	db	63
   514  007D8D  40                 	db	64
   515  007D8E  38                 	db	56
   516  007D8F  40                 	db	64
   517  007D90  3F                 	db	63
   518  007D91  00                 	db	0
   519  007D92  00                 	db	0
   520  007D93  00                 	db	0
   521  007D94  63                 	db	99
   522  007D95  14                 	db	20
   523  007D96  08                 	db	8
   524  007D97  14                 	db	20
   525  007D98  63                 	db	99
   526  007D99  00                 	db	0
   527  007D9A  00                 	db	0
   528  007D9B  00                 	db	0
   529  007D9C  03                 	db	3
   530  007D9D  04                 	db	4
   531  007D9E  78                 	db	120
   532  007D9F  04                 	db	4
   533  007DA0  03                 	db	3
   534  007DA1  00                 	db	0
   535  007DA2  00                 	db	0
   536  007DA3  00                 	db	0
   537  007DA4  61                 	db	97
   538  007DA5  51                 	db	81
   539  007DA6  49                 	db	73
   540  007DA7  45                 	db	69
   541  007DA8  43                 	db	67
   542  007DA9  00                 	db	0
   543  007DAA  00                 	db	0
   544  007DAB  00                 	db	0
   545  007DAC  7F                 	db	127
   546  007DAD  41                 	db	65
   547  007DAE  41                 	db	65
   548  007DAF  00                 	db	0
   549  007DB0  00                 	db	0
   550  007DB1  00                 	db	0
   551  007DB2  00                 	db	0
   552  007DB3  00                 	db	0
   553  007DB4  02                 	db	2
   554  007DB5  04                 	db	4
   555  007DB6  08                 	db	8
   556  007DB7  10                 	db	16
   557  007DB8  20                 	db	32
   558  007DB9  00                 	db	0
   559  007DBA  00                 	db	0
   560  007DBB  00                 	db	0
   561  007DBC  41                 	db	65
   562  007DBD  41                 	db	65
   563  007DBE  7F                 	db	127
   564  007DBF  00                 	db	0
   565  007DC0  00                 	db	0
   566  007DC1  00                 	db	0
   567  007DC2  00                 	db	0
   568  007DC3  00                 	db	0
   569  007DC4  04                 	db	4
   570  007DC5  02                 	db	2
   571  007DC6  01                 	db	1
   572  007DC7  02                 	db	2
   573  007DC8  04                 	db	4
   574  007DC9  00                 	db	0
   575  007DCA  00                 	db	0
   576  007DCB  00                 	db	0
   577  007DCC  80                 	db	128
   578  007DCD  80                 	db	128
   579  007DCE  80                 	db	128
   580  007DCF  80                 	db	128
   581  007DD0  80                 	db	128
   582  007DD1  00                 	db	0
   583  007DD2  00                 	db	0
   584  007DD3  00                 	db	0
   585  007DD4  01                 	db	1
   586  007DD5  02                 	db	2
   587  007DD6  04                 	db	4
   588  007DD7  00                 	db	0
   589  007DD8  00                 	db	0
   590  007DD9  00                 	db	0
   591  007DDA  00                 	db	0
   592  007DDB  00                 	db	0
   593  007DDC  20                 	db	32
   594  007DDD  54                 	db	84
   595  007DDE  54                 	db	84
   596  007DDF  54                 	db	84
   597  007DE0  78                 	db	120
   598  007DE1  00                 	db	0
   599  007DE2  00                 	db	0
   600  007DE3  00                 	db	0
   601  007DE4  7F                 	db	127
   602  007DE5  48                 	db	72
   603  007DE6  44                 	db	68
   604  007DE7  44                 	db	68
   605  007DE8  38                 	db	56
   606  007DE9  00                 	db	0
   607  007DEA  00                 	db	0
   608  007DEB  00                 	db	0
   609  007DEC  38                 	db	56
   610  007DED  44                 	db	68
   611  007DEE  44                 	db	68
   612  007DEF  28                 	db	40
   613  007DF0  00                 	db	0
   614  007DF1  00                 	db	0
   615  007DF2  00                 	db	0
   616  007DF3  00                 	db	0
   617  007DF4  38                 	db	56
   618  007DF5  44                 	db	68
   619  007DF6  44                 	db	68
   620  007DF7  48                 	db	72
   621  007DF8  7F                 	db	127
   622  007DF9  00                 	db	0
   623  007DFA  00                 	db	0
   624  007DFB  00                 	db	0
   625  007DFC  38                 	db	56
   626  007DFD  54                 	db	84
   627  007DFE  54                 	db	84
   628  007DFF  54                 	db	84
   629  007E00  18                 	db	24
   630  007E01  00                 	db	0
   631  007E02  00                 	db	0
   632  007E03  00                 	db	0
   633  007E04  08                 	db	8
   634  007E05  7E                 	db	126
   635  007E06  09                 	db	9
   636  007E07  02                 	db	2
   637  007E08  00                 	db	0
   638  007E09  00                 	db	0
   639  007E0A  00                 	db	0
   640  007E0B  00                 	db	0
   641  007E0C  18                 	db	24
   642  007E0D  A4                 	db	164
   643  007E0E  A4                 	db	164
   644  007E0F  A4                 	db	164
   645  007E10  7C                 	db	124
   646  007E11  00                 	db	0
   647  007E12  00                 	db	0
   648  007E13  00                 	db	0
   649  007E14  7F                 	db	127
   650  007E15  08                 	db	8
   651  007E16  04                 	db	4
   652  007E17  04                 	db	4
   653  007E18  78                 	db	120
   654  007E19  00                 	db	0
   655  007E1A  00                 	db	0
   656  007E1B  00                 	db	0
   657  007E1C  00                 	db	0
   658  007E1D  7D                 	db	125
   659  007E1E  00                 	db	0
   660  007E1F  00                 	db	0
   661  007E20  00                 	db	0
   662  007E21  00                 	db	0
   663  007E22  00                 	db	0
   664  007E23  00                 	db	0
   665  007E24  80                 	db	128
   666  007E25  84                 	db	132
   667  007E26  7D                 	db	125
   668  007E27  00                 	db	0
   669  007E28  00                 	db	0
   670  007E29  00                 	db	0
   671  007E2A  00                 	db	0
   672  007E2B  00                 	db	0
   673  007E2C  7F                 	db	127
   674  007E2D  10                 	db	16
   675  007E2E  28                 	db	40
   676  007E2F  44                 	db	68
   677  007E30  00                 	db	0
   678  007E31  00                 	db	0
   679  007E32  00                 	db	0
   680  007E33  00                 	db	0
   681  007E34  41                 	db	65
   682  007E35  7F                 	db	127
   683  007E36  40                 	db	64
   684  007E37  00                 	db	0
   685  007E38  00                 	db	0
   686  007E39  00                 	db	0
   687  007E3A  00                 	db	0
   688  007E3B  00                 	db	0
   689  007E3C  7C                 	db	124
   690  007E3D  04                 	db	4
   691  007E3E  18                 	db	24
   692  007E3F  04                 	db	4
   693  007E40  78                 	db	120
   694  007E41  00                 	db	0
   695  007E42  00                 	db	0
   696  007E43  00                 	db	0
   697  007E44  7C                 	db	124
   698  007E45  08                 	db	8
   699  007E46  04                 	db	4
   700  007E47  7C                 	db	124
   701  007E48  00                 	db	0
   702  007E49  00                 	db	0
   703  007E4A  00                 	db	0
   704  007E4B  00                 	db	0
   705  007E4C  38                 	db	56
   706  007E4D  44                 	db	68
   707  007E4E  44                 	db	68
   708  007E4F  38                 	db	56
   709  007E50  00                 	db	0
   710  007E51  00                 	db	0
   711  007E52  00                 	db	0
   712  007E53  00                 	db	0
   713  007E54  FC                 	db	252
   714  007E55  24                 	db	36
   715  007E56  24                 	db	36
   716  007E57  18                 	db	24
   717  007E58  00                 	db	0
   718  007E59  00                 	db	0
   719  007E5A  00                 	db	0
   720  007E5B  00                 	db	0
   721  007E5C  18                 	db	24
   722  007E5D  24                 	db	36
   723  007E5E  24                 	db	36
   724  007E5F  FC                 	db	252
   725  007E60  00                 	db	0
   726  007E61  00                 	db	0
   727  007E62  00                 	db	0
   728  007E63  00                 	db	0
   729  007E64  00                 	db	0
   730  007E65  7C                 	db	124
   731  007E66  08                 	db	8
   732  007E67  04                 	db	4
   733  007E68  00                 	db	0
   734  007E69  00                 	db	0
   735  007E6A  00                 	db	0
   736  007E6B  00                 	db	0
   737  007E6C  48                 	db	72
   738  007E6D  54                 	db	84
   739  007E6E  54                 	db	84
   740  007E6F  24                 	db	36
   741  007E70  00                 	db	0
   742  007E71  00                 	db	0
   743  007E72  00                 	db	0
   744  007E73  00                 	db	0
   745  007E74  04                 	db	4
   746  007E75  7F                 	db	127
   747  007E76  44                 	db	68
   748  007E77  00                 	db	0
   749  007E78  00                 	db	0
   750  007E79  00                 	db	0
   751  007E7A  00                 	db	0
   752  007E7B  00                 	db	0
   753  007E7C  3C                 	db	60
   754  007E7D  40                 	db	64
   755  007E7E  40                 	db	64
   756  007E7F  7C                 	db	124
   757  007E80  00                 	db	0
   758  007E81  00                 	db	0
   759  007E82  00                 	db	0
   760  007E83  00                 	db	0
   761  007E84  1C                 	db	28
   762  007E85  20                 	db	32
   763  007E86  40                 	db	64
   764  007E87  20                 	db	32
   765  007E88  1C                 	db	28
   766  007E89  00                 	db	0
   767  007E8A  00                 	db	0
   768  007E8B  00                 	db	0
   769  007E8C  3C                 	db	60
   770  007E8D  40                 	db	64
   771  007E8E  30                 	db	48
   772  007E8F  40                 	db	64
   773  007E90  3C                 	db	60
   774  007E91  00                 	db	0
   775  007E92  00                 	db	0
   776  007E93  00                 	db	0
   777  007E94  44                 	db	68
   778  007E95  28                 	db	40
   779  007E96  10                 	db	16
   780  007E97  28                 	db	40
   781  007E98  44                 	db	68
   782  007E99  00                 	db	0
   783  007E9A  00                 	db	0
   784  007E9B  00                 	db	0
   785  007E9C  1C                 	db	28
   786  007E9D  A0                 	db	160
   787  007E9E  A0                 	db	160
   788  007E9F  7C                 	db	124
   789  007EA0  00                 	db	0
   790  007EA1  00                 	db	0
   791  007EA2  00                 	db	0
   792  007EA3  00                 	db	0
   793  007EA4  44                 	db	68
   794  007EA5  64                 	db	100
   795  007EA6  54                 	db	84
   796  007EA7  4C                 	db	76
   797  007EA8  44                 	db	68
   798  007EA9  00                 	db	0
   799  007EAA  00                 	db	0
   800  007EAB  00                 	db	0
   801  007EAC  08                 	db	8
   802  007EAD  36                 	db	54
   803  007EAE  41                 	db	65
   804  007EAF  00                 	db	0
   805  007EB0  00                 	db	0
   806  007EB1  00                 	db	0
   807  007EB2  00                 	db	0
   808  007EB3  00                 	db	0
   809  007EB4  00                 	db	0
   810  007EB5  7F                 	db	127
   811  007EB6  00                 	db	0
   812  007EB7  00                 	db	0
   813  007EB8  00                 	db	0
   814  007EB9  00                 	db	0
   815  007EBA  00                 	db	0
   816  007EBB  00                 	db	0
   817  007EBC  41                 	db	65
   818  007EBD  36                 	db	54
   819  007EBE  08                 	db	8
   820  007EBF  00                 	db	0
   821  007EC0  00                 	db	0
   822  007EC1  00                 	db	0
   823  007EC2  00                 	db	0
   824  007EC3  00                 	db	0
   825  007EC4  02                 	db	2
   826  007EC5  01                 	db	1
   827  007EC6  01                 	db	1
   828  007EC7  02                 	db	2
   829  007EC8  01                 	db	1
   830  007EC9  00                 	db	0
   831  007ECA  00                 	db	0
   832  007ECB  00                 	db	0
   833  007ECC  02                 	db	2
   834  007ECD  05                 	db	5
   835  007ECE  05                 	db	5
   836  007ECF  02                 	db	2
   837  007ED0  00                 	db	0
   838  007ED1  00                 	db	0
   839  007ED2  00                 	db	0
   840  007ED3                     __end_of_OledFont:
   841                           	opt stack 0
   842  007ED3                     _picture:
   843                           	opt stack 0
   844  007ED3  00                 	db	0
   845  007ED4  00                 	db	0
   846  007ED5  00                 	db	0
   847  007ED6  00                 	db	0
   848  007ED7  00                 	db	0
   849  007ED8  00                 	db	0
   850  007ED9  00                 	db	0
   851  007EDA  00                 	db	0
   852  007EDB  00                 	db	0
   853  007EDC  00                 	db	0
   854  007EDD  00                 	db	0
   855  007EDE  00                 	db	0
   856  007EDF  00                 	db	0
   857  007EE0  00                 	db	0
   858  007EE1  00                 	db	0
   859  007EE2  00                 	db	0
   860  007EE3  3F                 	db	63
   861  007EE4  80                 	db	128
   862  007EE5  00                 	db	0
   863  007EE6  C0                 	db	192
   864  007EE7  00                 	db	0
   865  007EE8  7F                 	db	127
   866  007EE9  E0                 	db	224
   867  007EEA  00                 	db	0
   868  007EEB  30                 	db	48
   869  007EEC  00                 	db	0
   870  007EED  1F                 	db	31
   871  007EEE  FF                 	db	255
   872  007EEF  F8                 	db	248
   873  007EF0  03                 	db	3
   874  007EF1  FF                 	db	255
   875  007EF2  F8                 	db	248
   876  007EF3  24                 	db	36
   877  007EF4  80                 	db	128
   878  007EF5  00                 	db	0
   879  007EF6  A0                 	db	160
   880  007EF7  00                 	db	0
   881  007EF8  7F                 	db	127
   882  007EF9  E0                 	db	224
   883  007EFA  00                 	db	0
   884  007EFB  78                 	db	120
   885  007EFC  00                 	db	0
   886  007EFD  1F                 	db	31
   887  007EFE  FF                 	db	255
   888  007EFF  F8                 	db	248
   889  007F00  02                 	db	2
   890  007F01  00                 	db	0
   891  007F02  08                 	db	8
   892  007F03  15                 	db	21
   893  007F04  00                 	db	0
   894  007F05  02                 	db	2
   895  007F06  90                 	db	144
   896  007F07  00                 	db	0
   897  007F08  66                 	db	102
   898  007F09  60                 	db	96
   899  007F0A  60                 	db	96
   900  007F0B  FC                 	db	252
   901  007F0C  00                 	db	0
   902  007F0D  17                 	db	23
   903  007F0E  A3                 	db	163
   904  007F0F  18                 	db	24
   905  007F10  0E                 	db	14
   906  007F11  EE                 	db	238
   907  007F12  E8                 	db	232
   908  007F13  0E                 	db	14
   909  007F14  01                 	db	1
   910  007F15  01                 	db	1
   911  007F16  A0                 	db	160
   912  007F17  00                 	db	0
   913  007F18  66                 	db	102
   914  007F19  60                 	db	96
   915  007F1A  61                 	db	97
   916  007F1B  FE                 	db	254
   917  007F1C  00                 	db	0
   918  007F1D  13                 	db	19
   919  007F1E  2D                 	db	45
   920  007F1F  E8                 	db	232
   921  007F20  08                 	db	8
   922  007F21  EE                 	db	238
   923  007F22  E8                 	db	232
   924  007F23  04                 	db	4
   925  007F24  05                 	db	5
   926  007F25  00                 	db	0
   927  007F26  C0                 	db	192
   928  007F27  00                 	db	0
   929  007F28  66                 	db	102
   930  007F29  60                 	db	96
   931  007F2A  60                 	db	96
   932  007F2B  30                 	db	48
   933  007F2C  00                 	db	0
   934  007F2D  14                 	db	20
   935  007F2E  AD                 	db	173
   936  007F2F  E8                 	db	232
   937  007F30  08                 	db	8
   938  007F31  EE                 	db	238
   939  007F32  E8                 	db	232
   940  007F33  04                 	db	4
   941  007F34  15                 	db	21
   942  007F35  01                 	db	1
   943  007F36  A0                 	db	160
   944  007F37  00                 	db	0
   945  007F38  66                 	db	102
   946  007F39  60                 	db	96
   947  007F3A  60                 	db	96
   948  007F3B  30                 	db	48
   949  007F3C  00                 	db	0
   950  007F3D  17                 	db	23
   951  007F3E  AD                 	db	173
   952  007F3F  98                 	db	152
   953  007F40  08                 	db	8
   954  007F41  EE                 	db	238
   955  007F42  E8                 	db	232
   956  007F43  04                 	db	4
   957  007F44  55                 	db	85
   958  007F45  02                 	db	2
   959  007F46  90                 	db	144
   960  007F47  00                 	db	0
   961  007F48  66                 	db	102
   962  007F49  60                 	db	96
   963  007F4A  60                 	db	96
   964  007F4B  30                 	db	48
   965  007F4C  00                 	db	0
   966  007F4D  17                 	db	23
   967  007F4E  A3                 	db	163
   968  007F4F  E8                 	db	232
   969  007F50  08                 	db	8
   970  007F51  EE                 	db	238
   971  007F52  E8                 	db	232
   972  007F53  05                 	db	5
   973  007F54  55                 	db	85
   974  007F55  00                 	db	0
   975  007F56  A0                 	db	160
   976  007F57  00                 	db	0
   977  007F58  7F                 	db	127
   978  007F59  E0                 	db	224
   979  007F5A  60                 	db	96
   980  007F5B  30                 	db	48
   981  007F5C  00                 	db	0
   982  007F5D  17                 	db	23
   983  007F5E  AF                 	db	175
   984  007F5F  E8                 	db	232
   985  007F60  08                 	db	8
   986  007F61  EE                 	db	238
   987  007F62  E8                 	db	232
   988  007F63  05                 	db	5
   989  007F64  55                 	db	85
   990  007F65  00                 	db	0
   991  007F66  C0                 	db	192
   992  007F67  00                 	db	0
   993  007F68  7F                 	db	127
   994  007F69  E0                 	db	224
   995  007F6A  60                 	db	96
   996  007F6B  30                 	db	48
   997  007F6C  00                 	db	0
   998  007F6D  17                 	db	23
   999  007F6E  AF                 	db	175
  1000  007F6F  18                 	db	24
  1001  007F70  0E                 	db	14
  1002  007F71  EE                 	db	238
  1003  007F72  E8                 	db	232
  1004  007F73  00                 	db	0
  1005  007F74  00                 	db	0
  1006  007F75  00                 	db	0
  1007  007F76  00                 	db	0
  1008  007F77  00                 	db	0
  1009  007F78  00                 	db	0
  1010  007F79  03                 	db	3
  1011  007F7A  FC                 	db	252
  1012  007F7B  30                 	db	48
  1013  007F7C  00                 	db	0
  1014  007F7D  1F                 	db	31
  1015  007F7E  FF                 	db	255
  1016  007F7F  F8                 	db	248
  1017  007F80  02                 	db	2
  1018  007F81  00                 	db	0
  1019  007F82  08                 	db	8
  1020  007F83  00                 	db	0
  1021  007F84  00                 	db	0
  1022  007F85  00                 	db	0
  1023  007F86  00                 	db	0
  1024  007F87  00                 	db	0
  1025  007F88  00                 	db	0
  1026  007F89  01                 	db	1
  1027  007F8A  F8                 	db	248
  1028  007F8B  30                 	db	48
  1029  007F8C  00                 	db	0
  1030  007F8D  1F                 	db	31
  1031  007F8E  FF                 	db	255
  1032  007F8F  F8                 	db	248
  1033  007F90  03                 	db	3
  1034  007F91  FF                 	db	255
  1035  007F92  F8                 	db	248
  1036  007F93  00                 	db	0
  1037  007F94  00                 	db	0
  1038  007F95  00                 	db	0
  1039  007F96  00                 	db	0
  1040  007F97  00                 	db	0
  1041  007F98  00                 	db	0
  1042  007F99  00                 	db	0
  1043  007F9A  F0                 	db	240
  1044  007F9B  00                 	db	0
  1045  007F9C  00                 	db	0
  1046  007F9D  00                 	db	0
  1047  007F9E  00                 	db	0
  1048  007F9F  00                 	db	0
  1049  007FA0  00                 	db	0
  1050  007FA1  00                 	db	0
  1051  007FA2  00                 	db	0
  1052  007FA3  00                 	db	0
  1053  007FA4  00                 	db	0
  1054  007FA5  00                 	db	0
  1055  007FA6  00                 	db	0
  1056  007FA7  00                 	db	0
  1057  007FA8  00                 	db	0
  1058  007FA9  00                 	db	0
  1059  007FAA  60                 	db	96
  1060  007FAB  00                 	db	0
  1061  007FAC  00                 	db	0
  1062  007FAD  00                 	db	0
  1063  007FAE  00                 	db	0
  1064  007FAF  00                 	db	0
  1065  007FB0  00                 	db	0
  1066  007FB1  00                 	db	0
  1067  007FB2  00                 	db	0
  1068  007FB3  00                 	db	0
  1069  007FB4  00                 	db	0
  1070  007FB5  00                 	db	0
  1071  007FB6  00                 	db	0
  1072  007FB7  00                 	db	0
  1073  007FB8  00                 	db	0
  1074  007FB9  00                 	db	0
  1075  007FBA  00                 	db	0
  1076  007FBB  00                 	db	0
  1077  007FBC  00                 	db	0
  1078  007FBD  00                 	db	0
  1079  007FBE  00                 	db	0
  1080  007FBF  00                 	db	0
  1081  007FC0  00                 	db	0
  1082  007FC1  00                 	db	0
  1083  007FC2  00                 	db	0
  1084  007FC3  00                 	db	0
  1085  007FC4  00                 	db	0
  1086  007FC5  00                 	db	0
  1087  007FC6  00                 	db	0
  1088  007FC7  00                 	db	0
  1089  007FC8  00                 	db	0
  1090  007FC9  00                 	db	0
  1091  007FCA  00                 	db	0
  1092  007FCB  00                 	db	0
  1093  007FCC  00                 	db	0
  1094  007FCD  00                 	db	0
  1095  007FCE  00                 	db	0
  1096  007FCF  00                 	db	0
  1097  007FD0  00                 	db	0
  1098  007FD1  00                 	db	0
  1099  007FD2  00                 	db	0
  1100  007FD3  39                 	db	57
  1101  007FD4  80                 	db	128
  1102  007FD5  00                 	db	0
  1103  007FD6  00                 	db	0
  1104  007FD7  00                 	db	0
  1105  007FD8  00                 	db	0
  1106  007FD9  00                 	db	0
  1107  007FDA  00                 	db	0
  1108  007FDB  00                 	db	0
  1109  007FDC  00                 	db	0
  1110  007FDD  00                 	db	0
  1111  007FDE  00                 	db	0
  1112  007FDF  00                 	db	0
  1113  007FE0  00                 	db	0
  1114  007FE1  00                 	db	0
  1115  007FE2  00                 	db	0
  1116  007FE3                     __end_of_picture:
  1117                           	opt stack 0
  1118  0000                     _ANSELA	set	3896
  1119  0000                     _ANSELB	set	3897
  1120  0000                     _ANSELC	set	3898
  1121  0000                     _ANSELD	set	3899
  1122  0000                     _ANSELE	set	3900
  1123  0000                     _ADCON0	set	4034
  1124  0000                     _ADCON0bits	set	4034
  1125  0000                     _ADCON1	set	4033
  1126  0000                     _ADCON2	set	4032
  1127  0000                     _ADRESH	set	4036
  1128  0000                     _ADRESL	set	4035
  1129  0000                     _BAUD1CON	set	4024
  1130  0000                     _INTCON2bits	set	4081
  1131  0000                     _INTCONbits	set	4082
  1132  0000                     _IPR1bits	set	3999
  1133  0000                     _IPR2bits	set	4002
  1134  0000                     _LATA	set	3977
  1135  0000                     _LATB	set	3978
  1136  0000                     _LATC	set	3979
  1137  0000                     _LATCbits	set	3979
  1138  0000                     _LATD	set	3980
  1139  0000                     _LATE	set	3981
  1140  0000                     _OSCCON	set	4051
  1141  0000                     _OSCCON2	set	4050
  1142  0000                     _OSCTUNE	set	3995
  1143  0000                     _PIE1bits	set	3997
  1144  0000                     _PIE2bits	set	4000
  1145  0000                     _PIR1bits	set	3998
  1146  0000                     _PIR2bits	set	4001
  1147  0000                     _PORTAbits	set	3968
  1148  0000                     _PORTBbits	set	3969
  1149  0000                     _PORTDbits	set	3971
  1150  0000                     _PR2	set	4027
  1151  0000                     _RC1STA	set	4011
  1152  0000                     _RC1STAbits	set	4011
  1153  0000                     _RCONbits	set	4048
  1154  0000                     _RCREG1	set	4014
  1155  0000                     _SPBRG1	set	4015
  1156  0000                     _SPBRGH1	set	4016
  1157  0000                     _SSP1ADD	set	4040
  1158  0000                     _SSP1BUF	set	4041
  1159  0000                     _SSP1CON1	set	4038
  1160  0000                     _SSP1CON1bits	set	4038
  1161  0000                     _SSP1CON2bits	set	4037
  1162  0000                     _SSP1CON3	set	4043
  1163  0000                     _SSP1STAT	set	4039
  1164  0000                     _T0CON	set	4053
  1165  0000                     _T0CONbits	set	4053
  1166  0000                     _T2CON	set	4026
  1167  0000                     _T2CONbits	set	4026
  1168  0000                     _TMR0H	set	4055
  1169  0000                     _TMR0L	set	4054
  1170  0000                     _TMR2	set	4028
  1171  0000                     _TRISA	set	3986
  1172  0000                     _TRISAbits	set	3986
  1173  0000                     _TRISB	set	3987
  1174  0000                     _TRISC	set	3988
  1175  0000                     _TRISCbits	set	3988
  1176  0000                     _TRISD	set	3989
  1177  0000                     _TRISE	set	3990
  1178  0000                     _TX1STA	set	4012
  1179  0000                     _TXREG1	set	4013
  1180  0000                     _WPUB	set	3937
  1181  0000                     _LATA3	set	31819
  1182  0000                     _LATA6	set	31822
  1183  0000                     _LATA7	set	31823
  1184  0000                     _LATC1	set	31833
  1185  0000                     _LATE0	set	31848
  1186  0000                     _LATE1	set	31849
  1187  0000                     _LATE2	set	31850
  1188  007FE3                     STR_1:
  1189  007FE3  55                 	db	85	;'U'
  1190  007FE4  6E                 	db	110	;'n'
  1191  007FE5  69                 	db	105	;'i'
  1192  007FE6  76                 	db	118	;'v'
  1193  007FE7  65                 	db	101	;'e'
  1194  007FE8  72                 	db	114	;'r'
  1195  007FE9  73                 	db	115	;'s'
  1196  007FEA  69                 	db	105	;'i'
  1197  007FEB  74                 	db	116	;'t'
  1198  007FEC  79                 	db	121	;'y'
  1199  007FED  00                 	db	0
  1200  007FEE                     STR_4:
  1201  007FEE  5A                 	db	90	;'Z'
  1202  007FEF  49                 	db	73	;'I'
  1203  007FF0  50                 	db	80	;'P'
  1204  007FF1  53                 	db	83	;'S'
  1205  007FF2  2D                 	db	45
  1206  007FF3  45                 	db	69	;'E'
  1207  007FF4  56                 	db	86	;'V'
  1208  007FF5  00                 	db	0
  1209  007FF6                     STR_3:
  1210  007FF6  41                 	db	65	;'A'
  1211  007FF7  6B                 	db	107	;'k'
  1212  007FF8  72                 	db	114	;'r'
  1213  007FF9  6F                 	db	111	;'o'
  1214  007FFA  6E                 	db	110	;'n'
  1215  007FFB  00                 	db	0
  1216  007FFC                     STR_2:
  1217  007FFC  4F                 	db	79	;'O'
  1218  007FFD  46                 	db	70	;'F'
  1219  007FFE  00                 	db	0
  1220  0000                     
  1221                           ; #config settings
  1222  007FFF  00                 	db	0	; dummy byte at the end
  1223  0000                     
  1224                           	psect	cinit
  1225  000982                     __pcinit:
  1226                           	opt stack 0
  1227  000982                     start_initialization:
  1228                           	opt stack 0
  1229  000982                     __initialization:
  1230                           	opt stack 0
  1231                           
  1232                           ; Clear objects allocated to BANK5 (200 bytes)
  1233  000982  EE05  F000         	lfsr	0,__pbssBANK5
  1234  000986  0EC8               	movlw	200
  1235  000988                     clear_0:
  1236  000988  6AEE               	clrf	postinc0,c
  1237  00098A  06E8               	decf	wreg,f,c
  1238  00098C  E1FD               	bnz	clear_0
  1239                           
  1240                           ; Clear objects allocated to BANK4 (206 bytes)
  1241  00098E  EE04  F000         	lfsr	0,__pbssBANK4
  1242  000992  0ECE               	movlw	206
  1243  000994                     clear_1:
  1244  000994  6AEE               	clrf	postinc0,c
  1245  000996  06E8               	decf	wreg,f,c
  1246  000998  E1FD               	bnz	clear_1
  1247                           
  1248                           ; Clear objects allocated to BANK3 (206 bytes)
  1249  00099A  EE03  F000         	lfsr	0,__pbssBANK3
  1250  00099E  0ECE               	movlw	206
  1251  0009A0                     clear_2:
  1252  0009A0  6AEE               	clrf	postinc0,c
  1253  0009A2  06E8               	decf	wreg,f,c
  1254  0009A4  E1FD               	bnz	clear_2
  1255                           
  1256                           ; Clear objects allocated to BANK2 (206 bytes)
  1257  0009A6  EE02  F000         	lfsr	0,__pbssBANK2
  1258  0009AA  0ECE               	movlw	206
  1259  0009AC                     clear_3:
  1260  0009AC  6AEE               	clrf	postinc0,c
  1261  0009AE  06E8               	decf	wreg,f,c
  1262  0009B0  E1FD               	bnz	clear_3
  1263                           
  1264                           ; Clear objects allocated to BANK1 (57 bytes)
  1265  0009B2  EE01  F000         	lfsr	0,__pbssBANK1
  1266  0009B6  0E39               	movlw	57
  1267  0009B8                     clear_4:
  1268  0009B8  6AEE               	clrf	postinc0,c
  1269  0009BA  06E8               	decf	wreg,f,c
  1270  0009BC  E1FD               	bnz	clear_4
  1271                           
  1272                           ; Clear objects allocated to BANK0 (147 bytes)
  1273  0009BE  EE00  F060         	lfsr	0,__pbssBANK0
  1274  0009C2  0E93               	movlw	147
  1275  0009C4                     clear_5:
  1276  0009C4  6AEE               	clrf	postinc0,c
  1277  0009C6  06E8               	decf	wreg,f,c
  1278  0009C8  E1FD               	bnz	clear_5
  1279                           
  1280                           ; Clear objects allocated to COMRAM (27 bytes)
  1281  0009CA  EE00  F029         	lfsr	0,__pbssCOMRAM
  1282  0009CE  0E1B               	movlw	27
  1283  0009D0                     clear_6:
  1284  0009D0  6AEE               	clrf	postinc0,c
  1285  0009D2  06E8               	decf	wreg,f,c
  1286  0009D4  E1FD               	bnz	clear_6
  1287                           
  1288                           ; Initialize objects allocated to COMRAM (1 bytes)
  1289                           ; load TBLPTR registers with __pidataCOMRAM
  1290  0009D6  0E82               	movlw	low __pidataCOMRAM
  1291  0009D8  6EF6               	movwf	tblptrl,c
  1292  0009DA  0E0E               	movlw	high __pidataCOMRAM
  1293  0009DC  6EF7               	movwf	tblptrh,c
  1294  0009DE  0E00               	movlw	low (__pidataCOMRAM shr (0+16))
  1295  0009E0  6EF8               	movwf	tblptru,c
  1296  0009E2  0009               	tblrd		*+	;fetch initializer
  1297  0009E4  CFF5 F044          	movff	tablat,__pdataCOMRAM
  1298  0009E8                     end_of_initialization:
  1299                           	opt stack 0
  1300  0009E8                     __end_of__initialization:
  1301                           	opt stack 0
  1302  0009E8  9045               	bcf	int$flags,0,c	;clear compiler interrupt flag (level 1)
  1303  0009EA  9245               	bcf	int$flags,1,c	;clear compiler interrupt flag (level 2)
  1304  0009EC  0E00               	movlw	low (__Lmediumconst shr (0+16))
  1305  0009EE  6EF8               	movwf	tblptru,c
  1306  0009F0  0100               	movlb	0
  1307  0009F2  EFB4  F005         	goto	_main	;jump to C main() function
  1308                           tblptru	equ	0xFF8
  1309                           tblptrh	equ	0xFF7
  1310                           tblptrl	equ	0xFF6
  1311                           tablat	equ	0xFF5
  1312                           postinc0	equ	0xFEE
  1313                           wreg	equ	0xFE8
  1314                           
  1315                           	psect	bssCOMRAM
  1316  000029                     __pbssCOMRAM:
  1317                           	opt stack 0
  1318  000029                     _i2c1_object:
  1319                           	opt stack 0
  1320  000029                     	ds	7
  1321  000030                     _group:
  1322                           	opt stack 0
  1323  000030                     	ds	2
  1324  000032                     _p_i2c1_current:
  1325                           	opt stack 0
  1326  000032                     	ds	2
  1327  000034                     _p_i2c1_trb_current:
  1328                           	opt stack 0
  1329  000034                     	ds	2
  1330  000036                     _timer0ReloadVal16bit:
  1331                           	opt stack 0
  1332  000036                     	ds	2
  1333  000038                     I2C1_ISR@i2c_10bit_address_restart:
  1334                           	opt stack 0
  1335  000038                     	ds	1
  1336  000039                     _AKNAKsend:
  1337                           	opt stack 0
  1338  000039                     	ds	1
  1339  00003A                     _calc_CS:
  1340                           	opt stack 0
  1341  00003A                     	ds	1
  1342  00003B                     _i2c1_state:
  1343                           	opt stack 0
  1344  00003B                     	ds	1
  1345  00003C                     _maxDataAddress:
  1346                           	opt stack 0
  1347  00003C                     	ds	1
  1348  00003D                     _moduleAddress:
  1349                           	opt stack 0
  1350  00003D                     	ds	1
  1351  00003E                     _returnAddress:
  1352                           	opt stack 0
  1353  00003E                     	ds	1
  1354  00003F                     _rx_address:
  1355                           	opt stack 0
  1356  00003F                     	ds	1
  1357  000040                     _rx_array_inx:
  1358                           	opt stack 0
  1359  000040                     	ds	1
  1360  000041                     _rx_len:
  1361                           	opt stack 0
  1362  000041                     	ds	1
  1363  000042                     I2C1_ISR@i2c_address:
  1364                           	opt stack 0
  1365  000042                     	ds	2
  1366                           tblptru	equ	0xFF8
  1367                           tblptrh	equ	0xFF7
  1368                           tblptrl	equ	0xFF6
  1369                           tablat	equ	0xFF5
  1370                           postinc0	equ	0xFEE
  1371                           wreg	equ	0xFE8
  1372                           
  1373                           	psect	dataCOMRAM
  1374  000044                     __pdataCOMRAM:
  1375                           	opt stack 0
  1376  000044                     _Transmit_stall:
  1377                           	opt stack 0
  1378  000044                     	ds	1
  1379                           tblptru	equ	0xFF8
  1380                           tblptrh	equ	0xFF7
  1381                           tblptrl	equ	0xFF6
  1382                           tablat	equ	0xFF5
  1383                           postinc0	equ	0xFEE
  1384                           wreg	equ	0xFE8
  1385                           
  1386                           	psect	bssBANK0
  1387  000060                     __pbssBANK0:
  1388                           	opt stack 0
  1389  000060                     _displaybuffer:
  1390                           	opt stack 0
  1391  000060                     	ds	40
  1392  000088                     _LED_array:
  1393                           	opt stack 0
  1394  000088                     	ds	16
  1395  000098                     _LEDNUM_ENAB:
  1396                           	opt stack 0
  1397  000098                     	ds	12
  1398  0000A4                     _LEDState:
  1399                           	opt stack 0
  1400  0000A4                     	ds	12
  1401  0000B0                     _butnarray:
  1402                           	opt stack 0
  1403  0000B0                     	ds	8
  1404  0000B8                     I2C1_ISR@i2c_bytes_left:
  1405                           	opt stack 0
  1406  0000B8                     	ds	2
  1407  0000BA                     I2C1_ISR@pi2c_buf_ptr:
  1408                           	opt stack 0
  1409  0000BA                     	ds	2
  1410  0000BC                     _TMR2_InterruptHandler:
  1411                           	opt stack 0
  1412  0000BC                     	ds	2
  1413  0000BE                     _addressErrorCounter:
  1414                           	opt stack 0
  1415  0000BE                     	ds	2
  1416  0000C0                     _alignErrorCounter:
  1417                           	opt stack 0
  1418  0000C0                     	ds	2
  1419  0000C2                     _brake:
  1420                           	opt stack 0
  1421  0000C2                     	ds	2
  1422  0000C4                     _crcErrorCounter:
  1423                           	opt stack 0
  1424  0000C4                     	ds	2
  1425  0000C6                     _dataAdressErrorCounter:
  1426                           	opt stack 0
  1427  0000C6                     	ds	2
  1428  0000C8                     _i:
  1429                           	opt stack 0
  1430  0000C8                     	ds	2
  1431  0000CA                     _i2c1_trb_count:
  1432                           	opt stack 0
  1433  0000CA                     	ds	2
  1434  0000CC                     _k:
  1435                           	opt stack 0
  1436  0000CC                     	ds	2
  1437  0000CE                     _receiveArrayAddress:
  1438                           	opt stack 0
  1439  0000CE                     	ds	2
  1440  0000D0                     _sendStructAddress:
  1441                           	opt stack 0
  1442  0000D0                     	ds	2
  1443  0000D2                     _serial_available:
  1444                           	opt stack 0
  1445  0000D2                     	ds	2
  1446  0000D4                     _serial_peek:
  1447                           	opt stack 0
  1448  0000D4                     	ds	2
  1449  0000D6                     _serial_read:
  1450                           	opt stack 0
  1451  0000D6                     	ds	2
  1452  0000D8                     _serial_write:
  1453                           	opt stack 0
  1454  0000D8                     	ds	2
  1455  0000DA                     _throttle:
  1456                           	opt stack 0
  1457  0000DA                     	ds	2
  1458  0000DC                     _time:
  1459                           	opt stack 0
  1460  0000DC                     	ds	2
  1461  0000DE                     _timeOut:
  1462                           	opt stack 0
  1463  0000DE                     	ds	2
  1464  0000E0                     handleIndicators@oldIndicators:
  1465                           	opt stack 0
  1466  0000E0                     	ds	2
  1467  0000E2                     I2C1_MasterRead@trBlock:
  1468                           	opt stack 0
  1469  0000E2                     	ds	5
  1470  0000E7                     I2C1_MasterWrite@trBlock:
  1471                           	opt stack 0
  1472  0000E7                     	ds	5
  1473  0000EC                     _i2c1_tr_queue:
  1474                           	opt stack 0
  1475  0000EC                     	ds	5
  1476  0000F1                     _Buff:
  1477                           	opt stack 0
  1478  0000F1                     	ds	2
  1479                           tblptru	equ	0xFF8
  1480                           tblptrh	equ	0xFF7
  1481                           tblptrl	equ	0xFF6
  1482                           tablat	equ	0xFF5
  1483                           postinc0	equ	0xFEE
  1484                           wreg	equ	0xFE8
  1485                           
  1486                           	psect	bssBANK1
  1487  000100                     __pbssBANK1:
  1488                           	opt stack 0
  1489  000100                     _receiveArray:
  1490                           	opt stack 0
  1491  000100                     	ds	40
  1492  000128                     _crc_buffer:
  1493                           	opt stack 0
  1494  000128                     	ds	17
  1495                           tblptru	equ	0xFF8
  1496                           tblptrh	equ	0xFF7
  1497                           tblptrl	equ	0xFF6
  1498                           tablat	equ	0xFF5
  1499                           postinc0	equ	0xFEE
  1500                           wreg	equ	0xFE8
  1501                           
  1502                           	psect	bssBANK2
  1503  000200                     __pbssBANK2:
  1504                           	opt stack 0
  1505  000200                     _input_buffer:
  1506                           	opt stack 0
  1507  000200                     	ds	206
  1508                           tblptru	equ	0xFF8
  1509                           tblptrh	equ	0xFF7
  1510                           tblptrl	equ	0xFF6
  1511                           tablat	equ	0xFF5
  1512                           postinc0	equ	0xFEE
  1513                           wreg	equ	0xFE8
  1514                           
  1515                           	psect	bssBANK3
  1516  000300                     __pbssBANK3:
  1517                           	opt stack 0
  1518  000300                     _output_buffer:
  1519                           	opt stack 0
  1520  000300                     	ds	206
  1521                           tblptru	equ	0xFF8
  1522                           tblptrh	equ	0xFF7
  1523                           tblptrl	equ	0xFF6
  1524                           tablat	equ	0xFF5
  1525                           postinc0	equ	0xFEE
  1526                           wreg	equ	0xFE8
  1527                           
  1528                           	psect	bssBANK4
  1529  000400                     __pbssBANK4:
  1530                           	opt stack 0
  1531  000400                     _ring_buffer:
  1532                           	opt stack 0
  1533  000400                     	ds	206
  1534                           tblptru	equ	0xFF8
  1535                           tblptrh	equ	0xFF7
  1536                           tblptrl	equ	0xFF6
  1537                           tablat	equ	0xFF5
  1538                           postinc0	equ	0xFEE
  1539                           wreg	equ	0xFE8
  1540                           
  1541                           	psect	bssBANK5
  1542  000500                     __pbssBANK5:
  1543                           	opt stack 0
  1544  000500                     _rx_buffer:
  1545                           	opt stack 0
  1546  000500                     	ds	200
  1547                           tblptru	equ	0xFF8
  1548                           tblptrh	equ	0xFF7
  1549                           tblptrl	equ	0xFF6
  1550                           tablat	equ	0xFF5
  1551                           postinc0	equ	0xFEE
  1552                           wreg	equ	0xFE8
  1553                           
  1554                           	psect	cstackBANK1
  1555  000139                     __pcstackBANK1:
  1556                           	opt stack 0
  1557  000139                     oledPutChar@bytes:
  1558                           	opt stack 0
  1559                           
  1560                           ; 9 bytes @ 0x0
  1561  000139                     	ds	9
  1562  000142                     oledPutChar@base:
  1563                           	opt stack 0
  1564                           
  1565                           ; 2 bytes @ 0x9
  1566  000142                     	ds	2
  1567  000144                     oledPutChar@ch:
  1568                           	opt stack 0
  1569                           
  1570                           ; 1 bytes @ 0xB
  1571  000144                     	ds	1
  1572  000145                     oledPutChar@status:
  1573                           	opt stack 0
  1574                           
  1575                           ; 1 bytes @ 0xC
  1576  000145                     	ds	1
  1577  000146                     oledClear@row:
  1578                           	opt stack 0
  1579                           
  1580                           ; 2 bytes @ 0xD
  1581  000146                     	ds	2
  1582  000148                     oledClear@col:
  1583                           	opt stack 0
  1584                           
  1585                           ; 2 bytes @ 0xF
  1586  000148                     	ds	2
  1587                           tblptru	equ	0xFF8
  1588                           tblptrh	equ	0xFF7
  1589                           tblptrl	equ	0xFF6
  1590                           tablat	equ	0xFF5
  1591                           postinc0	equ	0xFEE
  1592                           wreg	equ	0xFE8
  1593                           
  1594                           	psect	cstackBANK0
  1595  0000F3                     __pcstackBANK0:
  1596                           	opt stack 0
  1597  0000F3                     I2C1_MasterWrite@pdata:
  1598                           	opt stack 0
  1599                           
  1600                           ; 2 bytes @ 0x0
  1601  0000F3                     	ds	2
  1602  0000F5                     I2C1_MasterWrite@length:
  1603                           	opt stack 0
  1604                           
  1605                           ; 2 bytes @ 0x2
  1606  0000F5                     	ds	2
  1607  0000F7                     I2C1_MasterWrite@address:
  1608                           	opt stack 0
  1609                           
  1610                           ; 2 bytes @ 0x4
  1611  0000F7                     	ds	2
  1612  0000F9                     I2C1_MasterWrite@pflag:
  1613                           	opt stack 0
  1614                           
  1615                           ; 2 bytes @ 0x6
  1616  0000F9                     	ds	2
  1617  0000FB                     ??_oledPutChar:
  1618  0000FB                     oledGotoYX@Row:
  1619                           	opt stack 0
  1620                           
  1621                           ; 1 bytes @ 0x8
  1622  0000FB                     	ds	4
  1623                           tblptru	equ	0xFF8
  1624                           tblptrh	equ	0xFF7
  1625                           tblptrl	equ	0xFF6
  1626                           tablat	equ	0xFF5
  1627                           postinc0	equ	0xFEE
  1628                           wreg	equ	0xFE8
  1629                           
  1630                           	psect	cstackCOMRAM
  1631  000001                     __pcstackCOMRAM:
  1632                           	opt stack 0
  1633  000001                     ??_I2C1_Stop:
  1634  000001                     ?_UART_buff_modulo_inc:
  1635                           	opt stack 0
  1636  000001                     ?_UART_buff_size:
  1637                           	opt stack 0
  1638  000001                     ReadButtonState@btnnum:
  1639                           	opt stack 0
  1640  000001                     UART_buff_size@_this:
  1641                           	opt stack 0
  1642  000001                     UART_buff_modulo_inc@value:
  1643                           	opt stack 0
  1644                           
  1645                           ; 2 bytes @ 0x0
  1646  000001                     	ds	2
  1647  000003                     ??_ReadButtonState:
  1648  000003                     I2C1_Stop@completion_code:
  1649                           	opt stack 0
  1650  000003                     UART_buff_modulo_inc@modulus:
  1651                           	opt stack 0
  1652                           
  1653                           ; 2 bytes @ 0x2
  1654  000003                     	ds	1
  1655  000004                     ??_I2C1_ISR:
  1656                           
  1657                           ; 1 bytes @ 0x3
  1658  000004                     	ds	1
  1659  000005                     TMR0_ISR@x:
  1660                           	opt stack 0
  1661  000005                     UART_buff_modulo_inc@my_value:
  1662                           	opt stack 0
  1663                           
  1664                           ; 2 bytes @ 0x4
  1665  000005                     	ds	2
  1666  000007                     UART_buff_put@_this:
  1667                           	opt stack 0
  1668  000007                     UART_buff_get@_this:
  1669                           	opt stack 0
  1670                           
  1671                           ; 2 bytes @ 0x6
  1672  000007                     	ds	2
  1673  000009                     ??_UART_buff_get:
  1674  000009                     UART_buff_put@c:
  1675                           	opt stack 0
  1676                           
  1677                           ; 1 bytes @ 0x8
  1678  000009                     	ds	1
  1679  00000A                     ??_UART_buff_put:
  1680                           
  1681                           ; 1 bytes @ 0x9
  1682  00000A                     	ds	1
  1683  00000B                     UART_buff_get@c:
  1684                           	opt stack 0
  1685                           
  1686                           ; 1 bytes @ 0xA
  1687  00000B                     	ds	1
  1688  00000C                     EUSART1_Receive_ISR@data:
  1689                           	opt stack 0
  1690                           
  1691                           ; 1 bytes @ 0xB
  1692  00000C                     	ds	1
  1693  00000D                     ??_INTERRUPT_InterruptManager:
  1694                           
  1695                           ; 1 bytes @ 0xC
  1696  00000D                     	ds	14
  1697  00001B                     ?_GetTime:
  1698                           	opt stack 0
  1699  00001B                     I2C1_MasterTRBInsert@count:
  1700                           	opt stack 0
  1701  00001B                     I2C1_MasterWriteTRBBuild@ptrb:
  1702                           	opt stack 0
  1703  00001B                     GetButtonState@btnnum:
  1704                           	opt stack 0
  1705  00001B                     memmove@d1:
  1706                           	opt stack 0
  1707                           
  1708                           ; 2 bytes @ 0x1A
  1709  00001B                     	ds	2
  1710  00001D                     ??_GetButtonState:
  1711  00001D                     I2C1_MasterTRBInsert@ptrb_list:
  1712                           	opt stack 0
  1713  00001D                     I2C1_MasterWriteTRBBuild@pdata:
  1714                           	opt stack 0
  1715  00001D                     memmove@s1:
  1716                           	opt stack 0
  1717                           
  1718                           ; 2 bytes @ 0x1C
  1719  00001D                     	ds	2
  1720  00001F                     I2C1_MasterTRBInsert@pflag:
  1721                           	opt stack 0
  1722  00001F                     I2C1_MasterWriteTRBBuild@length:
  1723                           	opt stack 0
  1724  00001F                     memmove@n:
  1725                           	opt stack 0
  1726                           
  1727                           ; 2 bytes @ 0x1E
  1728  00001F                     	ds	2
  1729  000021                     ??_memmove:
  1730  000021                     I2C1_MasterWriteTRBBuild@address:
  1731                           	opt stack 0
  1732                           
  1733                           ; 2 bytes @ 0x20
  1734  000021                     	ds	2
  1735  000023                     ??_I2C1_MasterWriteTRBBuild:
  1736  000023                     memmove@d:
  1737                           	opt stack 0
  1738                           
  1739                           ; 2 bytes @ 0x22
  1740  000023                     	ds	2
  1741  000025                     OLED_command@com:
  1742                           	opt stack 0
  1743  000025                     memmove@s:
  1744                           	opt stack 0
  1745                           
  1746                           ; 2 bytes @ 0x24
  1747  000025                     	ds	1
  1748  000026                     OLED_command@status:
  1749                           	opt stack 0
  1750                           
  1751                           ; 1 bytes @ 0x25
  1752  000026                     	ds	1
  1753  000027                     oledGotoYX@Column:
  1754                           	opt stack 0
  1755  000027                     oledPrint@s:
  1756                           	opt stack 0
  1757                           
  1758                           ; 2 bytes @ 0x26
  1759  000027                     	ds	1
  1760  000028                     ??_oledGotoYX:
  1761                           
  1762                           ; 1 bytes @ 0x27
  1763  000028                     	ds	1
  1764  000029                     tblptru	equ	0xFF8
  1765                           tblptrh	equ	0xFF7
  1766                           tblptrl	equ	0xFF6
  1767                           tablat	equ	0xFF5
  1768                           postinc0	equ	0xFEE
  1769                           wreg	equ	0xFE8
  1770                           
  1771                           ; 1 bytes @ 0x28
  1772 ;;
  1773 ;;Main: autosize = 0, tempsize = 0, incstack = 0, save=0
  1774 ;;
  1775 ;; *************** function _main *****************
  1776 ;; Defined at:
  1777 ;;		line 36 in file "main.c"
  1778 ;; Parameters:    Size  Location     Type
  1779 ;;		None
  1780 ;; Auto vars:     Size  Location     Type
  1781 ;;		None
  1782 ;; Return value:  Size  Location     Type
  1783 ;;                  1    wreg      void 
  1784 ;; Registers used:
  1785 ;;		wreg, fsr0l, fsr0h, fsr2l, fsr2h, status,2, status,0, tblptrl, tblptrh, tblptru, prodl, prodh, cstack
  1786 ;; Tracked objects:
  1787 ;;		On entry : 0/0
  1788 ;;		On exit  : 0/0
  1789 ;;		Unchanged: 0/0
  1790 ;; Data sizes:     COMRAM   BANK0   BANK1   BANK2   BANK3   BANK4   BANK5
  1791 ;;      Params:         0       0       0       0       0       0       0
  1792 ;;      Locals:         0       0       0       0       0       0       0
  1793 ;;      Temps:          0       0       0       0       0       0       0
  1794 ;;      Totals:         0       0       0       0       0       0       0
  1795 ;;Total ram usage:        0 bytes
  1796 ;; Hardware stack levels required when called:   10
  1797 ;; This function calls:
  1798 ;;		_ClearTime
  1799 ;;		_GetButtonState
  1800 ;;		_GetTime
  1801 ;;		_SYSTEM_Initialize
  1802 ;;		_Setupdisplay
  1803 ;;		_Splash
  1804 ;; This function is called by:
  1805 ;;		Startup code after reset
  1806 ;; This function uses a non-reentrant model
  1807 ;;
  1808                           
  1809                           	psect	text0
  1810  000B68                     __ptext0:
  1811                           	opt stack 0
  1812  000B68                     _main:
  1813                           	opt stack 21
  1814                           
  1815                           ;main.c: 38: SYSTEM_Initialize();
  1816                           
  1817                           ;incstack = 0
  1818  000B68  EC17  F007         	call	_SYSTEM_Initialize	;wreg free
  1819                           
  1820                           ;main.c: 57: (INTCONbits.GIE = 1);
  1821  000B6C  8EF2               	bsf	intcon,7,c	;volatile
  1822                           
  1823                           ;main.c: 60: (INTCONbits.PEIE = 1);
  1824  000B6E  8CF2               	bsf	intcon,6,c	;volatile
  1825                           
  1826                           ;main.c: 70: Setupdisplay();
  1827  000B70  EC36  F007         	call	_Setupdisplay	;wreg free
  1828                           
  1829                           ;main.c: 71: Splash();
  1830  000B74  EC30  F005         	call	_Splash	;wreg free
  1831                           
  1832                           ;main.c: 73: do { LATA3 = 1; } while(0);
  1833  000B78  8689               	bsf	3977,3,c	;volatile
  1834                           
  1835                           ;main.c: 74: LATCbits.LATC5 = 0;
  1836  000B7A  9A8B               	bcf	3979,5,c	;volatile
  1837  000B7C                     l5573:
  1838                           
  1839                           ;main.c: 87: if (GetTime() > 1) {
  1840  000B7C  EC3B  F007         	call	_GetTime	;wreg free
  1841  000B80  BE1C               	btfsc	?_GetTime+1,7,c
  1842  000B82  D00D               	goto	l5577
  1843  000B84  501C               	movf	?_GetTime+1,w,c
  1844  000B86  E104               	bnz	u5540
  1845  000B88  0E02               	movlw	2
  1846  000B8A  5C1B               	subwf	?_GetTime,w,c
  1847  000B8C  A0D8               	btfss	status,0,c
  1848  000B8E  D007               	goto	l5577
  1849  000B90                     u5540:
  1850                           
  1851                           ;main.c: 92: do { LATA3 = ~LATA3; } while(0);
  1852  000B90  B689               	btfsc	3977,3,c	;volatile
  1853  000B92  D002               	goto	u5550
  1854  000B94  8689               	bsf	3977,3,c	;volatile
  1855  000B96  D001               	goto	l5575
  1856  000B98                     u5550:
  1857  000B98  9689               	bcf	3977,3,c	;volatile
  1858  000B9A                     l5575:
  1859                           
  1860                           ;main.c: 94: ClearTime();
  1861  000B9A  EC30  F007         	call	_ClearTime	;wreg free
  1862  000B9E                     l5577:
  1863                           
  1864                           ;main.c: 95: }
  1865                           ;main.c: 123: if(GetButtonState(4) == 0)
  1866  000B9E  0E00               	movlw	0
  1867  000BA0  6E1C               	movwf	GetButtonState@btnnum+1,c
  1868  000BA2  0E04               	movlw	4
  1869  000BA4  6E1B               	movwf	GetButtonState@btnnum,c
  1870  000BA6  ECD5  F006         	call	_GetButtonState	;wreg free
  1871  000BAA  0900               	iorlw	0
  1872  000BAC  A4D8               	btfss	status,2,c
  1873  000BAE  D7E6               	goto	l5573
  1874                           
  1875                           ;main.c: 124: {
  1876                           ;main.c: 125: do { LATA3 = ~LATA3; } while(0);
  1877  000BB0  B689               	btfsc	3977,3,c	;volatile
  1878  000BB2  D002               	goto	u5580
  1879  000BB4  8689               	bsf	3977,3,c	;volatile
  1880  000BB6  D7E2               	goto	l5573
  1881  000BB8                     u5580:
  1882  000BB8  9689               	bcf	3977,3,c	;volatile
  1883  000BBA  D7E0               	goto	l5573
  1884  000BBC                     __end_of_main:
  1885                           	opt stack 0
  1886                           tblptru	equ	0xFF8
  1887                           tblptrh	equ	0xFF7
  1888                           tblptrl	equ	0xFF6
  1889                           tablat	equ	0xFF5
  1890                           intcon	equ	0xFF2
  1891                           postinc0	equ	0xFEE
  1892                           wreg	equ	0xFE8
  1893                           status	equ	0xFD8
  1894                           
  1895 ;; *************** function _Splash *****************
  1896 ;; Defined at:
  1897 ;;		line 35 in file "Display.c"
  1898 ;; Parameters:    Size  Location     Type
  1899 ;;		None
  1900 ;; Auto vars:     Size  Location     Type
  1901 ;;		None
  1902 ;; Return value:  Size  Location     Type
  1903 ;;                  1    wreg      void 
  1904 ;; Registers used:
  1905 ;;		wreg, fsr0l, fsr0h, fsr2l, fsr2h, status,2, status,0, tblptrl, tblptrh, tblptru, prodl, prodh, cstack
  1906 ;; Tracked objects:
  1907 ;;		On entry : 0/0
  1908 ;;		On exit  : 0/0
  1909 ;;		Unchanged: 0/0
  1910 ;; Data sizes:     COMRAM   BANK0   BANK1   BANK2   BANK3   BANK4   BANK5
  1911 ;;      Params:         0       0       0       0       0       0       0
  1912 ;;      Locals:         0       0       0       0       0       0       0
  1913 ;;      Temps:          0       0       0       0       0       0       0
  1914 ;;      Totals:         0       0       0       0       0       0       0
  1915 ;;Total ram usage:        0 bytes
  1916 ;; Hardware stack levels used:    1
  1917 ;; Hardware stack levels required when called:    8
  1918 ;; This function calls:
  1919 ;;		_oledGotoYX
  1920 ;;		_oledPrint
  1921 ;; This function is called by:
  1922 ;;		_main
  1923 ;; This function uses a non-reentrant model
  1924 ;;
  1925                           
  1926                           	psect	text1
  1927  000A60                     __ptext1:
  1928                           	opt stack 0
  1929  000A60                     _Splash:
  1930                           	opt stack 22
  1931                           
  1932                           ;Display.c: 36: oledGotoYX(2,3);
  1933                           
  1934                           ;incstack = 0
  1935  000A60  0E03               	movlw	3
  1936  000A62  6E27               	movwf	oledGotoYX@Column,c
  1937  000A64  0E02               	movlw	2
  1938  000A66  ECFB  F004         	call	_oledGotoYX
  1939                           
  1940                           ;Display.c: 37: oledPrint("University");
  1941  000A6A  0EE3               	movlw	low STR_1
  1942  000A6C  6E27               	movwf	oledPrint@s,c
  1943  000A6E  0E7F               	movlw	high STR_1
  1944  000A70  6E28               	movwf	oledPrint@s+1,c
  1945  000A72  EC08  F006         	call	_oledPrint	;wreg free
  1946                           
  1947                           ;Display.c: 38: oledGotoYX(3,3);
  1948  000A76  0E03               	movlw	3
  1949  000A78  6E27               	movwf	oledGotoYX@Column,c
  1950  000A7A  0E03               	movlw	3
  1951  000A7C  ECFB  F004         	call	_oledGotoYX
  1952                           
  1953                           ;Display.c: 39: oledPrint("OF");
  1954  000A80  0EFC               	movlw	low STR_2
  1955  000A82  6E27               	movwf	oledPrint@s,c
  1956  000A84  0E7F               	movlw	high STR_2
  1957  000A86  6E28               	movwf	oledPrint@s+1,c
  1958  000A88  EC08  F006         	call	_oledPrint	;wreg free
  1959                           
  1960                           ;Display.c: 40: oledGotoYX(4,3);
  1961  000A8C  0E03               	movlw	3
  1962  000A8E  6E27               	movwf	oledGotoYX@Column,c
  1963  000A90  0E04               	movlw	4
  1964  000A92  ECFB  F004         	call	_oledGotoYX
  1965                           
  1966                           ;Display.c: 41: oledPrint("Akron");
  1967  000A96  0EF6               	movlw	low STR_3
  1968  000A98  6E27               	movwf	oledPrint@s,c
  1969  000A9A  0E7F               	movlw	high STR_3
  1970  000A9C  6E28               	movwf	oledPrint@s+1,c
  1971  000A9E  EC08  F006         	call	_oledPrint	;wreg free
  1972                           
  1973                           ;Display.c: 42: oledGotoYX(5,3);
  1974  000AA2  0E03               	movlw	3
  1975  000AA4  6E27               	movwf	oledGotoYX@Column,c
  1976  000AA6  0E05               	movlw	5
  1977  000AA8  ECFB  F004         	call	_oledGotoYX
  1978                           
  1979                           ;Display.c: 43: oledPrint("ZIPS-EV");
  1980  000AAC  0EEE               	movlw	low STR_4
  1981  000AAE  6E27               	movwf	oledPrint@s,c
  1982  000AB0  0E7F               	movlw	high STR_4
  1983  000AB2  6E28               	movwf	oledPrint@s+1,c
  1984  000AB4  EC08  F006         	call	_oledPrint	;wreg free
  1985  000AB8  0012               	return		;funcret
  1986  000ABA                     __end_of_Splash:
  1987                           	opt stack 0
  1988                           tblptru	equ	0xFF8
  1989                           tblptrh	equ	0xFF7
  1990                           tblptrl	equ	0xFF6
  1991                           tablat	equ	0xFF5
  1992                           intcon	equ	0xFF2
  1993                           postinc0	equ	0xFEE
  1994                           wreg	equ	0xFE8
  1995                           status	equ	0xFD8
  1996                           
  1997 ;; *************** function _oledPrint *****************
  1998 ;; Defined at:
  1999 ;;		line 222 in file "OLED_Display.c"
  2000 ;; Parameters:    Size  Location     Type
  2001 ;;  s               2   38[COMRAM] PTR unsigned char 
  2002 ;;		 -> STR_8(8), STR_7(6), STR_6(3), STR_5(11), 
  2003 ;;		 -> STR_4(8), STR_3(6), STR_2(3), STR_1(11), 
  2004 ;;		 -> SetData@s(20), 
  2005 ;; Auto vars:     Size  Location     Type
  2006 ;;		None
  2007 ;; Return value:  Size  Location     Type
  2008 ;;                  1    wreg      void 
  2009 ;; Registers used:
  2010 ;;		wreg, fsr0l, fsr0h, fsr2l, fsr2h, status,2, status,0, tblptrl, tblptrh, tblptru, cstack
  2011 ;; Tracked objects:
  2012 ;;		On entry : 0/0
  2013 ;;		On exit  : 0/0
  2014 ;;		Unchanged: 0/0
  2015 ;; Data sizes:     COMRAM   BANK0   BANK1   BANK2   BANK3   BANK4   BANK5
  2016 ;;      Params:         2       0       0       0       0       0       0
  2017 ;;      Locals:         0       0       0       0       0       0       0
  2018 ;;      Temps:          0       0       0       0       0       0       0
  2019 ;;      Totals:         2       0       0       0       0       0       0
  2020 ;;Total ram usage:        2 bytes
  2021 ;; Hardware stack levels used:    1
  2022 ;; Hardware stack levels required when called:    7
  2023 ;; This function calls:
  2024 ;;		_oledPutChar
  2025 ;; This function is called by:
  2026 ;;		_Splash
  2027 ;;		_SetData
  2028 ;;		_Normal
  2029 ;; This function uses a non-reentrant model
  2030 ;;
  2031                           
  2032                           	psect	text2
  2033  000C10                     __ptext2:
  2034                           	opt stack 0
  2035  000C10                     _oledPrint:
  2036                           	opt stack 22
  2037                           
  2038                           ;OLED_Display.c: 224: while (*s) oledPutChar( *s++);
  2039                           
  2040                           ;incstack = 0
  2041  000C10  D014               	goto	l5321
  2042  000C12                     l5317:
  2043  000C12  C027  FFF6         	movff	oledPrint@s,tblptrl
  2044  000C16  C028  FFF7         	movff	oledPrint@s+1,tblptrh
  2045  000C1A  6AF8               	clrf	tblptru,c
  2046  000C1C  0E05               	movlw	(high __ramtop+-1)
  2047  000C1E  64F7               	cpfsgt	tblptrh,c
  2048  000C20  D003               	bra	u5107
  2049  000C22  0008               	tblrd		*
  2050  000C24  50F5               	movf	tablat,w,c
  2051  000C26  D005               	bra	u5100
  2052  000C28                     u5107:
  2053  000C28  CFF6 FFE9          	movff	tblptrl,fsr0l
  2054  000C2C  CFF7 FFEA          	movff	tblptrh,fsr0h
  2055  000C30  50EF               	movf	indf0,w,c
  2056  000C32                     u5100:
  2057  000C32  ECCF  F002         	call	_oledPutChar
  2058  000C36  4A27               	infsnz	oledPrint@s,f,c
  2059  000C38  2A28               	incf	oledPrint@s+1,f,c
  2060  000C3A                     l5321:
  2061  000C3A  C027  FFF6         	movff	oledPrint@s,tblptrl
  2062  000C3E  C028  FFF7         	movff	oledPrint@s+1,tblptrh
  2063  000C42  6AF8               	clrf	tblptru,c
  2064  000C44  0E05               	movlw	(high __ramtop+-1)
  2065  000C46  64F7               	cpfsgt	tblptrh,c
  2066  000C48  D003               	bra	u5117
  2067  000C4A  0008               	tblrd		*
  2068  000C4C  50F5               	movf	tablat,w,c
  2069  000C4E  D005               	bra	u5110
  2070  000C50                     u5117:
  2071  000C50  CFF6 FFE9          	movff	tblptrl,fsr0l
  2072  000C54  CFF7 FFEA          	movff	tblptrh,fsr0h
  2073  000C58  50EF               	movf	indf0,w,c
  2074  000C5A                     u5110:
  2075  000C5A  0900               	iorlw	0
  2076  000C5C  B4D8               	btfsc	status,2,c
  2077  000C5E  0012               	return	
  2078  000C60  D7D8               	goto	l5317
  2079  000C62                     __end_of_oledPrint:
  2080                           	opt stack 0
  2081                           tblptru	equ	0xFF8
  2082                           tblptrh	equ	0xFF7
  2083                           tblptrl	equ	0xFF6
  2084                           tablat	equ	0xFF5
  2085                           intcon	equ	0xFF2
  2086                           indf0	equ	0xFEF
  2087                           postinc0	equ	0xFEE
  2088                           fsr0h	equ	0xFEA
  2089                           fsr0l	equ	0xFE9
  2090                           wreg	equ	0xFE8
  2091                           status	equ	0xFD8
  2092                           
  2093 ;; *************** function _Setupdisplay *****************
  2094 ;; Defined at:
  2095 ;;		line 30 in file "Display.c"
  2096 ;; Parameters:    Size  Location     Type
  2097 ;;		None
  2098 ;; Auto vars:     Size  Location     Type
  2099 ;;		None
  2100 ;; Return value:  Size  Location     Type
  2101 ;;                  1    wreg      void 
  2102 ;; Registers used:
  2103 ;;		wreg, fsr2l, fsr2h, status,2, status,0, tblptrl, tblptrh, tblptru, prodl, prodh, cstack
  2104 ;; Tracked objects:
  2105 ;;		On entry : 0/0
  2106 ;;		On exit  : 0/0
  2107 ;;		Unchanged: 0/0
  2108 ;; Data sizes:     COMRAM   BANK0   BANK1   BANK2   BANK3   BANK4   BANK5
  2109 ;;      Params:         0       0       0       0       0       0       0
  2110 ;;      Locals:         0       0       0       0       0       0       0
  2111 ;;      Temps:          0       0       0       0       0       0       0
  2112 ;;      Totals:         0       0       0       0       0       0       0
  2113 ;;Total ram usage:        0 bytes
  2114 ;; Hardware stack levels used:    1
  2115 ;; Hardware stack levels required when called:    9
  2116 ;; This function calls:
  2117 ;;		_OLED_init
  2118 ;;		_oledClear
  2119 ;; This function is called by:
  2120 ;;		_main
  2121 ;; This function uses a non-reentrant model
  2122 ;;
  2123                           
  2124                           	psect	text3
  2125  000E6C                     __ptext3:
  2126                           	opt stack 0
  2127  000E6C                     _Setupdisplay:
  2128                           	opt stack 21
  2129                           
  2130                           ;Display.c: 31: OLED_init();
  2131                           
  2132                           ;incstack = 0
  2133  000E6C  EC3D  F004         	call	_OLED_init	;wreg free
  2134                           
  2135                           ;Display.c: 32: oledClear();
  2136  000E70  EC5D  F005         	call	_oledClear	;wreg free
  2137  000E74  0012               	return		;funcret
  2138  000E76                     __end_of_Setupdisplay:
  2139                           	opt stack 0
  2140                           tblptru	equ	0xFF8
  2141                           tblptrh	equ	0xFF7
  2142                           tblptrl	equ	0xFF6
  2143                           tablat	equ	0xFF5
  2144                           intcon	equ	0xFF2
  2145                           indf0	equ	0xFEF
  2146                           postinc0	equ	0xFEE
  2147                           fsr0h	equ	0xFEA
  2148                           fsr0l	equ	0xFE9
  2149                           wreg	equ	0xFE8
  2150                           status	equ	0xFD8
  2151                           
  2152 ;; *************** function _oledClear *****************
  2153 ;; Defined at:
  2154 ;;		line 212 in file "OLED_Display.c"
  2155 ;; Parameters:    Size  Location     Type
  2156 ;;		None
  2157 ;; Auto vars:     Size  Location     Type
  2158 ;;  col             2   15[BANK1 ] unsigned int 
  2159 ;;  row             2   13[BANK1 ] unsigned int 
  2160 ;; Return value:  Size  Location     Type
  2161 ;;                  1    wreg      void 
  2162 ;; Registers used:
  2163 ;;		wreg, fsr2l, fsr2h, status,2, status,0, tblptrl, tblptrh, tblptru, prodl, prodh, cstack
  2164 ;; Tracked objects:
  2165 ;;		On entry : 0/0
  2166 ;;		On exit  : 0/0
  2167 ;;		Unchanged: 0/0
  2168 ;; Data sizes:     COMRAM   BANK0   BANK1   BANK2   BANK3   BANK4   BANK5
  2169 ;;      Params:         0       0       0       0       0       0       0
  2170 ;;      Locals:         0       0       4       0       0       0       0
  2171 ;;      Temps:          0       0       0       0       0       0       0
  2172 ;;      Totals:         0       0       4       0       0       0       0
  2173 ;;Total ram usage:        4 bytes
  2174 ;; Hardware stack levels used:    1
  2175 ;; Hardware stack levels required when called:    8
  2176 ;; This function calls:
  2177 ;;		_oledGotoYX
  2178 ;;		_oledPutChar
  2179 ;; This function is called by:
  2180 ;;		_Setupdisplay
  2181 ;;		_Normal
  2182 ;; This function uses a non-reentrant model
  2183 ;;
  2184                           
  2185                           	psect	text4
  2186  000ABA                     __ptext4:
  2187                           	opt stack 0
  2188  000ABA                     _oledClear:
  2189                           	opt stack 21
  2190                           
  2191                           ;OLED_Display.c: 214: for ( uint16_t row = 0; row < 8; row++ ) {
  2192                           
  2193                           ;incstack = 0
  2194  000ABA  0E00               	movlw	0
  2195  000ABC  0101               	movlb	1	; () banked
  2196  000ABE  6F47               	movwf	(oledClear@row+1)& (0+255),b
  2197  000AC0  0E00               	movlw	0
  2198  000AC2  6F46               	movwf	oledClear@row& (0+255),b
  2199  000AC4                     l5293:
  2200                           
  2201                           ; BSR set to: 1
  2202  000AC4  0101               	movlb	1	; () banked
  2203  000AC6  5147               	movf	(oledClear@row+1)& (0+255),w,b
  2204  000AC8  E123               	bnz	l1233
  2205  000ACA  0E08               	movlw	8
  2206  000ACC  0101               	movlb	1	; () banked
  2207  000ACE  5D46               	subwf	oledClear@row& (0+255),w,b
  2208  000AD0  B0D8               	btfsc	status,0,c
  2209  000AD2  0012               	return	
  2210                           
  2211                           ; BSR set to: 1
  2212                           ;OLED_Display.c: 215: for ( uint16_t col = 0; col < 16; col++ ) {
  2213                           
  2214                           ; BSR set to: 1
  2215                           
  2216                           ; BSR set to: 1
  2217  000AD4  0E00               	movlw	0
  2218  000AD6  0101               	movlb	1	; () banked
  2219  000AD8  6F49               	movwf	(oledClear@col+1)& (0+255),b
  2220  000ADA  0E00               	movlw	0
  2221  000ADC  6F48               	movwf	oledClear@col& (0+255),b
  2222  000ADE                     l5299:
  2223                           
  2224                           ; BSR set to: 1
  2225  000ADE  0101               	movlb	1	; () banked
  2226  000AE0  5149               	movf	(oledClear@col+1)& (0+255),w,b
  2227  000AE2  E112               	bnz	l5311
  2228  000AE4  0E10               	movlw	16
  2229  000AE6  0101               	movlb	1	; () banked
  2230  000AE8  5D48               	subwf	oledClear@col& (0+255),w,b
  2231  000AEA  B0D8               	btfsc	status,0,c
  2232  000AEC  D00D               	goto	l5311
  2233                           
  2234                           ; BSR set to: 1
  2235                           ;OLED_Display.c: 216: oledGotoYX( row, col );
  2236                           
  2237                           ; BSR set to: 1
  2238                           
  2239                           ; BSR set to: 1
  2240  000AEE  C148  F027         	movff	oledClear@col,oledGotoYX@Column
  2241  000AF2  0101               	movlb	1	; () banked
  2242  000AF4  5146               	movf	oledClear@row& (0+255),w,b
  2243  000AF6  ECFB  F004         	call	_oledGotoYX
  2244                           
  2245                           ;OLED_Display.c: 217: oledPutChar( ' ' );
  2246  000AFA  0E20               	movlw	32
  2247  000AFC  ECCF  F002         	call	_oledPutChar
  2248  000B00  0101               	movlb	1	; () banked
  2249  000B02  4B48               	infsnz	oledClear@col& (0+255),f,b
  2250  000B04  2B49               	incf	(oledClear@col+1)& (0+255),f,b
  2251  000B06  D7EB               	goto	l5299
  2252  000B08                     l5311:
  2253                           
  2254                           ; BSR set to: 1
  2255  000B08  0101               	movlb	1	; () banked
  2256  000B0A  4B46               	infsnz	oledClear@row& (0+255),f,b
  2257  000B0C  2B47               	incf	(oledClear@row+1)& (0+255),f,b
  2258  000B0E  D7DA               	goto	l5293
  2259  000B10                     l1233:
  2260                           
  2261                           ; BSR set to: 1
  2262  000B10  0012               	return		;funcret
  2263  000B12                     __end_of_oledClear:
  2264                           	opt stack 0
  2265                           tblptru	equ	0xFF8
  2266                           tblptrh	equ	0xFF7
  2267                           tblptrl	equ	0xFF6
  2268                           tablat	equ	0xFF5
  2269                           intcon	equ	0xFF2
  2270                           indf0	equ	0xFEF
  2271                           postinc0	equ	0xFEE
  2272                           fsr0h	equ	0xFEA
  2273                           fsr0l	equ	0xFE9
  2274                           wreg	equ	0xFE8
  2275                           status	equ	0xFD8
  2276                           
  2277 ;; *************** function _oledPutChar *****************
  2278 ;; Defined at:
  2279 ;;		line 178 in file "OLED_Display.c"
  2280 ;; Parameters:    Size  Location     Type
  2281 ;;  ch              1    wreg     unsigned char 
  2282 ;; Auto vars:     Size  Location     Type
  2283 ;;  ch              1   11[BANK1 ] unsigned char 
  2284 ;;  bytes           9    0[BANK1 ] unsigned char [9]
  2285 ;;  base            2    9[BANK1 ] PTR const unsigned char 
  2286 ;;		 -> OledFont(768), 
  2287 ;;  status          1   12[BANK1 ] enum E8858
  2288 ;; Return value:  Size  Location     Type
  2289 ;;                  1    wreg      void 
  2290 ;; Registers used:
  2291 ;;		wreg, fsr2l, fsr2h, status,2, status,0, tblptrl, tblptrh, tblptru, cstack
  2292 ;; Tracked objects:
  2293 ;;		On entry : 0/0
  2294 ;;		On exit  : 0/0
  2295 ;;		Unchanged: 0/0
  2296 ;; Data sizes:     COMRAM   BANK0   BANK1   BANK2   BANK3   BANK4   BANK5
  2297 ;;      Params:         0       0       0       0       0       0       0
  2298 ;;      Locals:         0       0      13       0       0       0       0
  2299 ;;      Temps:          0       4       0       0       0       0       0
  2300 ;;      Totals:         0       4      13       0       0       0       0
  2301 ;;Total ram usage:       17 bytes
  2302 ;; Hardware stack levels used:    1
  2303 ;; Hardware stack levels required when called:    6
  2304 ;; This function calls:
  2305 ;;		_I2C1_MasterWrite
  2306 ;;		_memmove
  2307 ;; This function is called by:
  2308 ;;		_oledClear
  2309 ;;		_oledPrint
  2310 ;; This function uses a non-reentrant model
  2311 ;;
  2312                           
  2313                           	psect	text5
  2314  00059E                     __ptext5:
  2315                           	opt stack 0
  2316  00059E                     _oledPutChar:
  2317                           	opt stack 22
  2318                           
  2319                           ; BSR set to: 1
  2320                           ;incstack = 0
  2321                           ;oledPutChar@ch stored from wreg
  2322  00059E  0101               	movlb	1	; () banked
  2323  0005A0  6F44               	movwf	oledPutChar@ch& (0+255),b
  2324                           
  2325                           ;OLED_Display.c: 179: if ( ( ch < 32 ) || ( ch > 127 ) )
  2326  0005A2  0E1F               	movlw	31
  2327  0005A4  0101               	movlb	1	; () banked
  2328  0005A6  6544               	cpfsgt	oledPutChar@ch& (0+255),b
  2329  0005A8  D004               	goto	l5241
  2330                           
  2331                           ; BSR set to: 1
  2332  0005AA  0E7F               	movlw	127
  2333  0005AC  0101               	movlb	1	; () banked
  2334  0005AE  6544               	cpfsgt	oledPutChar@ch& (0+255),b
  2335  0005B0  D003               	goto	l5243
  2336  0005B2                     l5241:
  2337                           
  2338                           ; BSR set to: 1
  2339                           ;OLED_Display.c: 180: ch = ' ';
  2340  0005B2  0E20               	movlw	32
  2341  0005B4  0101               	movlb	1	; () banked
  2342  0005B6  6F44               	movwf	oledPutChar@ch& (0+255),b
  2343  0005B8                     l5243:
  2344                           
  2345                           ; BSR set to: 1
  2346                           ;OLED_Display.c: 182: const uint8_t *base = &OledFont[ch - 32][0];
  2347  0005B8  0E00               	movlw	0
  2348  0005BA  0100               	movlb	0	; () banked
  2349  0005BC  6FFB               	movwf	??_oledPutChar& (0+255),b
  2350  0005BE  0EFF               	movlw	255
  2351  0005C0  0100               	movlb	0	; () banked
  2352  0005C2  6FFC               	movwf	(??_oledPutChar+1)& (0+255),b
  2353  0005C4  0101               	movlb	1	; () banked
  2354  0005C6  5144               	movf	oledPutChar@ch& (0+255),w,b
  2355  0005C8  0100               	movlb	0	; () banked
  2356  0005CA  6FFD               	movwf	(??_oledPutChar+2)& (0+255),b
  2357  0005CC  6BFE               	clrf	(??_oledPutChar+3)& (0+255),b
  2358  0005CE  0100               	movlb	0	; () banked
  2359  0005D0  90D8               	bcf	status,0,c
  2360  0005D2  37FD               	rlcf	(??_oledPutChar+2)& (0+255),f,b
  2361  0005D4  37FE               	rlcf	(??_oledPutChar+3)& (0+255),f,b
  2362  0005D6  0100               	movlb	0	; () banked
  2363  0005D8  90D8               	bcf	status,0,c
  2364  0005DA  37FD               	rlcf	(??_oledPutChar+2)& (0+255),f,b
  2365  0005DC  37FE               	rlcf	(??_oledPutChar+3)& (0+255),f,b
  2366  0005DE  0100               	movlb	0	; () banked
  2367  0005E0  90D8               	bcf	status,0,c
  2368  0005E2  37FD               	rlcf	(??_oledPutChar+2)& (0+255),f,b
  2369  0005E4  37FE               	rlcf	(??_oledPutChar+3)& (0+255),f,b
  2370  0005E6  0100               	movlb	0	; () banked
  2371  0005E8  51FB               	movf	??_oledPutChar& (0+255),w,b
  2372  0005EA  0100               	movlb	0	; () banked
  2373  0005EC  27FD               	addwf	(??_oledPutChar+2)& (0+255),f,b
  2374  0005EE  0100               	movlb	0	; () banked
  2375  0005F0  51FC               	movf	(??_oledPutChar+1)& (0+255),w,b
  2376  0005F2  0100               	movlb	0	; () banked
  2377  0005F4  23FE               	addwfc	(??_oledPutChar+3)& (0+255),f,b
  2378  0005F6  0ED3               	movlw	low _OledFont
  2379  0005F8  0100               	movlb	0	; () banked
  2380  0005FA  25FD               	addwf	(??_oledPutChar+2)& (0+255),w,b
  2381  0005FC  0101               	movlb	1	; () banked
  2382  0005FE  6F42               	movwf	oledPutChar@base& (0+255),b
  2383  000600  0E7B               	movlw	high _OledFont
  2384  000602  0100               	movlb	0	; () banked
  2385  000604  21FE               	addwfc	(??_oledPutChar+3)& (0+255),w,b
  2386  000606  0101               	movlb	1	; () banked
  2387  000608  6F43               	movwf	(oledPutChar@base+1)& (0+255),b
  2388                           
  2389                           ; BSR set to: 1
  2390                           ;OLED_Display.c: 184: uint8_t bytes[9];
  2391                           ;OLED_Display.c: 185: bytes[0] = 0x40;
  2392  00060A  0E40               	movlw	64
  2393  00060C  0101               	movlb	1	; () banked
  2394  00060E  6F39               	movwf	oledPutChar@bytes& (0+255),b
  2395                           
  2396                           ; BSR set to: 1
  2397                           ;OLED_Display.c: 186: memmove( bytes + 1, base, 8 );
  2398  000610  0E3A               	movlw	low (oledPutChar@bytes+1)
  2399  000612  6E1B               	movwf	memmove@d1,c
  2400  000614  0E01               	movlw	high (oledPutChar@bytes+1)
  2401  000616  6E1C               	movwf	memmove@d1+1,c
  2402  000618  C142  F01D         	movff	oledPutChar@base,memmove@s1
  2403  00061C  C143  F01E         	movff	oledPutChar@base+1,memmove@s1+1
  2404  000620  0E00               	movlw	0
  2405  000622  6E20               	movwf	memmove@n+1,c
  2406  000624  0E08               	movlw	8
  2407  000626  6E1F               	movwf	memmove@n,c
  2408  000628  EC54  F003         	call	_memmove	;wreg free
  2409                           
  2410                           ;OLED_Display.c: 188: I2C1_MESSAGE_STATUS status = I2C1_MESSAGE_PENDING;
  2411  00062C  0E02               	movlw	2
  2412  00062E  0101               	movlb	1	; () banked
  2413  000630  6F45               	movwf	oledPutChar@status& (0+255),b
  2414                           
  2415                           ; BSR set to: 1
  2416                           ;OLED_Display.c: 190: timeOut = 0;
  2417  000632  0E00               	movlw	0
  2418  000634  0100               	movlb	0	; () banked
  2419  000636  6FDF               	movwf	(_timeOut+1)& (0+255),b
  2420  000638  0E00               	movlw	0
  2421  00063A  6FDE               	movwf	_timeOut& (0+255),b
  2422                           
  2423                           ;OLED_Display.c: 191: while (status != I2C1_MESSAGE_FAIL) {
  2424  00063C  D030               	goto	l5273
  2425  00063E                     l5253:
  2426                           
  2427                           ;OLED_Display.c: 193: I2C1_MasterWrite(bytes,
  2428                           ;OLED_Display.c: 194: 9,
  2429                           ;OLED_Display.c: 195: 0x3C,
  2430                           ;OLED_Display.c: 196: &status);
  2431  00063E  0E39               	movlw	low oledPutChar@bytes
  2432  000640  0100               	movlb	0	; () banked
  2433  000642  6FF3               	movwf	I2C1_MasterWrite@pdata& (0+255),b
  2434  000644  0E01               	movlw	high oledPutChar@bytes
  2435  000646  0100               	movlb	0	; () banked
  2436  000648  6FF4               	movwf	(I2C1_MasterWrite@pdata+1)& (0+255),b
  2437  00064A  0E00               	movlw	0
  2438  00064C  0100               	movlb	0	; () banked
  2439  00064E  6FF6               	movwf	(I2C1_MasterWrite@length+1)& (0+255),b
  2440  000650  0E09               	movlw	9
  2441  000652  6FF5               	movwf	I2C1_MasterWrite@length& (0+255),b
  2442  000654  0E00               	movlw	0
  2443  000656  0100               	movlb	0	; () banked
  2444  000658  6FF8               	movwf	(I2C1_MasterWrite@address+1)& (0+255),b
  2445  00065A  0E3C               	movlw	60
  2446  00065C  6FF7               	movwf	I2C1_MasterWrite@address& (0+255),b
  2447  00065E  0E45               	movlw	low oledPutChar@status
  2448  000660  0100               	movlb	0	; () banked
  2449  000662  6FF9               	movwf	I2C1_MasterWrite@pflag& (0+255),b
  2450  000664  0E01               	movlw	high oledPutChar@status
  2451  000666  0100               	movlb	0	; () banked
  2452  000668  6FFA               	movwf	(I2C1_MasterWrite@pflag+1)& (0+255),b
  2453  00066A  ECDE  F005         	call	_I2C1_MasterWrite	;wreg free
  2454  00066E                     l5255:
  2455  00066E  0E02               	movlw	2
  2456  000670  0101               	movlb	1	; () banked
  2457  000672  1945               	xorwf	oledPutChar@status& (0+255),w,b
  2458  000674  B4D8               	btfsc	status,2,c
  2459  000676  D7FB               	goto	l5255
  2460                           
  2461                           ; BSR set to: 1
  2462                           ;OLED_Display.c: 201: if (status == I2C1_MESSAGE_COMPLETE)
  2463                           
  2464                           ; BSR set to: 1
  2465  000678  0101               	movlb	1	; () banked
  2466  00067A  5145               	movf	oledPutChar@status& (0+255),w,b
  2467  00067C  0101               	movlb	1	; () banked
  2468  00067E  B4D8               	btfsc	status,2,c
  2469  000680  0012               	return	
  2470                           
  2471                           ; BSR set to: 1
  2472                           ;OLED_Display.c: 203: if (timeOut == 100)
  2473                           
  2474                           ; BSR set to: 1
  2475                           
  2476                           ; BSR set to: 1
  2477                           ;OLED_Display.c: 202: break;
  2478  000682  0E64               	movlw	100
  2479  000684  0100               	movlb	0	; () banked
  2480  000686  19DE               	xorwf	_timeOut& (0+255),w,b
  2481  000688  0100               	movlb	0	; () banked
  2482  00068A  11DF               	iorwf	(_timeOut+1)& (0+255),w,b
  2483  00068C  B4D8               	btfsc	status,2,c
  2484  00068E  0012               	return	
  2485                           
  2486                           ; BSR set to: 0
  2487                           ;OLED_Display.c: 205: if (status == I2C1_MESSAGE_FAIL)
  2488                           
  2489                           ; BSR set to: 0
  2490                           
  2491                           ; BSR set to: 0
  2492                           ;OLED_Display.c: 204: break;
  2493  000690  0101               	movlb	1	; () banked
  2494  000692  0545               	decf	oledPutChar@status& (0+255),w,b
  2495  000694  B4D8               	btfsc	status,2,c
  2496  000696  0012               	return	
  2497                           
  2498                           ; BSR set to: 1
  2499                           ;OLED_Display.c: 207: else
  2500                           ;OLED_Display.c: 208: timeOut++;
  2501                           
  2502                           ; BSR set to: 1
  2503                           
  2504                           ; BSR set to: 1
  2505                           
  2506                           ; BSR set to: 1
  2507                           ;OLED_Display.c: 206: break;
  2508  000698  0100               	movlb	0	; () banked
  2509  00069A  4BDE               	infsnz	_timeOut& (0+255),f,b
  2510  00069C  2BDF               	incf	(_timeOut+1)& (0+255),f,b
  2511  00069E                     l5273:
  2512  00069E  0101               	movlb	1	; () banked
  2513  0006A0  0545               	decf	oledPutChar@status& (0+255),w,b
  2514  0006A2  B4D8               	btfsc	status,2,c
  2515  0006A4  0012               	return	
  2516  0006A6  D7CB               	goto	l5253
  2517  0006A8                     __end_of_oledPutChar:
  2518                           	opt stack 0
  2519                           tblptru	equ	0xFF8
  2520                           tblptrh	equ	0xFF7
  2521                           tblptrl	equ	0xFF6
  2522                           tablat	equ	0xFF5
  2523                           intcon	equ	0xFF2
  2524                           indf0	equ	0xFEF
  2525                           postinc0	equ	0xFEE
  2526                           fsr0h	equ	0xFEA
  2527                           fsr0l	equ	0xFE9
  2528                           wreg	equ	0xFE8
  2529                           status	equ	0xFD8
  2530                           
  2531 ;; *************** function _memmove *****************
  2532 ;; Defined at:
  2533 ;;		line 8 in file "C:\Program Files (x86)\Microchip\xc8\v1.36\sources\common\memmove.c"
  2534 ;; Parameters:    Size  Location     Type
  2535 ;;  d1              2   26[COMRAM] PTR void 
  2536 ;;		 -> oledPutChar@bytes(9), 
  2537 ;;  s1              2   28[COMRAM] PTR const void 
  2538 ;;		 -> OledFont(768), 
  2539 ;;  n               2   30[COMRAM] unsigned int 
  2540 ;; Auto vars:     Size  Location     Type
  2541 ;;  s               2   36[COMRAM] PTR const unsigned char 
  2542 ;;		 -> OledFont(768), 
  2543 ;;  d               2   34[COMRAM] PTR unsigned char 
  2544 ;;		 -> oledPutChar@bytes(9), 
  2545 ;; Return value:  Size  Location     Type
  2546 ;;                  2   26[COMRAM] PTR void 
  2547 ;; Registers used:
  2548 ;;		wreg, fsr2l, fsr2h, status,2, status,0, tblptrl, tblptrh, tblptru
  2549 ;; Tracked objects:
  2550 ;;		On entry : 0/0
  2551 ;;		On exit  : 0/0
  2552 ;;		Unchanged: 0/0
  2553 ;; Data sizes:     COMRAM   BANK0   BANK1   BANK2   BANK3   BANK4   BANK5
  2554 ;;      Params:         6       0       0       0       0       0       0
  2555 ;;      Locals:         4       0       0       0       0       0       0
  2556 ;;      Temps:          2       0       0       0       0       0       0
  2557 ;;      Totals:        12       0       0       0       0       0       0
  2558 ;;Total ram usage:       12 bytes
  2559 ;; Hardware stack levels used:    1
  2560 ;; Hardware stack levels required when called:    4
  2561 ;; This function calls:
  2562 ;;		Nothing
  2563 ;; This function is called by:
  2564 ;;		_oledPutChar
  2565 ;; This function uses a non-reentrant model
  2566 ;;
  2567                           
  2568                           	psect	text6
  2569  0006A8                     __ptext6:
  2570                           	opt stack 0
  2571  0006A8                     _memmove:
  2572                           	opt stack 23
  2573                           
  2574                           ;incstack = 0
  2575  0006A8  C01D  F025         	movff	memmove@s1,memmove@s
  2576  0006AC  C01E  F026         	movff	memmove@s1+1,memmove@s+1
  2577  0006B0  C01B  F023         	movff	memmove@d1,memmove@d
  2578  0006B4  C01C  F024         	movff	memmove@d1+1,memmove@d+1
  2579  0006B8  5023               	movf	memmove@d,w,c
  2580  0006BA  5C25               	subwf	memmove@s,w,c
  2581  0006BC  5024               	movf	memmove@d+1,w,c
  2582  0006BE  5826               	subwfb	memmove@s+1,w,c
  2583  0006C0  B0D8               	btfsc	status,0,c
  2584  0006C2  D02D               	goto	l5217
  2585  0006C4  501F               	movf	memmove@n,w,c
  2586  0006C6  2425               	addwf	memmove@s,w,c
  2587  0006C8  6E21               	movwf	??_memmove& (0+255),c
  2588  0006CA  5020               	movf	memmove@n+1,w,c
  2589  0006CC  2026               	addwfc	memmove@s+1,w,c
  2590  0006CE  6E22               	movwf	(??_memmove+1)& (0+255),c
  2591  0006D0  5021               	movf	??_memmove,w,c
  2592  0006D2  5C23               	subwf	memmove@d,w,c
  2593  0006D4  5022               	movf	??_memmove+1,w,c
  2594  0006D6  5824               	subwfb	memmove@d+1,w,c
  2595  0006D8  B0D8               	btfsc	status,0,c
  2596  0006DA  D021               	goto	l5217
  2597  0006DC  501F               	movf	memmove@n,w,c
  2598  0006DE  2625               	addwf	memmove@s,f,c
  2599  0006E0  5020               	movf	memmove@n+1,w,c
  2600  0006E2  2226               	addwfc	memmove@s+1,f,c
  2601  0006E4  501F               	movf	memmove@n,w,c
  2602  0006E6  2623               	addwf	memmove@d,f,c
  2603  0006E8  5020               	movf	memmove@n+1,w,c
  2604  0006EA  2224               	addwfc	memmove@d+1,f,c
  2605  0006EC                     l5213:
  2606  0006EC  0625               	decf	memmove@s,f,c
  2607  0006EE  A0D8               	btfss	status,0,c
  2608  0006F0  0626               	decf	memmove@s+1,f,c
  2609  0006F2  C025  FFF6         	movff	memmove@s,tblptrl
  2610  0006F6  C026  FFF7         	movff	memmove@s+1,tblptrh
  2611  0006FA                     	if	0	;tblptru may be non-zero
  2612  0006FA                     	endif
  2613  0006FA                     	if	0	;tblptru may be non-zero
  2614  0006FA                     	endif
  2615  0006FA  0623               	decf	memmove@d,f,c
  2616  0006FC  A0D8               	btfss	status,0,c
  2617  0006FE  0624               	decf	memmove@d+1,f,c
  2618  000700  C023  FFD9         	movff	memmove@d,fsr2l
  2619  000704  C024  FFDA         	movff	memmove@d+1,fsr2h
  2620  000708  0008               	tblrd		*
  2621  00070A  CFF5 FFDF          	movff	tablat,indf2
  2622  00070E  061F               	decf	memmove@n,f,c
  2623  000710  A0D8               	btfss	status,0,c
  2624  000712  0620               	decf	memmove@n+1,f,c
  2625  000714  501F               	movf	memmove@n,w,c
  2626  000716  1020               	iorwf	memmove@n+1,w,c
  2627  000718  B4D8               	btfsc	status,2,c
  2628  00071A  0012               	return	
  2629  00071C  D7E7               	goto	l5213
  2630  00071E                     l5217:
  2631  00071E  501F               	movf	memmove@n,w,c
  2632  000720  1020               	iorwf	memmove@n+1,w,c
  2633  000722  B4D8               	btfsc	status,2,c
  2634  000724  0012               	return	
  2635  000726  C025  FFF6         	movff	memmove@s,tblptrl
  2636  00072A  C026  FFF7         	movff	memmove@s+1,tblptrh
  2637  00072E                     	if	0	;tblptru may be non-zero
  2638  00072E                     	endif
  2639  00072E                     	if	0	;tblptru may be non-zero
  2640  00072E                     	endif
  2641  00072E  C023  FFD9         	movff	memmove@d,fsr2l
  2642  000732  C024  FFDA         	movff	memmove@d+1,fsr2h
  2643  000736  0008               	tblrd		*
  2644  000738  CFF5 FFDF          	movff	tablat,indf2
  2645  00073C  4A25               	infsnz	memmove@s,f,c
  2646  00073E  2A26               	incf	memmove@s+1,f,c
  2647  000740  4A23               	infsnz	memmove@d,f,c
  2648  000742  2A24               	incf	memmove@d+1,f,c
  2649  000744  061F               	decf	memmove@n,f,c
  2650  000746  A0D8               	btfss	status,0,c
  2651  000748  0620               	decf	memmove@n+1,f,c
  2652  00074A  D7E9               	goto	l5217
  2653  00074C                     __end_of_memmove:
  2654                           	opt stack 0
  2655                           tblptru	equ	0xFF8
  2656                           tblptrh	equ	0xFF7
  2657                           tblptrl	equ	0xFF6
  2658                           tablat	equ	0xFF5
  2659                           intcon	equ	0xFF2
  2660                           indf0	equ	0xFEF
  2661                           postinc0	equ	0xFEE
  2662                           fsr0h	equ	0xFEA
  2663                           fsr0l	equ	0xFE9
  2664                           wreg	equ	0xFE8
  2665                           indf2	equ	0xFDF
  2666                           fsr2h	equ	0xFDA
  2667                           fsr2l	equ	0xFD9
  2668                           status	equ	0xFD8
  2669                           
  2670 ;; *************** function _oledGotoYX *****************
  2671 ;; Defined at:
  2672 ;;		line 39 in file "OLED_Display.c"
  2673 ;; Parameters:    Size  Location     Type
  2674 ;;  Row             1    wreg     unsigned char 
  2675 ;;  Column          1   38[COMRAM] unsigned char 
  2676 ;; Auto vars:     Size  Location     Type
  2677 ;;  Row             1    8[BANK0 ] unsigned char 
  2678 ;; Return value:  Size  Location     Type
  2679 ;;                  1    wreg      void 
  2680 ;; Registers used:
  2681 ;;		wreg, fsr2l, fsr2h, status,2, status,0, prodl, prodh, cstack
  2682 ;; Tracked objects:
  2683 ;;		On entry : 0/0
  2684 ;;		On exit  : 0/0
  2685 ;;		Unchanged: 0/0
  2686 ;; Data sizes:     COMRAM   BANK0   BANK1   BANK2   BANK3   BANK4   BANK5
  2687 ;;      Params:         1       0       0       0       0       0       0
  2688 ;;      Locals:         0       1       0       0       0       0       0
  2689 ;;      Temps:          1       0       0       0       0       0       0
  2690 ;;      Totals:         2       1       0       0       0       0       0
  2691 ;;Total ram usage:        3 bytes
  2692 ;; Hardware stack levels used:    1
  2693 ;; Hardware stack levels required when called:    7
  2694 ;; This function calls:
  2695 ;;		_OLED_command
  2696 ;; This function is called by:
  2697 ;;		_oledClear
  2698 ;;		_Splash
  2699 ;;		_SetData
  2700 ;;		_Normal
  2701 ;; This function uses a non-reentrant model
  2702 ;;
  2703                           
  2704                           	psect	text7
  2705  0009F6                     __ptext7:
  2706                           	opt stack 0
  2707  0009F6                     _oledGotoYX:
  2708                           	opt stack 22
  2709                           
  2710                           ;incstack = 0
  2711                           ;oledGotoYX@Row stored from wreg
  2712  0009F6  0100               	movlb	0	; () banked
  2713  0009F8  6FFB               	movwf	oledGotoYX@Row& (0+255),b
  2714                           
  2715                           ;OLED_Display.c: 41: OLED_command( 0xB0 + Row);
  2716  0009FA  0100               	movlb	0	; () banked
  2717  0009FC  51FB               	movf	oledGotoYX@Row& (0+255),w,b
  2718  0009FE  0FB0               	addlw	176
  2719  000A00  EC83  F004         	call	_OLED_command
  2720                           
  2721                           ;OLED_Display.c: 42: OLED_command( 0xB0 + Row);
  2722  000A04  0100               	movlb	0	; () banked
  2723  000A06  51FB               	movf	oledGotoYX@Row& (0+255),w,b
  2724  000A08  0FB0               	addlw	176
  2725  000A0A  EC83  F004         	call	_OLED_command
  2726                           
  2727                           ;OLED_Display.c: 43: OLED_command( 0x00 + (8*Column & 0x0F) );
  2728  000A0E  5027               	movf	oledGotoYX@Column,w,c
  2729  000A10  0D08               	mullw	8
  2730  000A12  50F3               	movf	prodl,w,c
  2731  000A14  0B0F               	andlw	15
  2732  000A16  EC83  F004         	call	_OLED_command
  2733                           
  2734                           ;OLED_Display.c: 44: OLED_command( 0x00 + (8*Column & 0x0F) );
  2735  000A1A  5027               	movf	oledGotoYX@Column,w,c
  2736  000A1C  0D08               	mullw	8
  2737  000A1E  50F3               	movf	prodl,w,c
  2738  000A20  0B0F               	andlw	15
  2739  000A22  EC83  F004         	call	_OLED_command
  2740                           
  2741                           ;OLED_Display.c: 45: OLED_command( 0x10 + ((8*Column>>4)&0x0F) );
  2742  000A26  5027               	movf	oledGotoYX@Column,w,c
  2743  000A28  0D08               	mullw	8
  2744  000A2A  0E04               	movlw	4
  2745  000A2C  6E28               	movwf	??_oledGotoYX& (0+255),c
  2746  000A2E                     u4955:
  2747  000A2E  34F4               	rlcf	prodh,w,c
  2748  000A30  32F4               	rrcf	prodh,f,c
  2749  000A32  32F3               	rrcf	prodl,f,c
  2750  000A34  2E28               	decfsz	??_oledGotoYX& (0+255),f,c
  2751  000A36  D7FB               	goto	u4955
  2752  000A38  50F3               	movf	prodl,w,c
  2753  000A3A  0B0F               	andlw	15
  2754  000A3C  0F10               	addlw	16
  2755  000A3E  EC83  F004         	call	_OLED_command
  2756                           
  2757                           ;OLED_Display.c: 46: OLED_command( 0x10 + ((8*Column>>4)&0x0F) );
  2758  000A42  5027               	movf	oledGotoYX@Column,w,c
  2759  000A44  0D08               	mullw	8
  2760  000A46  0E04               	movlw	4
  2761  000A48  6E28               	movwf	??_oledGotoYX& (0+255),c
  2762  000A4A                     u4965:
  2763  000A4A  34F4               	rlcf	prodh,w,c
  2764  000A4C  32F4               	rrcf	prodh,f,c
  2765  000A4E  32F3               	rrcf	prodl,f,c
  2766  000A50  2E28               	decfsz	??_oledGotoYX& (0+255),f,c
  2767  000A52  D7FB               	goto	u4965
  2768  000A54  50F3               	movf	prodl,w,c
  2769  000A56  0B0F               	andlw	15
  2770  000A58  0F10               	addlw	16
  2771  000A5A  EC83  F004         	call	_OLED_command
  2772  000A5E  0012               	return		;funcret
  2773  000A60                     __end_of_oledGotoYX:
  2774                           	opt stack 0
  2775                           tblptru	equ	0xFF8
  2776                           tblptrh	equ	0xFF7
  2777                           tblptrl	equ	0xFF6
  2778                           tablat	equ	0xFF5
  2779                           prodh	equ	0xFF4
  2780                           prodl	equ	0xFF3
  2781                           intcon	equ	0xFF2
  2782                           indf0	equ	0xFEF
  2783                           postinc0	equ	0xFEE
  2784                           fsr0h	equ	0xFEA
  2785                           fsr0l	equ	0xFE9
  2786                           wreg	equ	0xFE8
  2787                           indf2	equ	0xFDF
  2788                           fsr2h	equ	0xFDA
  2789                           fsr2l	equ	0xFD9
  2790                           status	equ	0xFD8
  2791                           
  2792 ;; *************** function _OLED_init *****************
  2793 ;; Defined at:
  2794 ;;		line 146 in file "OLED_Display.c"
  2795 ;; Parameters:    Size  Location     Type
  2796 ;;		None
  2797 ;; Auto vars:     Size  Location     Type
  2798 ;;		None
  2799 ;; Return value:  Size  Location     Type
  2800 ;;                  1    wreg      void 
  2801 ;; Registers used:
  2802 ;;		wreg, fsr2l, fsr2h, status,2, status,0, cstack
  2803 ;; Tracked objects:
  2804 ;;		On entry : 0/0
  2805 ;;		On exit  : 0/0
  2806 ;;		Unchanged: 0/0
  2807 ;; Data sizes:     COMRAM   BANK0   BANK1   BANK2   BANK3   BANK4   BANK5
  2808 ;;      Params:         0       0       0       0       0       0       0
  2809 ;;      Locals:         0       0       0       0       0       0       0
  2810 ;;      Temps:          0       0       0       0       0       0       0
  2811 ;;      Totals:         0       0       0       0       0       0       0
  2812 ;;Total ram usage:        0 bytes
  2813 ;; Hardware stack levels used:    1
  2814 ;; Hardware stack levels required when called:    7
  2815 ;; This function calls:
  2816 ;;		_OLED_command
  2817 ;; This function is called by:
  2818 ;;		_Setupdisplay
  2819 ;; This function uses a non-reentrant model
  2820 ;;
  2821                           
  2822                           	psect	text8
  2823  00087A                     __ptext8:
  2824                           	opt stack 0
  2825  00087A                     _OLED_init:
  2826                           	opt stack 22
  2827                           
  2828                           ;OLED_Display.c: 148: OLED_command (0xae);
  2829                           
  2830                           ;incstack = 0
  2831  00087A  0EAE               	movlw	174
  2832  00087C  EC83  F004         	call	_OLED_command
  2833                           
  2834                           ;OLED_Display.c: 149: OLED_command (0xa8);
  2835  000880  0EA8               	movlw	168
  2836  000882  EC83  F004         	call	_OLED_command
  2837                           
  2838                           ;OLED_Display.c: 150: OLED_command (0x3f);
  2839  000886  0E3F               	movlw	63
  2840  000888  EC83  F004         	call	_OLED_command
  2841                           
  2842                           ;OLED_Display.c: 151: OLED_command (0xd3);
  2843  00088C  0ED3               	movlw	211
  2844  00088E  EC83  F004         	call	_OLED_command
  2845                           
  2846                           ;OLED_Display.c: 152: OLED_command (0x00);
  2847  000892  0E00               	movlw	0
  2848  000894  EC83  F004         	call	_OLED_command
  2849                           
  2850                           ;OLED_Display.c: 153: OLED_command (0x40);
  2851  000898  0E40               	movlw	64
  2852  00089A  EC83  F004         	call	_OLED_command
  2853                           
  2854                           ;OLED_Display.c: 155: OLED_command (0xa0);
  2855  00089E  0EA0               	movlw	160
  2856  0008A0  EC83  F004         	call	_OLED_command
  2857                           
  2858                           ;OLED_Display.c: 156: OLED_command (0xa1);
  2859  0008A4  0EA1               	movlw	161
  2860  0008A6  EC83  F004         	call	_OLED_command
  2861                           
  2862                           ;OLED_Display.c: 157: OLED_command (0xc0);
  2863  0008AA  0EC0               	movlw	192
  2864  0008AC  EC83  F004         	call	_OLED_command
  2865                           
  2866                           ;OLED_Display.c: 159: OLED_command (0xc8);
  2867  0008B0  0EC8               	movlw	200
  2868  0008B2  EC83  F004         	call	_OLED_command
  2869                           
  2870                           ;OLED_Display.c: 160: OLED_command (0xda);
  2871  0008B6  0EDA               	movlw	218
  2872  0008B8  EC83  F004         	call	_OLED_command
  2873                           
  2874                           ;OLED_Display.c: 161: OLED_command (0x12);
  2875  0008BC  0E12               	movlw	18
  2876  0008BE  EC83  F004         	call	_OLED_command
  2877                           
  2878                           ;OLED_Display.c: 162: OLED_command (0x81);
  2879  0008C2  0E81               	movlw	129
  2880  0008C4  EC83  F004         	call	_OLED_command
  2881                           
  2882                           ;OLED_Display.c: 163: OLED_command (0xfF);
  2883  0008C8  0EFF               	movlw	255
  2884  0008CA  EC83  F004         	call	_OLED_command
  2885                           
  2886                           ;OLED_Display.c: 164: OLED_command (0xa4);
  2887  0008CE  0EA4               	movlw	164
  2888  0008D0  EC83  F004         	call	_OLED_command
  2889                           
  2890                           ;OLED_Display.c: 165: OLED_command (0xa6);
  2891  0008D4  0EA6               	movlw	166
  2892  0008D6  EC83  F004         	call	_OLED_command
  2893                           
  2894                           ;OLED_Display.c: 166: OLED_command (0xd5);
  2895  0008DA  0ED5               	movlw	213
  2896  0008DC  EC83  F004         	call	_OLED_command
  2897                           
  2898                           ;OLED_Display.c: 167: OLED_command (0x80);
  2899  0008E0  0E80               	movlw	128
  2900  0008E2  EC83  F004         	call	_OLED_command
  2901                           
  2902                           ;OLED_Display.c: 168: OLED_command (0x8d);
  2903  0008E6  0E8D               	movlw	141
  2904  0008E8  EC83  F004         	call	_OLED_command
  2905                           
  2906                           ;OLED_Display.c: 169: OLED_command (0x14);
  2907  0008EC  0E14               	movlw	20
  2908  0008EE  EC83  F004         	call	_OLED_command
  2909                           
  2910                           ;OLED_Display.c: 170: OLED_command (0xAF);
  2911  0008F2  0EAF               	movlw	175
  2912  0008F4  EC83  F004         	call	_OLED_command
  2913                           
  2914                           ;OLED_Display.c: 171: OLED_command (0x20);
  2915  0008F8  0E20               	movlw	32
  2916  0008FA  EC83  F004         	call	_OLED_command
  2917                           
  2918                           ;OLED_Display.c: 172: OLED_command (0x00);
  2919  0008FE  0E00               	movlw	0
  2920  000900  EC83  F004         	call	_OLED_command
  2921  000904  0012               	return		;funcret
  2922  000906                     __end_of_OLED_init:
  2923                           	opt stack 0
  2924                           tblptru	equ	0xFF8
  2925                           tblptrh	equ	0xFF7
  2926                           tblptrl	equ	0xFF6
  2927                           tablat	equ	0xFF5
  2928                           prodh	equ	0xFF4
  2929                           prodl	equ	0xFF3
  2930                           intcon	equ	0xFF2
  2931                           indf0	equ	0xFEF
  2932                           postinc0	equ	0xFEE
  2933                           fsr0h	equ	0xFEA
  2934                           fsr0l	equ	0xFE9
  2935                           wreg	equ	0xFE8
  2936                           indf2	equ	0xFDF
  2937                           fsr2h	equ	0xFDA
  2938                           fsr2l	equ	0xFD9
  2939                           status	equ	0xFD8
  2940                           
  2941 ;; *************** function _OLED_command *****************
  2942 ;; Defined at:
  2943 ;;		line 10 in file "OLED_Display.c"
  2944 ;; Parameters:    Size  Location     Type
  2945 ;;  com             1    wreg     unsigned char 
  2946 ;; Auto vars:     Size  Location     Type
  2947 ;;  com             1   36[COMRAM] unsigned char 
  2948 ;;  status          1   37[COMRAM] enum E8858
  2949 ;; Return value:  Size  Location     Type
  2950 ;;                  1    wreg      void 
  2951 ;; Registers used:
  2952 ;;		wreg, fsr2l, fsr2h, status,2, status,0, cstack
  2953 ;; Tracked objects:
  2954 ;;		On entry : 0/0
  2955 ;;		On exit  : 0/0
  2956 ;;		Unchanged: 0/0
  2957 ;; Data sizes:     COMRAM   BANK0   BANK1   BANK2   BANK3   BANK4   BANK5
  2958 ;;      Params:         0       0       0       0       0       0       0
  2959 ;;      Locals:         2       0       0       0       0       0       0
  2960 ;;      Temps:          0       0       0       0       0       0       0
  2961 ;;      Totals:         2       0       0       0       0       0       0
  2962 ;;Total ram usage:        2 bytes
  2963 ;; Hardware stack levels used:    1
  2964 ;; Hardware stack levels required when called:    6
  2965 ;; This function calls:
  2966 ;;		_I2C1_MasterWrite
  2967 ;; This function is called by:
  2968 ;;		_oledGotoYX
  2969 ;;		_OLED_init
  2970 ;;		_Display
  2971 ;; This function uses a non-reentrant model
  2972 ;;
  2973                           
  2974                           	psect	text9
  2975  000906                     __ptext9:
  2976                           	opt stack 0
  2977  000906                     _OLED_command:
  2978                           	opt stack 22
  2979                           
  2980                           ;incstack = 0
  2981                           ;OLED_command@com stored from wreg
  2982  000906  6E25               	movwf	OLED_command@com,c
  2983                           
  2984                           ;OLED_Display.c: 12: Buff[0] = 0x80;
  2985  000908  0E80               	movlw	128
  2986  00090A  0100               	movlb	0	; () banked
  2987  00090C  6FF1               	movwf	_Buff& (0+255),b
  2988                           
  2989                           ; BSR set to: 0
  2990                           ;OLED_Display.c: 14: Buff[1] = com;
  2991  00090E  C025  F0F2         	movff	OLED_command@com,_Buff+1
  2992                           
  2993                           ; BSR set to: 0
  2994                           ;OLED_Display.c: 15: I2C1_MESSAGE_STATUS status = I2C1_MESSAGE_PENDING;
  2995  000912  0E02               	movlw	2
  2996  000914  6E26               	movwf	OLED_command@status,c
  2997                           
  2998                           ; BSR set to: 0
  2999                           ;OLED_Display.c: 17: timeOut = 0;
  3000  000916  0E00               	movlw	0
  3001  000918  0100               	movlb	0	; () banked
  3002  00091A  6FDF               	movwf	(_timeOut+1)& (0+255),b
  3003  00091C  0E00               	movlw	0
  3004  00091E  6FDE               	movwf	_timeOut& (0+255),b
  3005                           
  3006                           ;OLED_Display.c: 18: while (status != I2C1_MESSAGE_FAIL) {
  3007  000920  D02C               	goto	l5205
  3008  000922                     l5185:
  3009                           
  3010                           ; BSR set to: 0
  3011                           ;OLED_Display.c: 20: I2C1_MasterWrite(Buff,
  3012                           ;OLED_Display.c: 21: 2,
  3013                           ;OLED_Display.c: 22: 0x3C,
  3014                           ;OLED_Display.c: 23: &status);
  3015  000922  0EF1               	movlw	low _Buff
  3016  000924  0100               	movlb	0	; () banked
  3017  000926  6FF3               	movwf	I2C1_MasterWrite@pdata& (0+255),b
  3018  000928  0E00               	movlw	high _Buff
  3019  00092A  0100               	movlb	0	; () banked
  3020  00092C  6FF4               	movwf	(I2C1_MasterWrite@pdata+1)& (0+255),b
  3021  00092E  0E00               	movlw	0
  3022  000930  0100               	movlb	0	; () banked
  3023  000932  6FF6               	movwf	(I2C1_MasterWrite@length+1)& (0+255),b
  3024  000934  0E02               	movlw	2
  3025  000936  6FF5               	movwf	I2C1_MasterWrite@length& (0+255),b
  3026  000938  0E00               	movlw	0
  3027  00093A  0100               	movlb	0	; () banked
  3028  00093C  6FF8               	movwf	(I2C1_MasterWrite@address+1)& (0+255),b
  3029  00093E  0E3C               	movlw	60
  3030  000940  6FF7               	movwf	I2C1_MasterWrite@address& (0+255),b
  3031  000942  0E26               	movlw	low OLED_command@status
  3032  000944  0100               	movlb	0	; () banked
  3033  000946  6FF9               	movwf	I2C1_MasterWrite@pflag& (0+255),b
  3034  000948  0E00               	movlw	high OLED_command@status
  3035  00094A  0100               	movlb	0	; () banked
  3036  00094C  6FFA               	movwf	(I2C1_MasterWrite@pflag+1)& (0+255),b
  3037  00094E  ECDE  F005         	call	_I2C1_MasterWrite	;wreg free
  3038  000952                     l5187:
  3039  000952  0E02               	movlw	2
  3040  000954  1826               	xorwf	OLED_command@status,w,c
  3041  000956  B4D8               	btfsc	status,2,c
  3042  000958  D7FC               	goto	l5187
  3043                           
  3044                           ;OLED_Display.c: 28: if (status == I2C1_MESSAGE_COMPLETE)
  3045  00095A  5026               	movf	OLED_command@status,w,c
  3046  00095C  B4D8               	btfsc	status,2,c
  3047  00095E  0012               	return	
  3048                           
  3049                           ;OLED_Display.c: 30: if (timeOut == 100)
  3050                           
  3051                           ;OLED_Display.c: 29: break;
  3052  000960  0E64               	movlw	100
  3053  000962  0100               	movlb	0	; () banked
  3054  000964  19DE               	xorwf	_timeOut& (0+255),w,b
  3055  000966  0100               	movlb	0	; () banked
  3056  000968  11DF               	iorwf	(_timeOut+1)& (0+255),w,b
  3057  00096A  B4D8               	btfsc	status,2,c
  3058  00096C  0012               	return	
  3059                           
  3060                           ; BSR set to: 0
  3061                           ;OLED_Display.c: 32: if (status == I2C1_MESSAGE_FAIL)
  3062                           
  3063                           ; BSR set to: 0
  3064                           
  3065                           ; BSR set to: 0
  3066                           ;OLED_Display.c: 31: break;
  3067  00096E  0426               	decf	OLED_command@status,w,c
  3068  000970  B4D8               	btfsc	status,2,c
  3069  000972  0012               	return	
  3070                           
  3071                           ; BSR set to: 0
  3072                           ;OLED_Display.c: 34: else
  3073                           ;OLED_Display.c: 35: timeOut++;
  3074                           
  3075                           ; BSR set to: 0
  3076                           
  3077                           ; BSR set to: 0
  3078                           
  3079                           ; BSR set to: 0
  3080                           ;OLED_Display.c: 33: break;
  3081  000974  0100               	movlb	0	; () banked
  3082  000976  4BDE               	infsnz	_timeOut& (0+255),f,b
  3083  000978  2BDF               	incf	(_timeOut+1)& (0+255),f,b
  3084  00097A                     l5205:
  3085                           
  3086                           ; BSR set to: 0
  3087  00097A  0426               	decf	OLED_command@status,w,c
  3088  00097C  B4D8               	btfsc	status,2,c
  3089  00097E  0012               	return	
  3090  000980  D7D0               	goto	l5185
  3091  000982                     __end_of_OLED_command:
  3092                           	opt stack 0
  3093                           tblptru	equ	0xFF8
  3094                           tblptrh	equ	0xFF7
  3095                           tblptrl	equ	0xFF6
  3096                           tablat	equ	0xFF5
  3097                           prodh	equ	0xFF4
  3098                           prodl	equ	0xFF3
  3099                           intcon	equ	0xFF2
  3100                           indf0	equ	0xFEF
  3101                           postinc0	equ	0xFEE
  3102                           fsr0h	equ	0xFEA
  3103                           fsr0l	equ	0xFE9
  3104                           wreg	equ	0xFE8
  3105                           indf2	equ	0xFDF
  3106                           fsr2h	equ	0xFDA
  3107                           fsr2l	equ	0xFD9
  3108                           status	equ	0xFD8
  3109                           
  3110 ;; *************** function _I2C1_MasterWrite *****************
  3111 ;; Defined at:
  3112 ;;		line 551 in file "mcc_generated_files/i2c1.c"
  3113 ;; Parameters:    Size  Location     Type
  3114 ;;  pdata           2    0[BANK0 ] PTR unsigned char 
  3115 ;;		 -> picture(272), oledPutChar@bytes(9), Buff(2), LEDwriteDisplay@writeBuffer(20), 
  3116 ;;		 -> LEDbegin@writeBuffer(3), LEDblinkRate@writeBuffer(2), LEDBsetBrightness@writeBuffer(2), 
  3117 ;;  length          2    2[BANK0 ] int 
  3118 ;;  address         2    4[BANK0 ] unsigned int 
  3119 ;;  pflag           2    6[BANK0 ] PTR enum E8678
  3120 ;;		 -> Display@status(1), oledPutChar@status(1), OLED_command@status(1), LEDwriteDisplay@status(1), 
  3121 ;;		 -> LEDbegin@status(1), LEDblinkRate@status(1), LEDBsetBrightness@status(1), 
  3122 ;; Auto vars:     Size  Location     Type
  3123 ;;		None
  3124 ;; Return value:  Size  Location     Type
  3125 ;;                  1    wreg      void 
  3126 ;; Registers used:
  3127 ;;		wreg, fsr2l, fsr2h, status,2, status,0, cstack
  3128 ;; Tracked objects:
  3129 ;;		On entry : 0/0
  3130 ;;		On exit  : 0/0
  3131 ;;		Unchanged: 0/0
  3132 ;; Data sizes:     COMRAM   BANK0   BANK1   BANK2   BANK3   BANK4   BANK5
  3133 ;;      Params:         0       8       0       0       0       0       0
  3134 ;;      Locals:         0       0       0       0       0       0       0
  3135 ;;      Temps:          0       0       0       0       0       0       0
  3136 ;;      Totals:         0       8       0       0       0       0       0
  3137 ;;Total ram usage:        8 bytes
  3138 ;; Hardware stack levels used:    1
  3139 ;; Hardware stack levels required when called:    5
  3140 ;; This function calls:
  3141 ;;		_I2C1_MasterTRBInsert
  3142 ;;		_I2C1_MasterWriteTRBBuild
  3143 ;; This function is called by:
  3144 ;;		_OLED_command
  3145 ;;		_oledPutChar
  3146 ;;		_LEDBsetBrightness
  3147 ;;		_LEDblinkRate
  3148 ;;		_LEDbegin
  3149 ;;		_LEDwriteDisplay
  3150 ;;		_Display
  3151 ;; This function uses a non-reentrant model
  3152 ;;
  3153                           
  3154                           	psect	text10
  3155  000BBC                     __ptext10:
  3156                           	opt stack 0
  3157  000BBC                     _I2C1_MasterWrite:
  3158                           	opt stack 22
  3159                           
  3160                           ;i2c1.c: 557: static I2C1_TRANSACTION_REQUEST_BLOCK trBlock;
  3161                           ;i2c1.c: 560: if (i2c1_object.trStatus.s.full != 1)
  3162                           
  3163                           ;incstack = 0
  3164  000BBC  B02D               	btfsc	_i2c1_object+4,0,c
  3165  000BBE  D021               	goto	l5175
  3166                           
  3167                           ;i2c1.c: 561: {
  3168                           ;i2c1.c: 562: I2C1_MasterWriteTRBBuild(&trBlock, pdata, length, address);
  3169  000BC0  0EE7               	movlw	low I2C1_MasterWrite@trBlock
  3170  000BC2  6E1B               	movwf	I2C1_MasterWriteTRBBuild@ptrb,c
  3171  000BC4  0E00               	movlw	high I2C1_MasterWrite@trBlock
  3172  000BC6  6E1C               	movwf	I2C1_MasterWriteTRBBuild@ptrb+1,c
  3173  000BC8  C0F3  F01D         	movff	I2C1_MasterWrite@pdata,I2C1_MasterWriteTRBBuild@pdata
  3174  000BCC  C0F4  F01E         	movff	I2C1_MasterWrite@pdata+1,I2C1_MasterWriteTRBBuild@pdata+1
  3175  000BD0  C0F5  F01F         	movff	I2C1_MasterWrite@length,I2C1_MasterWriteTRBBuild@length
  3176  000BD4  C0F6  F020         	movff	I2C1_MasterWrite@length+1,I2C1_MasterWriteTRBBuild@length+1
  3177  000BD8  C0F7  F021         	movff	I2C1_MasterWrite@address,I2C1_MasterWriteTRBBuild@address
  3178  000BDC  C0F8  F022         	movff	I2C1_MasterWrite@address+1,I2C1_MasterWriteTRBBuild@address+1
  3179  000BE0  EC31  F006         	call	_I2C1_MasterWriteTRBBuild	;wreg free
  3180                           
  3181                           ;i2c1.c: 563: I2C1_MasterTRBInsert(1, &trBlock, pflag);
  3182  000BE4  0E00               	movlw	0
  3183  000BE6  6E1C               	movwf	I2C1_MasterTRBInsert@count+1,c
  3184  000BE8  0E01               	movlw	1
  3185  000BEA  6E1B               	movwf	I2C1_MasterTRBInsert@count,c
  3186  000BEC  0EE7               	movlw	low I2C1_MasterWrite@trBlock
  3187  000BEE  6E1D               	movwf	I2C1_MasterTRBInsert@ptrb_list,c
  3188  000BF0  0E00               	movlw	high I2C1_MasterWrite@trBlock
  3189  000BF2  6E1E               	movwf	I2C1_MasterTRBInsert@ptrb_list+1,c
  3190  000BF4  C0F9  F01F         	movff	I2C1_MasterWrite@pflag,I2C1_MasterTRBInsert@pflag
  3191  000BF8  C0FA  F020         	movff	I2C1_MasterWrite@pflag+1,I2C1_MasterTRBInsert@pflag+1
  3192  000BFC  ECA6  F003         	call	_I2C1_MasterTRBInsert	;wreg free
  3193                           
  3194                           ;i2c1.c: 564: }
  3195  000C00  0012               	return	
  3196  000C02                     l5175:
  3197                           
  3198                           ;i2c1.c: 565: else
  3199                           ;i2c1.c: 566: {
  3200                           ;i2c1.c: 567: *pflag = I2C1_MESSAGE_FAIL;
  3201  000C02  C0F9  FFD9         	movff	I2C1_MasterWrite@pflag,fsr2l
  3202  000C06  C0FA  FFDA         	movff	I2C1_MasterWrite@pflag+1,fsr2h
  3203  000C0A  0E01               	movlw	1
  3204  000C0C  6EDF               	movwf	indf2,c
  3205  000C0E  0012               	return	
  3206  000C10                     __end_of_I2C1_MasterWrite:
  3207                           	opt stack 0
  3208                           tblptru	equ	0xFF8
  3209                           tblptrh	equ	0xFF7
  3210                           tblptrl	equ	0xFF6
  3211                           tablat	equ	0xFF5
  3212                           prodh	equ	0xFF4
  3213                           prodl	equ	0xFF3
  3214                           intcon	equ	0xFF2
  3215                           indf0	equ	0xFEF
  3216                           postinc0	equ	0xFEE
  3217                           fsr0h	equ	0xFEA
  3218                           fsr0l	equ	0xFE9
  3219                           wreg	equ	0xFE8
  3220                           indf2	equ	0xFDF
  3221                           fsr2h	equ	0xFDA
  3222                           fsr2l	equ	0xFD9
  3223                           status	equ	0xFD8
  3224                           
  3225 ;; *************** function _I2C1_MasterWriteTRBBuild *****************
  3226 ;; Defined at:
  3227 ;;		line 660 in file "mcc_generated_files/i2c1.c"
  3228 ;; Parameters:    Size  Location     Type
  3229 ;;  ptrb            2   26[COMRAM] PTR struct .
  3230 ;;		 -> I2C1_MasterWrite@trBlock(5), 
  3231 ;;  pdata           2   28[COMRAM] PTR unsigned char 
  3232 ;;		 -> picture(272), oledPutChar@bytes(9), Buff(2), LEDwriteDisplay@writeBuffer(20), 
  3233 ;;		 -> LEDbegin@writeBuffer(3), LEDblinkRate@writeBuffer(2), LEDBsetBrightness@writeBuffer(2), 
  3234 ;;  length          2   30[COMRAM] int 
  3235 ;;  address         2   32[COMRAM] unsigned int 
  3236 ;; Auto vars:     Size  Location     Type
  3237 ;;		None
  3238 ;; Return value:  Size  Location     Type
  3239 ;;                  1    wreg      void 
  3240 ;; Registers used:
  3241 ;;		wreg, fsr2l, fsr2h, status,2, status,0
  3242 ;; Tracked objects:
  3243 ;;		On entry : 0/0
  3244 ;;		On exit  : 0/0
  3245 ;;		Unchanged: 0/0
  3246 ;; Data sizes:     COMRAM   BANK0   BANK1   BANK2   BANK3   BANK4   BANK5
  3247 ;;      Params:         8       0       0       0       0       0       0
  3248 ;;      Locals:         0       0       0       0       0       0       0
  3249 ;;      Temps:          2       0       0       0       0       0       0
  3250 ;;      Totals:        10       0       0       0       0       0       0
  3251 ;;Total ram usage:       10 bytes
  3252 ;; Hardware stack levels used:    1
  3253 ;; Hardware stack levels required when called:    4
  3254 ;; This function calls:
  3255 ;;		Nothing
  3256 ;; This function is called by:
  3257 ;;		_I2C1_MasterWrite
  3258 ;; This function uses a non-reentrant model
  3259 ;;
  3260                           
  3261                           	psect	text11
  3262  000C62                     __ptext11:
  3263                           	opt stack 0
  3264  000C62                     _I2C1_MasterWriteTRBBuild:
  3265                           	opt stack 22
  3266                           
  3267                           ;i2c1.c: 666: ptrb->address = address << 1;
  3268                           
  3269                           ;incstack = 0
  3270  000C62  C021  F023         	movff	I2C1_MasterWriteTRBBuild@address,??_I2C1_MasterWriteTRBBuild
  3271  000C66  C022  F024         	movff	I2C1_MasterWriteTRBBuild@address+1,??_I2C1_MasterWriteTRBBuild+1
  3272  000C6A  90D8               	bcf	status,0,c
  3273  000C6C  3623               	rlcf	??_I2C1_MasterWriteTRBBuild,f,c
  3274  000C6E  3624               	rlcf	??_I2C1_MasterWriteTRBBuild+1,f,c
  3275  000C70  C01B  FFD9         	movff	I2C1_MasterWriteTRBBuild@ptrb,fsr2l
  3276  000C74  C01C  FFDA         	movff	I2C1_MasterWriteTRBBuild@ptrb+1,fsr2h
  3277  000C78  C023  FFDE         	movff	??_I2C1_MasterWriteTRBBuild,postinc2
  3278  000C7C  C024  FFDD         	movff	??_I2C1_MasterWriteTRBBuild+1,postdec2
  3279                           
  3280                           ;i2c1.c: 667: ptrb->length = length;
  3281  000C80  EE20 F002          	lfsr	2,2
  3282  000C84  501B               	movf	I2C1_MasterWriteTRBBuild@ptrb,w,c
  3283  000C86  26D9               	addwf	fsr2l,f,c
  3284  000C88  501C               	movf	I2C1_MasterWriteTRBBuild@ptrb+1,w,c
  3285  000C8A  22DA               	addwfc	fsr2h,f,c
  3286  000C8C  C01F  FFDF         	movff	I2C1_MasterWriteTRBBuild@length,indf2
  3287                           
  3288                           ;i2c1.c: 668: ptrb->pbuffer = pdata;
  3289  000C90  EE20 F003          	lfsr	2,3
  3290  000C94  501B               	movf	I2C1_MasterWriteTRBBuild@ptrb,w,c
  3291  000C96  26D9               	addwf	fsr2l,f,c
  3292  000C98  501C               	movf	I2C1_MasterWriteTRBBuild@ptrb+1,w,c
  3293  000C9A  22DA               	addwfc	fsr2h,f,c
  3294  000C9C  C01D  FFDE         	movff	I2C1_MasterWriteTRBBuild@pdata,postinc2
  3295  000CA0  C01E  FFDD         	movff	I2C1_MasterWriteTRBBuild@pdata+1,postdec2
  3296  000CA4  0012               	return		;funcret
  3297  000CA6                     __end_of_I2C1_MasterWriteTRBBuild:
  3298                           	opt stack 0
  3299                           tblptru	equ	0xFF8
  3300                           tblptrh	equ	0xFF7
  3301                           tblptrl	equ	0xFF6
  3302                           tablat	equ	0xFF5
  3303                           prodh	equ	0xFF4
  3304                           prodl	equ	0xFF3
  3305                           intcon	equ	0xFF2
  3306                           indf0	equ	0xFEF
  3307                           postinc0	equ	0xFEE
  3308                           fsr0h	equ	0xFEA
  3309                           fsr0l	equ	0xFE9
  3310                           wreg	equ	0xFE8
  3311                           indf2	equ	0xFDF
  3312                           postinc2	equ	0xFDE
  3313                           postdec2	equ	0xFDD
  3314                           fsr2h	equ	0xFDA
  3315                           fsr2l	equ	0xFD9
  3316                           status	equ	0xFD8
  3317                           
  3318 ;; *************** function _I2C1_MasterTRBInsert *****************
  3319 ;; Defined at:
  3320 ;;		line 594 in file "mcc_generated_files/i2c1.c"
  3321 ;; Parameters:    Size  Location     Type
  3322 ;;  count           2   26[COMRAM] int 
  3323 ;;  ptrb_list       2   28[COMRAM] PTR struct .
  3324 ;;		 -> I2C1_MasterRead@trBlock(5), I2C1_MasterWrite@trBlock(5), 
  3325 ;;  pflag           2   30[COMRAM] PTR enum E8678
  3326 ;;		 -> Display@status(1), oledPutChar@status(1), OLED_command@status(1), LEDwriteDisplay@status(1), 
  3327 ;;		 -> LEDbegin@status(1), LEDblinkRate@status(1), LEDBsetBrightness@status(1), 
  3328 ;; Auto vars:     Size  Location     Type
  3329 ;;		None
  3330 ;; Return value:  Size  Location     Type
  3331 ;;                  1    wreg      void 
  3332 ;; Registers used:
  3333 ;;		wreg, fsr2l, fsr2h, status,2, status,0
  3334 ;; Tracked objects:
  3335 ;;		On entry : 0/0
  3336 ;;		On exit  : 0/0
  3337 ;;		Unchanged: 0/0
  3338 ;; Data sizes:     COMRAM   BANK0   BANK1   BANK2   BANK3   BANK4   BANK5
  3339 ;;      Params:         6       0       0       0       0       0       0
  3340 ;;      Locals:         0       0       0       0       0       0       0
  3341 ;;      Temps:          1       0       0       0       0       0       0
  3342 ;;      Totals:         7       0       0       0       0       0       0
  3343 ;;Total ram usage:        7 bytes
  3344 ;; Hardware stack levels used:    1
  3345 ;; Hardware stack levels required when called:    4
  3346 ;; This function calls:
  3347 ;;		Nothing
  3348 ;; This function is called by:
  3349 ;;		_I2C1_MasterWrite
  3350 ;;		_I2C1_MasterRead
  3351 ;; This function uses a non-reentrant model
  3352 ;;
  3353                           
  3354                           	psect	text12
  3355  00074C                     __ptext12:
  3356                           	opt stack 0
  3357  00074C                     _I2C1_MasterTRBInsert:
  3358                           	opt stack 22
  3359                           
  3360                           ;i2c1.c: 601: if (i2c1_object.trStatus.s.full != 1)
  3361                           
  3362                           ;incstack = 0
  3363  00074C  B02D               	btfsc	_i2c1_object+4,0,c
  3364  00074E  D039               	goto	l5163
  3365                           
  3366                           ;i2c1.c: 602: {
  3367                           ;i2c1.c: 603: *pflag = I2C1_MESSAGE_PENDING;
  3368  000750  C01F  FFD9         	movff	I2C1_MasterTRBInsert@pflag,fsr2l
  3369  000754  C020  FFDA         	movff	I2C1_MasterTRBInsert@pflag+1,fsr2h
  3370  000758  0E02               	movlw	2
  3371  00075A  6EDF               	movwf	indf2,c
  3372                           
  3373                           ;i2c1.c: 605: i2c1_object.pTrTail->ptrb_list = ptrb_list;
  3374  00075C  EE20 F001          	lfsr	2,1
  3375  000760  5029               	movf	_i2c1_object,w,c
  3376  000762  26D9               	addwf	fsr2l,f,c
  3377  000764  502A               	movf	_i2c1_object+1,w,c
  3378  000766  22DA               	addwfc	fsr2h,f,c
  3379  000768  C01D  FFDE         	movff	I2C1_MasterTRBInsert@ptrb_list,postinc2
  3380  00076C  C01E  FFDD         	movff	I2C1_MasterTRBInsert@ptrb_list+1,postdec2
  3381                           
  3382                           ;i2c1.c: 606: i2c1_object.pTrTail->count = count;
  3383  000770  C029  FFD9         	movff	_i2c1_object,fsr2l
  3384  000774  C02A  FFDA         	movff	_i2c1_object+1,fsr2h
  3385  000778  C01B  FFDF         	movff	I2C1_MasterTRBInsert@count,indf2
  3386                           
  3387                           ;i2c1.c: 607: i2c1_object.pTrTail->pTrFlag = pflag;
  3388  00077C  EE20 F003          	lfsr	2,3
  3389  000780  5029               	movf	_i2c1_object,w,c
  3390  000782  26D9               	addwf	fsr2l,f,c
  3391  000784  502A               	movf	_i2c1_object+1,w,c
  3392  000786  22DA               	addwfc	fsr2h,f,c
  3393  000788  C01F  FFDE         	movff	I2C1_MasterTRBInsert@pflag,postinc2
  3394  00078C  C020  FFDD         	movff	I2C1_MasterTRBInsert@pflag+1,postdec2
  3395                           
  3396                           ;i2c1.c: 608: i2c1_object.pTrTail++;
  3397  000790  0E05               	movlw	5
  3398  000792  2629               	addwf	_i2c1_object,f,c
  3399  000794  0E00               	movlw	0
  3400  000796  222A               	addwfc	_i2c1_object+1,f,c
  3401                           
  3402                           ;i2c1.c: 611: if (i2c1_object.pTrTail == (i2c1_tr_queue + 1))
  3403  000798  0EF1               	movlw	low (_i2c1_tr_queue+5)
  3404  00079A  1829               	xorwf	_i2c1_object,w,c
  3405  00079C  E108               	bnz	l5159
  3406  00079E  0E00               	movlw	high (_i2c1_tr_queue+5)
  3407  0007A0  182A               	xorwf	_i2c1_object+1,w,c
  3408  0007A2  A4D8               	btfss	status,2,c
  3409  0007A4  D004               	goto	l5159
  3410                           
  3411                           ;i2c1.c: 612: {
  3412                           ;i2c1.c: 614: i2c1_object.pTrTail = i2c1_tr_queue;
  3413  0007A6  0EEC               	movlw	low _i2c1_tr_queue
  3414  0007A8  6E29               	movwf	_i2c1_object,c
  3415  0007AA  0E00               	movlw	high _i2c1_tr_queue
  3416  0007AC  6E2A               	movwf	_i2c1_object+1,c
  3417  0007AE                     l5159:
  3418                           
  3419                           ;i2c1.c: 615: }
  3420                           ;i2c1.c: 619: i2c1_object.trStatus.s.empty = 0;
  3421  0007AE  922D               	bcf	_i2c1_object+4,1,c
  3422                           
  3423                           ;i2c1.c: 622: if (i2c1_object.pTrHead == i2c1_object.pTrTail)
  3424  0007B0  5029               	movf	_i2c1_object,w,c
  3425  0007B2  182B               	xorwf	_i2c1_object+2,w,c
  3426  0007B4  E10C               	bnz	l5165
  3427  0007B6  502A               	movf	_i2c1_object+1,w,c
  3428  0007B8  182C               	xorwf	_i2c1_object+3,w,c
  3429  0007BA  A4D8               	btfss	status,2,c
  3430  0007BC  D008               	goto	l5165
  3431                           
  3432                           ;i2c1.c: 623: {
  3433                           ;i2c1.c: 625: i2c1_object.trStatus.s.full = 1;
  3434  0007BE  802D               	bsf	_i2c1_object+4,0,c
  3435                           
  3436                           ;i2c1.c: 626: }
  3437                           ;i2c1.c: 628: }
  3438  0007C0  D006               	goto	l5165
  3439  0007C2                     l5163:
  3440                           
  3441                           ;i2c1.c: 629: else
  3442                           ;i2c1.c: 630: {
  3443                           ;i2c1.c: 631: *pflag = I2C1_MESSAGE_FAIL;
  3444  0007C2  C01F  FFD9         	movff	I2C1_MasterTRBInsert@pflag,fsr2l
  3445  0007C6  C020  FFDA         	movff	I2C1_MasterTRBInsert@pflag+1,fsr2h
  3446  0007CA  0E01               	movlw	1
  3447  0007CC  6EDF               	movwf	indf2,c
  3448  0007CE                     l5165:
  3449                           
  3450                           ;i2c1.c: 632: }
  3451                           ;i2c1.c: 635: if (*pflag == I2C1_MESSAGE_PENDING)
  3452  0007CE  C01F  FFD9         	movff	I2C1_MasterTRBInsert@pflag,fsr2l
  3453  0007D2  C020  FFDA         	movff	I2C1_MasterTRBInsert@pflag+1,fsr2h
  3454  0007D6  0E02               	movlw	2
  3455  0007D8  18DE               	xorwf	postinc2,w,c
  3456  0007DA  A4D8               	btfss	status,2,c
  3457  0007DC  0012               	return	
  3458  0007DE                     l5169:
  3459  0007DE  503B               	movf	_i2c1_state,w,c
  3460  0007E0  A4D8               	btfss	status,2,c
  3461  0007E2  D7FD               	goto	l5169
  3462                           
  3463                           ;i2c1.c: 638: {
  3464                           ;i2c1.c: 641: PIR1bits.SSP1IF = 1;
  3465  0007E4  869E               	bsf	3998,3,c	;volatile
  3466  0007E6  0012               	return	
  3467  0007E8                     __end_of_I2C1_MasterTRBInsert:
  3468                           	opt stack 0
  3469                           tblptru	equ	0xFF8
  3470                           tblptrh	equ	0xFF7
  3471                           tblptrl	equ	0xFF6
  3472                           tablat	equ	0xFF5
  3473                           prodh	equ	0xFF4
  3474                           prodl	equ	0xFF3
  3475                           intcon	equ	0xFF2
  3476                           indf0	equ	0xFEF
  3477                           postinc0	equ	0xFEE
  3478                           fsr0h	equ	0xFEA
  3479                           fsr0l	equ	0xFE9
  3480                           wreg	equ	0xFE8
  3481                           indf2	equ	0xFDF
  3482                           postinc2	equ	0xFDE
  3483                           postdec2	equ	0xFDD
  3484                           fsr2h	equ	0xFDA
  3485                           fsr2l	equ	0xFD9
  3486                           status	equ	0xFD8
  3487                           
  3488 ;; *************** function _SYSTEM_Initialize *****************
  3489 ;; Defined at:
  3490 ;;		line 112 in file "mcc_generated_files/mcc.c"
  3491 ;; Parameters:    Size  Location     Type
  3492 ;;		None
  3493 ;; Auto vars:     Size  Location     Type
  3494 ;;		None
  3495 ;; Return value:  Size  Location     Type
  3496 ;;                  1    wreg      void 
  3497 ;; Registers used:
  3498 ;;		wreg, status,2, status,0, cstack
  3499 ;; Tracked objects:
  3500 ;;		On entry : 0/0
  3501 ;;		On exit  : 0/0
  3502 ;;		Unchanged: 0/0
  3503 ;; Data sizes:     COMRAM   BANK0   BANK1   BANK2   BANK3   BANK4   BANK5
  3504 ;;      Params:         0       0       0       0       0       0       0
  3505 ;;      Locals:         0       0       0       0       0       0       0
  3506 ;;      Temps:          0       0       0       0       0       0       0
  3507 ;;      Totals:         0       0       0       0       0       0       0
  3508 ;;Total ram usage:        0 bytes
  3509 ;; Hardware stack levels used:    1
  3510 ;; Hardware stack levels required when called:    5
  3511 ;; This function calls:
  3512 ;;		_I2C1_Initialize
  3513 ;;		_INTERRUPT_Initialize
  3514 ;;		_OSCILLATOR_Initialize
  3515 ;;		_PIN_MANAGER_Initialize
  3516 ;; This function is called by:
  3517 ;;		_main
  3518 ;; This function uses a non-reentrant model
  3519 ;;
  3520                           
  3521                           	psect	text13
  3522  000E2E                     __ptext13:
  3523                           	opt stack 0
  3524  000E2E                     _SYSTEM_Initialize:
  3525                           	opt stack 25
  3526                           
  3527                           ;mcc.c: 114: OSCILLATOR_Initialize();
  3528                           
  3529                           ;incstack = 0
  3530  000E2E  EC29  F007         	call	_OSCILLATOR_Initialize	;wreg free
  3531                           
  3532                           ;mcc.c: 115: PIN_MANAGER_Initialize();
  3533  000E32  EC89  F005         	call	_PIN_MANAGER_Initialize	;wreg free
  3534                           
  3535                           ;mcc.c: 116: INTERRUPT_Initialize();
  3536  000E36  EC20  F007         	call	_INTERRUPT_Initialize	;wreg free
  3537                           
  3538                           ;mcc.c: 122: I2C1_Initialize();
  3539  000E3A  ECA9  F006         	call	_I2C1_Initialize	;wreg free
  3540  000E3E  0012               	return		;funcret
  3541  000E40                     __end_of_SYSTEM_Initialize:
  3542                           	opt stack 0
  3543                           tblptru	equ	0xFF8
  3544                           tblptrh	equ	0xFF7
  3545                           tblptrl	equ	0xFF6
  3546                           tablat	equ	0xFF5
  3547                           prodh	equ	0xFF4
  3548                           prodl	equ	0xFF3
  3549                           intcon	equ	0xFF2
  3550                           indf0	equ	0xFEF
  3551                           postinc0	equ	0xFEE
  3552                           fsr0h	equ	0xFEA
  3553                           fsr0l	equ	0xFE9
  3554                           wreg	equ	0xFE8
  3555                           indf2	equ	0xFDF
  3556                           postinc2	equ	0xFDE
  3557                           postdec2	equ	0xFDD
  3558                           fsr2h	equ	0xFDA
  3559                           fsr2l	equ	0xFD9
  3560                           status	equ	0xFD8
  3561                           
  3562 ;; *************** function _PIN_MANAGER_Initialize *****************
  3563 ;; Defined at:
  3564 ;;		line 50 in file "mcc_generated_files/pin_manager.c"
  3565 ;; Parameters:    Size  Location     Type
  3566 ;;		None
  3567 ;; Auto vars:     Size  Location     Type
  3568 ;;		None
  3569 ;; Return value:  Size  Location     Type
  3570 ;;                  1    wreg      void 
  3571 ;; Registers used:
  3572 ;;		wreg, status,2
  3573 ;; Tracked objects:
  3574 ;;		On entry : 0/0
  3575 ;;		On exit  : 0/0
  3576 ;;		Unchanged: 0/0
  3577 ;; Data sizes:     COMRAM   BANK0   BANK1   BANK2   BANK3   BANK4   BANK5
  3578 ;;      Params:         0       0       0       0       0       0       0
  3579 ;;      Locals:         0       0       0       0       0       0       0
  3580 ;;      Temps:          0       0       0       0       0       0       0
  3581 ;;      Totals:         0       0       0       0       0       0       0
  3582 ;;Total ram usage:        0 bytes
  3583 ;; Hardware stack levels used:    1
  3584 ;; Hardware stack levels required when called:    4
  3585 ;; This function calls:
  3586 ;;		Nothing
  3587 ;; This function is called by:
  3588 ;;		_SYSTEM_Initialize
  3589 ;; This function uses a non-reentrant model
  3590 ;;
  3591                           
  3592                           	psect	text14
  3593  000B12                     __ptext14:
  3594                           	opt stack 0
  3595  000B12                     _PIN_MANAGER_Initialize:
  3596                           	opt stack 25
  3597                           
  3598                           ;pin_manager.c: 52: LATA = 0x00;
  3599                           
  3600                           ;incstack = 0
  3601  000B12  0E00               	movlw	0
  3602  000B14  6E89               	movwf	3977,c	;volatile
  3603                           
  3604                           ;pin_manager.c: 53: TRISA = 0xF7;
  3605  000B16  0EF7               	movlw	247
  3606  000B18  6E92               	movwf	3986,c	;volatile
  3607                           
  3608                           ;pin_manager.c: 54: ANSELA = 0x20;
  3609  000B1A  0E20               	movlw	32
  3610  000B1C  010F               	movlb	15	; () banked
  3611  000B1E  6F38               	movwf	56,b	;volatile
  3612                           
  3613                           ;pin_manager.c: 56: LATB = 0x00;
  3614  000B20  0E00               	movlw	0
  3615  000B22  6E8A               	movwf	3978,c	;volatile
  3616                           
  3617                           ;pin_manager.c: 57: TRISB = 0xD7;
  3618  000B24  0ED7               	movlw	215
  3619  000B26  6E93               	movwf	3987,c	;volatile
  3620                           
  3621                           ;pin_manager.c: 58: ANSELB = 0x00;
  3622  000B28  0E00               	movlw	0
  3623  000B2A  010F               	movlb	15	; () banked
  3624  000B2C  6F39               	movwf	57,b	;volatile
  3625                           
  3626                           ;pin_manager.c: 59: WPUB = 0x00;
  3627  000B2E  0E00               	movlw	0
  3628  000B30  6E61               	movwf	3937,c	;volatile
  3629                           
  3630                           ;pin_manager.c: 61: LATC = 0x18;
  3631  000B32  0E18               	movlw	24
  3632  000B34  6E8B               	movwf	3979,c	;volatile
  3633                           
  3634                           ;pin_manager.c: 62: TRISC = 0xDF;
  3635  000B36  0EDF               	movlw	223
  3636  000B38  6E94               	movwf	3988,c	;volatile
  3637                           
  3638                           ;pin_manager.c: 65: LATD = 0x00;
  3639  000B3A  0E00               	movlw	0
  3640  000B3C  6E8C               	movwf	3980,c	;volatile
  3641                           
  3642                           ;pin_manager.c: 66: TRISD = 0xFD;
  3643  000B3E  0EFD               	movlw	253
  3644  000B40  6E95               	movwf	3989,c	;volatile
  3645                           
  3646                           ;pin_manager.c: 67: ANSELD = 0xDD;
  3647  000B42  0EDD               	movlw	221
  3648  000B44  010F               	movlb	15	; () banked
  3649  000B46  6F3B               	movwf	59,b	;volatile
  3650                           
  3651                           ;pin_manager.c: 69: LATE = 0x00;
  3652  000B48  0E00               	movlw	0
  3653  000B4A  6E8D               	movwf	3981,c	;volatile
  3654                           
  3655                           ;pin_manager.c: 70: TRISE = 0x00;
  3656  000B4C  0E00               	movlw	0
  3657  000B4E  6E96               	movwf	3990,c	;volatile
  3658                           
  3659                           ;pin_manager.c: 71: ANSELE = 0x00;
  3660  000B50  0E00               	movlw	0
  3661  000B52  010F               	movlb	15	; () banked
  3662  000B54  6F3C               	movwf	60,b	;volatile
  3663                           
  3664                           ;pin_manager.c: 73: ANSELC = 0xE4;
  3665  000B56  0EE4               	movlw	228
  3666  000B58  010F               	movlb	15	; () banked
  3667  000B5A  6F3A               	movwf	58,b	;volatile
  3668                           
  3669                           ; BSR set to: 15
  3670                           ;pin_manager.c: 77: TRISCbits.TRISC5=0;
  3671  000B5C  9A94               	bcf	3988,5,c	;volatile
  3672                           
  3673                           ; BSR set to: 15
  3674                           ;pin_manager.c: 78: INTCON2bits.nRBPU = 0x01;
  3675  000B5E  8EF1               	bsf	intcon2,7,c	;volatile
  3676                           
  3677                           ; BSR set to: 15
  3678                           ;pin_manager.c: 81: LATCbits.LATC5 = 0;
  3679  000B60  9A8B               	bcf	3979,5,c	;volatile
  3680                           
  3681                           ; BSR set to: 15
  3682                           ;pin_manager.c: 82: TRISCbits.RC1 = 0;
  3683  000B62  9294               	bcf	3988,1,c	;volatile
  3684                           
  3685                           ; BSR set to: 15
  3686                           ;pin_manager.c: 83: TRISAbits.RA6 = 0;
  3687  000B64  9C92               	bcf	3986,6,c	;volatile
  3688                           
  3689                           ; BSR set to: 15
  3690  000B66  0012               	return		;funcret
  3691  000B68                     __end_of_PIN_MANAGER_Initialize:
  3692                           	opt stack 0
  3693                           tblptru	equ	0xFF8
  3694                           tblptrh	equ	0xFF7
  3695                           tblptrl	equ	0xFF6
  3696                           tablat	equ	0xFF5
  3697                           prodh	equ	0xFF4
  3698                           prodl	equ	0xFF3
  3699                           intcon	equ	0xFF2
  3700                           intcon2	equ	0xFF1
  3701                           indf0	equ	0xFEF
  3702                           postinc0	equ	0xFEE
  3703                           fsr0h	equ	0xFEA
  3704                           fsr0l	equ	0xFE9
  3705                           wreg	equ	0xFE8
  3706                           indf2	equ	0xFDF
  3707                           postinc2	equ	0xFDE
  3708                           postdec2	equ	0xFDD
  3709                           fsr2h	equ	0xFDA
  3710                           fsr2l	equ	0xFD9
  3711                           status	equ	0xFD8
  3712                           
  3713 ;; *************** function _OSCILLATOR_Initialize *****************
  3714 ;; Defined at:
  3715 ;;		line 125 in file "mcc_generated_files/mcc.c"
  3716 ;; Parameters:    Size  Location     Type
  3717 ;;		None
  3718 ;; Auto vars:     Size  Location     Type
  3719 ;;		None
  3720 ;; Return value:  Size  Location     Type
  3721 ;;                  1    wreg      void 
  3722 ;; Registers used:
  3723 ;;		wreg, status,2
  3724 ;; Tracked objects:
  3725 ;;		On entry : 0/0
  3726 ;;		On exit  : 0/0
  3727 ;;		Unchanged: 0/0
  3728 ;; Data sizes:     COMRAM   BANK0   BANK1   BANK2   BANK3   BANK4   BANK5
  3729 ;;      Params:         0       0       0       0       0       0       0
  3730 ;;      Locals:         0       0       0       0       0       0       0
  3731 ;;      Temps:          0       0       0       0       0       0       0
  3732 ;;      Totals:         0       0       0       0       0       0       0
  3733 ;;Total ram usage:        0 bytes
  3734 ;; Hardware stack levels used:    1
  3735 ;; Hardware stack levels required when called:    4
  3736 ;; This function calls:
  3737 ;;		Nothing
  3738 ;; This function is called by:
  3739 ;;		_SYSTEM_Initialize
  3740 ;; This function uses a non-reentrant model
  3741 ;;
  3742                           
  3743                           	psect	text15
  3744  000E52                     __ptext15:
  3745                           	opt stack 0
  3746  000E52                     _OSCILLATOR_Initialize:
  3747                           	opt stack 25
  3748                           
  3749                           ;mcc.c: 128: OSCCON = 0x72;
  3750                           
  3751                           ; BSR set to: 15
  3752                           ;incstack = 0
  3753  000E52  0E72               	movlw	114
  3754  000E54  6ED3               	movwf	4051,c	;volatile
  3755                           
  3756                           ;mcc.c: 130: OSCCON2 = 0x04;
  3757  000E56  0E04               	movlw	4
  3758  000E58  6ED2               	movwf	4050,c	;volatile
  3759                           
  3760                           ;mcc.c: 132: OSCTUNE = 0x00;
  3761  000E5A  0E00               	movlw	0
  3762  000E5C  6E9B               	movwf	3995,c	;volatile
  3763  000E5E  0012               	return		;funcret
  3764  000E60                     __end_of_OSCILLATOR_Initialize:
  3765                           	opt stack 0
  3766                           tblptru	equ	0xFF8
  3767                           tblptrh	equ	0xFF7
  3768                           tblptrl	equ	0xFF6
  3769                           tablat	equ	0xFF5
  3770                           prodh	equ	0xFF4
  3771                           prodl	equ	0xFF3
  3772                           intcon	equ	0xFF2
  3773                           intcon2	equ	0xFF1
  3774                           indf0	equ	0xFEF
  3775                           postinc0	equ	0xFEE
  3776                           fsr0h	equ	0xFEA
  3777                           fsr0l	equ	0xFE9
  3778                           wreg	equ	0xFE8
  3779                           indf2	equ	0xFDF
  3780                           postinc2	equ	0xFDE
  3781                           postdec2	equ	0xFDD
  3782                           fsr2h	equ	0xFDA
  3783                           fsr2l	equ	0xFD9
  3784                           status	equ	0xFD8
  3785                           
  3786 ;; *************** function _INTERRUPT_Initialize *****************
  3787 ;; Defined at:
  3788 ;;		line 5 in file "mcc_generated_files/interrupt_manager.c"
  3789 ;; Parameters:    Size  Location     Type
  3790 ;;		None
  3791 ;; Auto vars:     Size  Location     Type
  3792 ;;		None
  3793 ;; Return value:  Size  Location     Type
  3794 ;;                  1    wreg      void 
  3795 ;; Registers used:
  3796 ;;		None
  3797 ;; Tracked objects:
  3798 ;;		On entry : 0/0
  3799 ;;		On exit  : 0/0
  3800 ;;		Unchanged: 0/0
  3801 ;; Data sizes:     COMRAM   BANK0   BANK1   BANK2   BANK3   BANK4   BANK5
  3802 ;;      Params:         0       0       0       0       0       0       0
  3803 ;;      Locals:         0       0       0       0       0       0       0
  3804 ;;      Temps:          0       0       0       0       0       0       0
  3805 ;;      Totals:         0       0       0       0       0       0       0
  3806 ;;Total ram usage:        0 bytes
  3807 ;; Hardware stack levels used:    1
  3808 ;; Hardware stack levels required when called:    4
  3809 ;; This function calls:
  3810 ;;		Nothing
  3811 ;; This function is called by:
  3812 ;;		_SYSTEM_Initialize
  3813 ;; This function uses a non-reentrant model
  3814 ;;
  3815                           
  3816                           	psect	text16
  3817  000E40                     __ptext16:
  3818                           	opt stack 0
  3819  000E40                     _INTERRUPT_Initialize:
  3820                           	opt stack 25
  3821                           
  3822                           ;interrupt_manager.c: 8: RCONbits.IPEN = 0;
  3823                           
  3824                           ;incstack = 0
  3825  000E40  9ED0               	bcf	4048,7,c	;volatile
  3826                           
  3827                           ;interrupt_manager.c: 13: IPR1bits.RC1IP = 0;
  3828  000E42  9A9F               	bcf	3999,5,c	;volatile
  3829                           
  3830                           ;interrupt_manager.c: 15: IPR1bits.TX1IP = 0;
  3831  000E44  989F               	bcf	3999,4,c	;volatile
  3832                           
  3833                           ;interrupt_manager.c: 17: INTCON2bits.TMR0IP = 0;
  3834  000E46  94F1               	bcf	intcon2,2,c	;volatile
  3835                           
  3836                           ;interrupt_manager.c: 19: IPR1bits.ADIP = 0;
  3837  000E48  9C9F               	bcf	3999,6,c	;volatile
  3838                           
  3839                           ;interrupt_manager.c: 21: IPR1bits.SSP1IP = 0;
  3840  000E4A  969F               	bcf	3999,3,c	;volatile
  3841                           
  3842                           ;interrupt_manager.c: 23: IPR2bits.BCL1IP = 0;
  3843  000E4C  96A2               	bcf	4002,3,c	;volatile
  3844                           
  3845                           ;interrupt_manager.c: 24: IPR1bits.TMR2IP=0;
  3846  000E4E  929F               	bcf	3999,1,c	;volatile
  3847  000E50  0012               	return		;funcret
  3848  000E52                     __end_of_INTERRUPT_Initialize:
  3849                           	opt stack 0
  3850                           tblptru	equ	0xFF8
  3851                           tblptrh	equ	0xFF7
  3852                           tblptrl	equ	0xFF6
  3853                           tablat	equ	0xFF5
  3854                           prodh	equ	0xFF4
  3855                           prodl	equ	0xFF3
  3856                           intcon	equ	0xFF2
  3857                           intcon2	equ	0xFF1
  3858                           indf0	equ	0xFEF
  3859                           postinc0	equ	0xFEE
  3860                           fsr0h	equ	0xFEA
  3861                           fsr0l	equ	0xFE9
  3862                           wreg	equ	0xFE8
  3863                           indf2	equ	0xFDF
  3864                           postinc2	equ	0xFDE
  3865                           postdec2	equ	0xFDD
  3866                           fsr2h	equ	0xFDA
  3867                           fsr2l	equ	0xFD9
  3868                           status	equ	0xFD8
  3869                           
  3870 ;; *************** function _I2C1_Initialize *****************
  3871 ;; Defined at:
  3872 ;;		line 151 in file "mcc_generated_files/i2c1.c"
  3873 ;; Parameters:    Size  Location     Type
  3874 ;;		None
  3875 ;; Auto vars:     Size  Location     Type
  3876 ;;		None
  3877 ;; Return value:  Size  Location     Type
  3878 ;;                  1    wreg      void 
  3879 ;; Registers used:
  3880 ;;		wreg, status,2, status,0
  3881 ;; Tracked objects:
  3882 ;;		On entry : 0/0
  3883 ;;		On exit  : 0/0
  3884 ;;		Unchanged: 0/0
  3885 ;; Data sizes:     COMRAM   BANK0   BANK1   BANK2   BANK3   BANK4   BANK5
  3886 ;;      Params:         0       0       0       0       0       0       0
  3887 ;;      Locals:         0       0       0       0       0       0       0
  3888 ;;      Temps:          0       0       0       0       0       0       0
  3889 ;;      Totals:         0       0       0       0       0       0       0
  3890 ;;Total ram usage:        0 bytes
  3891 ;; Hardware stack levels used:    1
  3892 ;; Hardware stack levels required when called:    4
  3893 ;; This function calls:
  3894 ;;		Nothing
  3895 ;; This function is called by:
  3896 ;;		_SYSTEM_Initialize
  3897 ;; This function uses a non-reentrant model
  3898 ;;
  3899                           
  3900                           	psect	text17
  3901  000D52                     __ptext17:
  3902                           	opt stack 0
  3903  000D52                     _I2C1_Initialize:
  3904                           	opt stack 25
  3905                           
  3906                           ;i2c1.c: 153: i2c1_object.pTrHead = i2c1_tr_queue;
  3907                           
  3908                           ;incstack = 0
  3909  000D52  0EEC               	movlw	low _i2c1_tr_queue
  3910  000D54  6E2B               	movwf	_i2c1_object+2,c
  3911  000D56  0E00               	movlw	high _i2c1_tr_queue
  3912  000D58  6E2C               	movwf	_i2c1_object+3,c
  3913                           
  3914                           ;i2c1.c: 154: i2c1_object.pTrTail = i2c1_tr_queue;
  3915  000D5A  0EEC               	movlw	low _i2c1_tr_queue
  3916  000D5C  6E29               	movwf	_i2c1_object,c
  3917  000D5E  0E00               	movlw	high _i2c1_tr_queue
  3918  000D60  6E2A               	movwf	_i2c1_object+1,c
  3919                           
  3920                           ;i2c1.c: 155: i2c1_object.trStatus.s.empty = 1;
  3921  000D62  822D               	bsf	_i2c1_object+4,1,c
  3922                           
  3923                           ;i2c1.c: 156: i2c1_object.trStatus.s.full = 0;
  3924  000D64  902D               	bcf	_i2c1_object+4,0,c
  3925                           
  3926                           ;i2c1.c: 158: i2c1_object.i2cErrors = 0;
  3927  000D66  0E00               	movlw	0
  3928  000D68  6E2F               	movwf	_i2c1_object+6,c
  3929                           
  3930                           ;i2c1.c: 161: SSP1STAT = 0x80;
  3931  000D6A  0E80               	movlw	128
  3932  000D6C  6EC7               	movwf	4039,c	;volatile
  3933                           
  3934                           ;i2c1.c: 163: SSP1CON1 = 0x28;
  3935  000D6E  0E28               	movlw	40
  3936  000D70  6EC6               	movwf	4038,c	;volatile
  3937                           
  3938                           ;i2c1.c: 165: SSP1CON3 = 0x00;
  3939  000D72  0E00               	movlw	0
  3940  000D74  6ECB               	movwf	4043,c	;volatile
  3941                           
  3942                           ;i2c1.c: 167: SSP1ADD = 0x03;
  3943  000D76  0E03               	movlw	3
  3944  000D78  6EC8               	movwf	4040,c	;volatile
  3945                           
  3946                           ;i2c1.c: 171: PIR1bits.SSP1IF = 0;
  3947  000D7A  969E               	bcf	3998,3,c	;volatile
  3948                           
  3949                           ;i2c1.c: 173: PIE1bits.SSP1IE = 1;
  3950  000D7C  869D               	bsf	3997,3,c	;volatile
  3951  000D7E  0012               	return		;funcret
  3952  000D80                     __end_of_I2C1_Initialize:
  3953                           	opt stack 0
  3954                           tblptru	equ	0xFF8
  3955                           tblptrh	equ	0xFF7
  3956                           tblptrl	equ	0xFF6
  3957                           tablat	equ	0xFF5
  3958                           prodh	equ	0xFF4
  3959                           prodl	equ	0xFF3
  3960                           intcon	equ	0xFF2
  3961                           intcon2	equ	0xFF1
  3962                           indf0	equ	0xFEF
  3963                           postinc0	equ	0xFEE
  3964                           fsr0h	equ	0xFEA
  3965                           fsr0l	equ	0xFE9
  3966                           wreg	equ	0xFE8
  3967                           indf2	equ	0xFDF
  3968                           postinc2	equ	0xFDE
  3969                           postdec2	equ	0xFDD
  3970                           fsr2h	equ	0xFDA
  3971                           fsr2l	equ	0xFD9
  3972                           status	equ	0xFD8
  3973                           
  3974 ;; *************** function _GetTime *****************
  3975 ;; Defined at:
  3976 ;;		line 97 in file "tmr0.c"
  3977 ;; Parameters:    Size  Location     Type
  3978 ;;		None
  3979 ;; Auto vars:     Size  Location     Type
  3980 ;;		None
  3981 ;; Return value:  Size  Location     Type
  3982 ;;                  2   26[COMRAM] int 
  3983 ;; Registers used:
  3984 ;;		None
  3985 ;; Tracked objects:
  3986 ;;		On entry : 0/0
  3987 ;;		On exit  : 0/0
  3988 ;;		Unchanged: 0/0
  3989 ;; Data sizes:     COMRAM   BANK0   BANK1   BANK2   BANK3   BANK4   BANK5
  3990 ;;      Params:         2       0       0       0       0       0       0
  3991 ;;      Locals:         0       0       0       0       0       0       0
  3992 ;;      Temps:          0       0       0       0       0       0       0
  3993 ;;      Totals:         2       0       0       0       0       0       0
  3994 ;;Total ram usage:        2 bytes
  3995 ;; Hardware stack levels used:    1
  3996 ;; Hardware stack levels required when called:    4
  3997 ;; This function calls:
  3998 ;;		Nothing
  3999 ;; This function is called by:
  4000 ;;		_main
  4001 ;; This function uses a non-reentrant model
  4002 ;;
  4003                           
  4004                           	psect	text18
  4005  000E76                     __ptext18:
  4006                           	opt stack 0
  4007  000E76                     _GetTime:
  4008                           	opt stack 26
  4009                           
  4010                           ;tmr0.c: 98: return time;
  4011                           
  4012                           ;incstack = 0
  4013  000E76  C0DC  F01B         	movff	_time,?_GetTime
  4014  000E7A  C0DD  F01C         	movff	_time+1,?_GetTime+1
  4015  000E7E  0012               	return		;funcret
  4016  000E80                     __end_of_GetTime:
  4017                           	opt stack 0
  4018                           tblptru	equ	0xFF8
  4019                           tblptrh	equ	0xFF7
  4020                           tblptrl	equ	0xFF6
  4021                           tablat	equ	0xFF5
  4022                           prodh	equ	0xFF4
  4023                           prodl	equ	0xFF3
  4024                           intcon	equ	0xFF2
  4025                           intcon2	equ	0xFF1
  4026                           indf0	equ	0xFEF
  4027                           postinc0	equ	0xFEE
  4028                           fsr0h	equ	0xFEA
  4029                           fsr0l	equ	0xFE9
  4030                           wreg	equ	0xFE8
  4031                           indf2	equ	0xFDF
  4032                           postinc2	equ	0xFDE
  4033                           postdec2	equ	0xFDD
  4034                           fsr2h	equ	0xFDA
  4035                           fsr2l	equ	0xFD9
  4036                           status	equ	0xFD8
  4037                           
  4038 ;; *************** function _GetButtonState *****************
  4039 ;; Defined at:
  4040 ;;		line 184 in file "IO.c"
  4041 ;; Parameters:    Size  Location     Type
  4042 ;;  btnnum          2   26[COMRAM] int 
  4043 ;; Auto vars:     Size  Location     Type
  4044 ;;		None
  4045 ;; Return value:  Size  Location     Type
  4046 ;;                  1    wreg      unsigned char 
  4047 ;; Registers used:
  4048 ;;		wreg, fsr2l, fsr2h, status,2, status,0
  4049 ;; Tracked objects:
  4050 ;;		On entry : 0/0
  4051 ;;		On exit  : 0/0
  4052 ;;		Unchanged: 0/0
  4053 ;; Data sizes:     COMRAM   BANK0   BANK1   BANK2   BANK3   BANK4   BANK5
  4054 ;;      Params:         2       0       0       0       0       0       0
  4055 ;;      Locals:         0       0       0       0       0       0       0
  4056 ;;      Temps:          4       0       0       0       0       0       0
  4057 ;;      Totals:         6       0       0       0       0       0       0
  4058 ;;Total ram usage:        6 bytes
  4059 ;; Hardware stack levels used:    1
  4060 ;; Hardware stack levels required when called:    4
  4061 ;; This function calls:
  4062 ;;		Nothing
  4063 ;; This function is called by:
  4064 ;;		_main
  4065 ;;		_buttonsCollector
  4066 ;; This function uses a non-reentrant model
  4067 ;;
  4068                           
  4069                           	psect	text19
  4070  000DAA                     __ptext19:
  4071                           	opt stack 0
  4072  000DAA                     _GetButtonState:
  4073                           	opt stack 26
  4074                           
  4075                           ;IO.c: 185: return butnarray[btnnum - 1];
  4076                           
  4077                           ;incstack = 0
  4078  000DAA  0EFF               	movlw	255
  4079  000DAC  6E1D               	movwf	??_GetButtonState& (0+255),c
  4080  000DAE  0EFF               	movlw	255
  4081  000DB0  6E1E               	movwf	(??_GetButtonState+1)& (0+255),c
  4082  000DB2  C01B  F01F         	movff	GetButtonState@btnnum,??_GetButtonState+2
  4083  000DB6  C01C  F020         	movff	GetButtonState@btnnum+1,??_GetButtonState+3
  4084  000DBA  501D               	movf	??_GetButtonState,w,c
  4085  000DBC  261F               	addwf	??_GetButtonState+2,f,c
  4086  000DBE  501E               	movf	??_GetButtonState+1,w,c
  4087  000DC0  2220               	addwfc	??_GetButtonState+3,f,c
  4088  000DC2  0EB0               	movlw	low _butnarray
  4089  000DC4  241F               	addwf	??_GetButtonState+2,w,c
  4090  000DC6  6ED9               	movwf	fsr2l,c
  4091  000DC8  0E00               	movlw	high _butnarray
  4092  000DCA  2020               	addwfc	??_GetButtonState+3,w,c
  4093  000DCC  6EDA               	movwf	fsr2h,c
  4094  000DCE  50DF               	movf	indf2,w,c
  4095  000DD0  0012               	return	
  4096  000DD2                     __end_of_GetButtonState:
  4097                           	opt stack 0
  4098                           tblptru	equ	0xFF8
  4099                           tblptrh	equ	0xFF7
  4100                           tblptrl	equ	0xFF6
  4101                           tablat	equ	0xFF5
  4102                           prodh	equ	0xFF4
  4103                           prodl	equ	0xFF3
  4104                           intcon	equ	0xFF2
  4105                           intcon2	equ	0xFF1
  4106                           indf0	equ	0xFEF
  4107                           postinc0	equ	0xFEE
  4108                           fsr0h	equ	0xFEA
  4109                           fsr0l	equ	0xFE9
  4110                           wreg	equ	0xFE8
  4111                           indf2	equ	0xFDF
  4112                           postinc2	equ	0xFDE
  4113                           postdec2	equ	0xFDD
  4114                           fsr2h	equ	0xFDA
  4115                           fsr2l	equ	0xFD9
  4116                           status	equ	0xFD8
  4117                           
  4118 ;; *************** function _ClearTime *****************
  4119 ;; Defined at:
  4120 ;;		line 102 in file "tmr0.c"
  4121 ;; Parameters:    Size  Location     Type
  4122 ;;		None
  4123 ;; Auto vars:     Size  Location     Type
  4124 ;;		None
  4125 ;; Return value:  Size  Location     Type
  4126 ;;                  1    wreg      void 
  4127 ;; Registers used:
  4128 ;;		wreg, status,2
  4129 ;; Tracked objects:
  4130 ;;		On entry : 0/0
  4131 ;;		On exit  : 0/0
  4132 ;;		Unchanged: 0/0
  4133 ;; Data sizes:     COMRAM   BANK0   BANK1   BANK2   BANK3   BANK4   BANK5
  4134 ;;      Params:         0       0       0       0       0       0       0
  4135 ;;      Locals:         0       0       0       0       0       0       0
  4136 ;;      Temps:          0       0       0       0       0       0       0
  4137 ;;      Totals:         0       0       0       0       0       0       0
  4138 ;;Total ram usage:        0 bytes
  4139 ;; Hardware stack levels used:    1
  4140 ;; Hardware stack levels required when called:    4
  4141 ;; This function calls:
  4142 ;;		Nothing
  4143 ;; This function is called by:
  4144 ;;		_main
  4145 ;; This function uses a non-reentrant model
  4146 ;;
  4147                           
  4148                           	psect	text20
  4149  000E60                     __ptext20:
  4150                           	opt stack 0
  4151  000E60                     _ClearTime:
  4152                           	opt stack 26
  4153                           
  4154                           ;tmr0.c: 103: time = 0;
  4155                           
  4156                           ;incstack = 0
  4157  000E60  0E00               	movlw	0
  4158  000E62  0100               	movlb	0	; () banked
  4159  000E64  6FDD               	movwf	(_time+1)& (0+255),b
  4160  000E66  0E00               	movlw	0
  4161  000E68  6FDC               	movwf	_time& (0+255),b
  4162                           
  4163                           ; BSR set to: 0
  4164  000E6A  0012               	return		;funcret
  4165  000E6C                     __end_of_ClearTime:
  4166                           	opt stack 0
  4167                           tblptru	equ	0xFF8
  4168                           tblptrh	equ	0xFF7
  4169                           tblptrl	equ	0xFF6
  4170                           tablat	equ	0xFF5
  4171                           prodh	equ	0xFF4
  4172                           prodl	equ	0xFF3
  4173                           intcon	equ	0xFF2
  4174                           intcon2	equ	0xFF1
  4175                           indf0	equ	0xFEF
  4176                           postinc0	equ	0xFEE
  4177                           fsr0h	equ	0xFEA
  4178                           fsr0l	equ	0xFE9
  4179                           wreg	equ	0xFE8
  4180                           indf2	equ	0xFDF
  4181                           postinc2	equ	0xFDE
  4182                           postdec2	equ	0xFDD
  4183                           fsr2h	equ	0xFDA
  4184                           fsr2l	equ	0xFD9
  4185                           status	equ	0xFD8
  4186                           
  4187 ;; *************** function _INTERRUPT_InterruptManager *****************
  4188 ;; Defined at:
  4189 ;;		line 28 in file "mcc_generated_files/interrupt_manager.c"
  4190 ;; Parameters:    Size  Location     Type
  4191 ;;		None
  4192 ;; Auto vars:     Size  Location     Type
  4193 ;;		None
  4194 ;; Return value:  Size  Location     Type
  4195 ;;                  1    wreg      void 
  4196 ;; Registers used:
  4197 ;;		wreg, fsr0l, fsr0h, fsr2l, fsr2h, status,2, status,0, tblptrl, tblptrh, tblptru, cstack
  4198 ;; Tracked objects:
  4199 ;;		On entry : 0/0
  4200 ;;		On exit  : 0/0
  4201 ;;		Unchanged: 0/0
  4202 ;; Data sizes:     COMRAM   BANK0   BANK1   BANK2   BANK3   BANK4   BANK5
  4203 ;;      Params:         0       0       0       0       0       0       0
  4204 ;;      Locals:         0       0       0       0       0       0       0
  4205 ;;      Temps:         14       0       0       0       0       0       0
  4206 ;;      Totals:        14       0       0       0       0       0       0
  4207 ;;Total ram usage:       14 bytes
  4208 ;; Hardware stack levels used:    1
  4209 ;; Hardware stack levels required when called:    3
  4210 ;; This function calls:
  4211 ;;		_EUSART1_Receive_ISR
  4212 ;;		_EUSART1_Transmit_ISR
  4213 ;;		_I2C1_BusCollisionISR
  4214 ;;		_I2C1_ISR
  4215 ;;		_TMR0_ISR
  4216 ;; This function is called by:
  4217 ;;		Interrupt level 2
  4218 ;; This function uses a non-reentrant model
  4219 ;;
  4220                           
  4221                           	psect	intcode
  4222  000008                     __pintcode:
  4223                           	opt stack 0
  4224  000008                     _INTERRUPT_InterruptManager:
  4225                           	opt stack 21
  4226                           
  4227                           ; BSR set to: 0
  4228                           ;incstack = 0
  4229  000008  8245               	bsf	btemp,1,c	;set compiler interrupt flag (level 2)
  4230  00000A  CFFA F00D          	movff	pclath,??_INTERRUPT_InterruptManager
  4231  00000E  CFFB F00E          	movff	pclatu,??_INTERRUPT_InterruptManager+1
  4232  000012  CFE9 F00F          	movff	fsr0l,??_INTERRUPT_InterruptManager+2
  4233  000016  CFEA F010          	movff	fsr0h,??_INTERRUPT_InterruptManager+3
  4234  00001A  CFE1 F011          	movff	fsr1l,??_INTERRUPT_InterruptManager+4
  4235  00001E  CFE2 F012          	movff	fsr1h,??_INTERRUPT_InterruptManager+5
  4236  000022  CFD9 F013          	movff	fsr2l,??_INTERRUPT_InterruptManager+6
  4237  000026  CFDA F014          	movff	fsr2h,??_INTERRUPT_InterruptManager+7
  4238  00002A  CFF3 F015          	movff	prodl,??_INTERRUPT_InterruptManager+8
  4239  00002E  CFF4 F016          	movff	prodh,??_INTERRUPT_InterruptManager+9
  4240  000032  CFF6 F017          	movff	tblptrl,??_INTERRUPT_InterruptManager+10
  4241  000036  CFF7 F018          	movff	tblptrh,??_INTERRUPT_InterruptManager+11
  4242  00003A  CFF8 F019          	movff	tblptru,??_INTERRUPT_InterruptManager+12
  4243  00003E  CFF5 F01A          	movff	tablat,??_INTERRUPT_InterruptManager+13
  4244                           
  4245                           ;interrupt_manager.c: 31: if(PIE1bits.RC1IE == 1 && PIR1bits.RC1IF == 1)
  4246  000042  BA9D               	btfsc	3997,5,c	;volatile
  4247  000044  AA9E               	btfss	3998,5,c	;volatile
  4248  000046  D003               	goto	i2l267
  4249                           
  4250                           ;interrupt_manager.c: 32: {
  4251                           ;interrupt_manager.c: 33: EUSART1_Receive_ISR();
  4252  000048  ECFD  F006         	call	_EUSART1_Receive_ISR	;wreg free
  4253                           
  4254                           ;interrupt_manager.c: 34: }
  4255  00004C  D00B               	goto	i2l5549
  4256  00004E                     i2l267:
  4257                           
  4258                           ;interrupt_manager.c: 35: else if(PIE1bits.TX1IE == 1 && PIR1bits.TX1IF == 1)
  4259  00004E  B89D               	btfsc	3997,4,c	;volatile
  4260  000050  A89E               	btfss	3998,4,c	;volatile
  4261  000052  D003               	goto	i2l269
  4262                           
  4263                           ;interrupt_manager.c: 36: {
  4264                           ;interrupt_manager.c: 37: EUSART1_Transmit_ISR();
  4265  000054  EC90  F006         	call	_EUSART1_Transmit_ISR	;wreg free
  4266                           
  4267                           ;interrupt_manager.c: 38: }
  4268  000058  D005               	goto	i2l5549
  4269  00005A                     i2l269:
  4270                           
  4271                           ;interrupt_manager.c: 39: else if(INTCONbits.TMR0IE == 1 && INTCONbits.TMR0IF == 1)
  4272  00005A  BAF2               	btfsc	intcon,5,c	;volatile
  4273  00005C  A4F2               	btfss	intcon,2,c	;volatile
  4274  00005E  D002               	goto	i2l5549
  4275                           
  4276                           ;interrupt_manager.c: 40: {
  4277                           ;interrupt_manager.c: 41: TMR0_ISR();
  4278  000060  EC72  F006         	call	_TMR0_ISR	;wreg free
  4279  000064                     i2l5549:
  4280                           
  4281                           ;interrupt_manager.c: 42: }
  4282                           ;interrupt_manager.c: 43: if(PIE2bits.BCL1IE == 1 && PIR2bits.BCL1IF == 1)
  4283  000064  B6A0               	btfsc	4000,3,c	;volatile
  4284  000066  A6A1               	btfss	4001,3,c	;volatile
  4285  000068  D003               	goto	i2l272
  4286                           
  4287                           ;interrupt_manager.c: 44: {
  4288                           ;interrupt_manager.c: 45: I2C1_BusCollisionISR();
  4289  00006A  EC40  F007         	call	_I2C1_BusCollisionISR	;wreg free
  4290                           
  4291                           ;interrupt_manager.c: 46: }
  4292  00006E  D005               	goto	i2l276
  4293  000070                     i2l272:
  4294                           
  4295                           ;interrupt_manager.c: 47: else if(PIE1bits.SSP1IE == 1 && PIR1bits.SSP1IF == 1)
  4296  000070  B69D               	btfsc	3997,3,c	;volatile
  4297  000072  A69E               	btfss	3998,3,c	;volatile
  4298  000074  D002               	goto	i2l276
  4299                           
  4300                           ;interrupt_manager.c: 48: {
  4301                           ;interrupt_manager.c: 49: I2C1_ISR();
  4302  000076  EC5D  F000         	call	_I2C1_ISR	;wreg free
  4303  00007A                     i2l276:
  4304  00007A  C01A  FFF5         	movff	??_INTERRUPT_InterruptManager+13,tablat
  4305  00007E  C019  FFF8         	movff	??_INTERRUPT_InterruptManager+12,tblptru
  4306  000082  C018  FFF7         	movff	??_INTERRUPT_InterruptManager+11,tblptrh
  4307  000086  C017  FFF6         	movff	??_INTERRUPT_InterruptManager+10,tblptrl
  4308  00008A  C016  FFF4         	movff	??_INTERRUPT_InterruptManager+9,prodh
  4309  00008E  C015  FFF3         	movff	??_INTERRUPT_InterruptManager+8,prodl
  4310  000092  C014  FFDA         	movff	??_INTERRUPT_InterruptManager+7,fsr2h
  4311  000096  C013  FFD9         	movff	??_INTERRUPT_InterruptManager+6,fsr2l
  4312  00009A  C012  FFE2         	movff	??_INTERRUPT_InterruptManager+5,fsr1h
  4313  00009E  C011  FFE1         	movff	??_INTERRUPT_InterruptManager+4,fsr1l
  4314  0000A2  C010  FFEA         	movff	??_INTERRUPT_InterruptManager+3,fsr0h
  4315  0000A6  C00F  FFE9         	movff	??_INTERRUPT_InterruptManager+2,fsr0l
  4316  0000AA  C00E  FFFB         	movff	??_INTERRUPT_InterruptManager+1,pclatu
  4317  0000AE  C00D  FFFA         	movff	??_INTERRUPT_InterruptManager,pclath
  4318  0000B2  9245               	bcf	btemp,1,c	;clear compiler interrupt flag (level 2)
  4319  0000B4  0011               	retfie		f
  4320  0000B6                     __end_of_INTERRUPT_InterruptManager:
  4321                           	opt stack 0
  4322                           pclatu	equ	0xFFB
  4323                           pclath	equ	0xFFA
  4324                           tblptru	equ	0xFF8
  4325                           tblptrh	equ	0xFF7
  4326                           tblptrl	equ	0xFF6
  4327                           tablat	equ	0xFF5
  4328                           prodh	equ	0xFF4
  4329                           prodl	equ	0xFF3
  4330                           intcon	equ	0xFF2
  4331                           intcon2	equ	0xFF1
  4332                           indf0	equ	0xFEF
  4333                           postinc0	equ	0xFEE
  4334                           fsr0h	equ	0xFEA
  4335                           fsr0l	equ	0xFE9
  4336                           wreg	equ	0xFE8
  4337                           fsr1h	equ	0xFE2
  4338                           fsr1l	equ	0xFE1
  4339                           indf2	equ	0xFDF
  4340                           postinc2	equ	0xFDE
  4341                           postdec2	equ	0xFDD
  4342                           fsr2h	equ	0xFDA
  4343                           fsr2l	equ	0xFD9
  4344                           status	equ	0xFD8
  4345                           
  4346 ;; *************** function _TMR0_ISR *****************
  4347 ;; Defined at:
  4348 ;;		line 82 in file "tmr0.c"
  4349 ;; Parameters:    Size  Location     Type
  4350 ;;		None
  4351 ;; Auto vars:     Size  Location     Type
  4352 ;;  x               2    4[COMRAM] int 
  4353 ;; Return value:  Size  Location     Type
  4354 ;;                  1    wreg      void 
  4355 ;; Registers used:
  4356 ;;		wreg, fsr2l, fsr2h, status,2, status,0, cstack
  4357 ;; Tracked objects:
  4358 ;;		On entry : 0/0
  4359 ;;		On exit  : 0/0
  4360 ;;		Unchanged: 0/0
  4361 ;; Data sizes:     COMRAM   BANK0   BANK1   BANK2   BANK3   BANK4   BANK5
  4362 ;;      Params:         0       0       0       0       0       0       0
  4363 ;;      Locals:         2       0       0       0       0       0       0
  4364 ;;      Temps:          0       0       0       0       0       0       0
  4365 ;;      Totals:         2       0       0       0       0       0       0
  4366 ;;Total ram usage:        2 bytes
  4367 ;; Hardware stack levels used:    1
  4368 ;; Hardware stack levels required when called:    1
  4369 ;; This function calls:
  4370 ;;		_ReadButtonState
  4371 ;; This function is called by:
  4372 ;;		_INTERRUPT_InterruptManager
  4373 ;; This function uses a non-reentrant model
  4374 ;;
  4375                           
  4376                           	psect	text22
  4377  000CE4                     __ptext22:
  4378                           	opt stack 0
  4379  000CE4                     _TMR0_ISR:
  4380                           	opt stack 22
  4381                           
  4382                           ;tmr0.c: 85: TMR0H = timer0ReloadVal16bit >> 8;
  4383                           
  4384                           ;incstack = 0
  4385  000CE4  5037               	movf	_timer0ReloadVal16bit+1,w,c	;volatile
  4386  000CE6  6ED7               	movwf	4055,c	;volatile
  4387                           
  4388                           ;tmr0.c: 86: TMR0L = (uint8_t) timer0ReloadVal16bit;
  4389  000CE8  C036  FFD6         	movff	_timer0ReloadVal16bit,4054	;volatile
  4390                           
  4391                           ;tmr0.c: 88: for (int x = 0; x < 8; x++) {
  4392  000CEC  0E00               	movlw	0
  4393  000CEE  6E06               	movwf	TMR0_ISR@x+1,c
  4394  000CF0  0E00               	movlw	0
  4395  000CF2  6E05               	movwf	TMR0_ISR@x,c
  4396  000CF4                     i2l4027:
  4397  000CF4  BE06               	btfsc	TMR0_ISR@x+1,7,c
  4398  000CF6  D006               	goto	i2l4031
  4399  000CF8  5006               	movf	TMR0_ISR@x+1,w,c
  4400  000CFA  E10D               	bnz	i2l4037
  4401  000CFC  0E08               	movlw	8
  4402  000CFE  5C05               	subwf	TMR0_ISR@x,w,c
  4403  000D00  B0D8               	btfsc	status,0,c
  4404  000D02  D009               	goto	i2l4037
  4405  000D04                     i2l4031:
  4406                           
  4407                           ;tmr0.c: 89: ReadButtonState(x);
  4408  000D04  C005  F001         	movff	TMR0_ISR@x,ReadButtonState@btnnum
  4409  000D08  C006  F002         	movff	TMR0_ISR@x+1,ReadButtonState@btnnum+1
  4410  000D0C  EC44  F002         	call	_ReadButtonState	;wreg free
  4411  000D10  4A05               	infsnz	TMR0_ISR@x,f,c
  4412  000D12  2A06               	incf	TMR0_ISR@x+1,f,c
  4413  000D14  D7EF               	goto	i2l4027
  4414  000D16                     i2l4037:
  4415                           
  4416                           ;tmr0.c: 90: }
  4417                           ;tmr0.c: 91: time++;
  4418  000D16  0100               	movlb	0	; () banked
  4419  000D18  4BDC               	infsnz	_time& (0+255),f,b
  4420  000D1A  2BDD               	incf	(_time+1)& (0+255),f,b
  4421                           
  4422                           ; BSR set to: 0
  4423                           ;tmr0.c: 94: INTCONbits.TMR0IF = 0;
  4424  000D1C  94F2               	bcf	intcon,2,c	;volatile
  4425                           
  4426                           ; BSR set to: 0
  4427  000D1E  0012               	return		;funcret
  4428  000D20                     __end_of_TMR0_ISR:
  4429                           	opt stack 0
  4430                           pclatu	equ	0xFFB
  4431                           pclath	equ	0xFFA
  4432                           tblptru	equ	0xFF8
  4433                           tblptrh	equ	0xFF7
  4434                           tblptrl	equ	0xFF6
  4435                           tablat	equ	0xFF5
  4436                           prodh	equ	0xFF4
  4437                           prodl	equ	0xFF3
  4438                           intcon	equ	0xFF2
  4439                           intcon2	equ	0xFF1
  4440                           indf0	equ	0xFEF
  4441                           postinc0	equ	0xFEE
  4442                           fsr0h	equ	0xFEA
  4443                           fsr0l	equ	0xFE9
  4444                           wreg	equ	0xFE8
  4445                           fsr1h	equ	0xFE2
  4446                           fsr1l	equ	0xFE1
  4447                           indf2	equ	0xFDF
  4448                           postinc2	equ	0xFDE
  4449                           postdec2	equ	0xFDD
  4450                           fsr2h	equ	0xFDA
  4451                           fsr2l	equ	0xFD9
  4452                           status	equ	0xFD8
  4453                           
  4454 ;; *************** function _ReadButtonState *****************
  4455 ;; Defined at:
  4456 ;;		line 154 in file "IO.c"
  4457 ;; Parameters:    Size  Location     Type
  4458 ;;  btnnum          2    0[COMRAM] int 
  4459 ;; Auto vars:     Size  Location     Type
  4460 ;;		None
  4461 ;; Return value:  Size  Location     Type
  4462 ;;                  1    wreg      void 
  4463 ;; Registers used:
  4464 ;;		wreg, fsr2l, fsr2h, status,2, status,0
  4465 ;; Tracked objects:
  4466 ;;		On entry : 0/0
  4467 ;;		On exit  : 0/0
  4468 ;;		Unchanged: 0/0
  4469 ;; Data sizes:     COMRAM   BANK0   BANK1   BANK2   BANK3   BANK4   BANK5
  4470 ;;      Params:         2       0       0       0       0       0       0
  4471 ;;      Locals:         0       0       0       0       0       0       0
  4472 ;;      Temps:          2       0       0       0       0       0       0
  4473 ;;      Totals:         4       0       0       0       0       0       0
  4474 ;;Total ram usage:        4 bytes
  4475 ;; Hardware stack levels used:    1
  4476 ;; This function calls:
  4477 ;;		Nothing
  4478 ;; This function is called by:
  4479 ;;		_TMR0_ISR
  4480 ;; This function uses a non-reentrant model
  4481 ;;
  4482                           
  4483                           	psect	text23
  4484  000488                     __ptext23:
  4485                           	opt stack 0
  4486  000488                     _ReadButtonState:
  4487                           	opt stack 22
  4488                           
  4489                           ;IO.c: 155: switch (btnnum) {
  4490                           
  4491                           ; BSR set to: 0
  4492                           ;incstack = 0
  4493  000488  D068               	goto	i2l3755
  4494  00048A                     i2l3737:
  4495                           
  4496                           ;IO.c: 157: butnarray[btnnum] = PORTDbits.RD5;
  4497  00048A  0EB0               	movlw	low _butnarray
  4498  00048C  2401               	addwf	ReadButtonState@btnnum,w,c
  4499  00048E  6ED9               	movwf	fsr2l,c
  4500  000490  0E00               	movlw	high _butnarray
  4501  000492  2002               	addwfc	ReadButtonState@btnnum+1,w,c
  4502  000494  6EDA               	movwf	fsr2h,c
  4503  000496  AA83               	btfss	3971,5,c	;volatile
  4504  000498  D002               	goto	i2u265_40
  4505  00049A  0E01               	movlw	1
  4506  00049C  D001               	goto	i2u265_46
  4507  00049E                     i2u265_40:
  4508  00049E  0E00               	movlw	0
  4509  0004A0                     i2u265_46:
  4510  0004A0  6EDF               	movwf	indf2,c
  4511                           
  4512                           ;IO.c: 158: break;
  4513  0004A2  0012               	return	
  4514  0004A4                     i2l3739:
  4515                           
  4516                           ;IO.c: 160: butnarray[btnnum] = PORTBbits.RB0;
  4517  0004A4  0EB0               	movlw	low _butnarray
  4518  0004A6  2401               	addwf	ReadButtonState@btnnum,w,c
  4519  0004A8  6ED9               	movwf	fsr2l,c
  4520  0004AA  0E00               	movlw	high _butnarray
  4521  0004AC  2002               	addwfc	ReadButtonState@btnnum+1,w,c
  4522  0004AE  6EDA               	movwf	fsr2h,c
  4523  0004B0  A081               	btfss	3969,0,c	;volatile
  4524  0004B2  D002               	goto	i2u266_40
  4525  0004B4  0E01               	movlw	1
  4526  0004B6  D001               	goto	i2u266_46
  4527  0004B8                     i2u266_40:
  4528  0004B8  0E00               	movlw	0
  4529  0004BA                     i2u266_46:
  4530  0004BA  6EDF               	movwf	indf2,c
  4531                           
  4532                           ;IO.c: 161: break;
  4533  0004BC  0012               	return	
  4534  0004BE                     i2l3741:
  4535                           
  4536                           ;IO.c: 163: butnarray[btnnum] = PORTBbits.RB1;
  4537  0004BE  0EB0               	movlw	low _butnarray
  4538  0004C0  2401               	addwf	ReadButtonState@btnnum,w,c
  4539  0004C2  6ED9               	movwf	fsr2l,c
  4540  0004C4  0E00               	movlw	high _butnarray
  4541  0004C6  2002               	addwfc	ReadButtonState@btnnum+1,w,c
  4542  0004C8  6EDA               	movwf	fsr2h,c
  4543  0004CA  A281               	btfss	3969,1,c	;volatile
  4544  0004CC  D002               	goto	i2u267_40
  4545  0004CE  0E01               	movlw	1
  4546  0004D0  D001               	goto	i2u267_46
  4547  0004D2                     i2u267_40:
  4548  0004D2  0E00               	movlw	0
  4549  0004D4                     i2u267_46:
  4550  0004D4  6EDF               	movwf	indf2,c
  4551                           
  4552                           ;IO.c: 164: break;
  4553  0004D6  0012               	return	
  4554  0004D8                     i2l3743:
  4555                           
  4556                           ;IO.c: 166: butnarray[btnnum] = PORTBbits.RB2;
  4557  0004D8  0EB0               	movlw	low _butnarray
  4558  0004DA  2401               	addwf	ReadButtonState@btnnum,w,c
  4559  0004DC  6ED9               	movwf	fsr2l,c
  4560  0004DE  0E00               	movlw	high _butnarray
  4561  0004E0  2002               	addwfc	ReadButtonState@btnnum+1,w,c
  4562  0004E2  6EDA               	movwf	fsr2h,c
  4563  0004E4  A481               	btfss	3969,2,c	;volatile
  4564  0004E6  D002               	goto	i2u268_40
  4565  0004E8  0E01               	movlw	1
  4566  0004EA  D001               	goto	i2u268_46
  4567  0004EC                     i2u268_40:
  4568  0004EC  0E00               	movlw	0
  4569  0004EE                     i2u268_46:
  4570  0004EE  6EDF               	movwf	indf2,c
  4571                           
  4572                           ;IO.c: 167: break;
  4573  0004F0  0012               	return	
  4574  0004F2                     i2l3745:
  4575                           
  4576                           ;IO.c: 169: butnarray[btnnum] = PORTBbits.RB4;
  4577  0004F2  0EB0               	movlw	low _butnarray
  4578  0004F4  2401               	addwf	ReadButtonState@btnnum,w,c
  4579  0004F6  6ED9               	movwf	fsr2l,c
  4580  0004F8  0E00               	movlw	high _butnarray
  4581  0004FA  2002               	addwfc	ReadButtonState@btnnum+1,w,c
  4582  0004FC  6EDA               	movwf	fsr2h,c
  4583  0004FE  A881               	btfss	3969,4,c	;volatile
  4584  000500  D002               	goto	i2u269_40
  4585  000502  0E01               	movlw	1
  4586  000504  D001               	goto	i2u269_46
  4587  000506                     i2u269_40:
  4588  000506  0E00               	movlw	0
  4589  000508                     i2u269_46:
  4590  000508  6EDF               	movwf	indf2,c
  4591                           
  4592                           ;IO.c: 170: break;
  4593  00050A  0012               	return	
  4594  00050C                     i2l3747:
  4595                           
  4596                           ;IO.c: 172: butnarray[btnnum] = PORTAbits.RA0;
  4597  00050C  0EB0               	movlw	low _butnarray
  4598  00050E  2401               	addwf	ReadButtonState@btnnum,w,c
  4599  000510  6ED9               	movwf	fsr2l,c
  4600  000512  0E00               	movlw	high _butnarray
  4601  000514  2002               	addwfc	ReadButtonState@btnnum+1,w,c
  4602  000516  6EDA               	movwf	fsr2h,c
  4603  000518  A080               	btfss	3968,0,c	;volatile
  4604  00051A  D002               	goto	i2u270_40
  4605  00051C  0E01               	movlw	1
  4606  00051E  D001               	goto	i2u270_46
  4607  000520                     i2u270_40:
  4608  000520  0E00               	movlw	0
  4609  000522                     i2u270_46:
  4610  000522  6EDF               	movwf	indf2,c
  4611                           
  4612                           ;IO.c: 173: break;
  4613  000524  0012               	return	
  4614  000526                     i2l3749:
  4615                           
  4616                           ;IO.c: 175: butnarray[btnnum] = PORTAbits.RA1;
  4617  000526  0EB0               	movlw	low _butnarray
  4618  000528  2401               	addwf	ReadButtonState@btnnum,w,c
  4619  00052A  6ED9               	movwf	fsr2l,c
  4620  00052C  0E00               	movlw	high _butnarray
  4621  00052E  2002               	addwfc	ReadButtonState@btnnum+1,w,c
  4622  000530  6EDA               	movwf	fsr2h,c
  4623  000532  A280               	btfss	3968,1,c	;volatile
  4624  000534  D002               	goto	i2u271_40
  4625  000536  0E01               	movlw	1
  4626  000538  D001               	goto	i2u271_46
  4627  00053A                     i2u271_40:
  4628  00053A  0E00               	movlw	0
  4629  00053C                     i2u271_46:
  4630  00053C  6EDF               	movwf	indf2,c
  4631                           
  4632                           ;IO.c: 176: break;
  4633  00053E  0012               	return	
  4634  000540                     i2l3751:
  4635                           
  4636                           ;IO.c: 178: butnarray[btnnum] = PORTAbits.RA2;
  4637  000540  0EB0               	movlw	low _butnarray
  4638  000542  2401               	addwf	ReadButtonState@btnnum,w,c
  4639  000544  6ED9               	movwf	fsr2l,c
  4640  000546  0E00               	movlw	high _butnarray
  4641  000548  2002               	addwfc	ReadButtonState@btnnum+1,w,c
  4642  00054A  6EDA               	movwf	fsr2h,c
  4643  00054C  A480               	btfss	3968,2,c	;volatile
  4644  00054E  D002               	goto	i2u272_40
  4645  000550  0E01               	movlw	1
  4646  000552  D001               	goto	i2u272_46
  4647  000554                     i2u272_40:
  4648  000554  0E00               	movlw	0
  4649  000556                     i2u272_46:
  4650  000556  6EDF               	movwf	indf2,c
  4651                           
  4652                           ;IO.c: 181: }
  4653                           
  4654                           ;IO.c: 179: break;
  4655  000558  0012               	return	
  4656  00055A                     i2l3755:
  4657  00055A  C001  F003         	movff	ReadButtonState@btnnum,??_ReadButtonState
  4658  00055E  C002  F004         	movff	ReadButtonState@btnnum+1,??_ReadButtonState+1
  4659                           
  4660                           ; Switch on 2 bytes has been partitioned into a top level switch of size 1, and 1 sub-sw
      +                          itches
  4661                           ; Switch size 1, requested type "space"
  4662                           ; Number of cases is 1, Range of values is 0 to 0
  4663                           ; switch strategies available:
  4664                           ; Name         Instructions Cycles
  4665                           ; simple_byte            4     3 (average)
  4666                           ;	Chosen strategy is simple_byte
  4667  000562  5004               	movf	??_ReadButtonState+1,w,c
  4668  000564  0A00               	xorlw	0	; case 0
  4669  000566  A4D8               	btfss	status,2,c
  4670  000568  0012               	return	
  4671                           
  4672                           ; Switch size 1, requested type "space"
  4673                           ; Number of cases is 8, Range of values is 0 to 7
  4674                           ; switch strategies available:
  4675                           ; Name         Instructions Cycles
  4676                           ; simple_byte           25    13 (average)
  4677                           ;	Chosen strategy is simple_byte
  4678  00056A  5003               	movf	??_ReadButtonState,w,c
  4679  00056C  0A00               	xorlw	0	; case 0
  4680  00056E  B4D8               	btfsc	status,2,c
  4681  000570  D78C               	goto	i2l3737
  4682  000572  0A01               	xorlw	1	; case 1
  4683  000574  B4D8               	btfsc	status,2,c
  4684  000576  D796               	goto	i2l3739
  4685  000578  0A03               	xorlw	3	; case 2
  4686  00057A  B4D8               	btfsc	status,2,c
  4687  00057C  D7A0               	goto	i2l3741
  4688  00057E  0A01               	xorlw	1	; case 3
  4689  000580  B4D8               	btfsc	status,2,c
  4690  000582  D7AA               	goto	i2l3743
  4691  000584  0A07               	xorlw	7	; case 4
  4692  000586  B4D8               	btfsc	status,2,c
  4693  000588  D7B4               	goto	i2l3745
  4694  00058A  0A01               	xorlw	1	; case 5
  4695  00058C  B4D8               	btfsc	status,2,c
  4696  00058E  D7BE               	goto	i2l3747
  4697  000590  0A03               	xorlw	3	; case 6
  4698  000592  B4D8               	btfsc	status,2,c
  4699  000594  D7C8               	goto	i2l3749
  4700  000596  0A01               	xorlw	1	; case 7
  4701  000598  A4D8               	btfss	status,2,c
  4702  00059A  0012               	return	
  4703  00059C  D7D1               	goto	i2l3751
  4704  00059E                     __end_of_ReadButtonState:
  4705                           	opt stack 0
  4706                           pclatu	equ	0xFFB
  4707                           pclath	equ	0xFFA
  4708                           tblptru	equ	0xFF8
  4709                           tblptrh	equ	0xFF7
  4710                           tblptrl	equ	0xFF6
  4711                           tablat	equ	0xFF5
  4712                           prodh	equ	0xFF4
  4713                           prodl	equ	0xFF3
  4714                           intcon	equ	0xFF2
  4715                           intcon2	equ	0xFF1
  4716                           indf0	equ	0xFEF
  4717                           postinc0	equ	0xFEE
  4718                           fsr0h	equ	0xFEA
  4719                           fsr0l	equ	0xFE9
  4720                           wreg	equ	0xFE8
  4721                           fsr1h	equ	0xFE2
  4722                           fsr1l	equ	0xFE1
  4723                           indf2	equ	0xFDF
  4724                           postinc2	equ	0xFDE
  4725                           postdec2	equ	0xFDD
  4726                           fsr2h	equ	0xFDA
  4727                           fsr2l	equ	0xFD9
  4728                           status	equ	0xFD8
  4729                           
  4730 ;; *************** function _I2C1_ISR *****************
  4731 ;; Defined at:
  4732 ;;		line 186 in file "mcc_generated_files/i2c1.c"
  4733 ;; Parameters:    Size  Location     Type
  4734 ;;		None
  4735 ;; Auto vars:     Size  Location     Type
  4736 ;;		None
  4737 ;; Return value:  Size  Location     Type
  4738 ;;                  1    wreg      void 
  4739 ;; Registers used:
  4740 ;;		wreg, fsr0l, fsr0h, fsr2l, fsr2h, status,2, status,0, tblptrl, tblptrh, tblptru, cstack
  4741 ;; Tracked objects:
  4742 ;;		On entry : 0/0
  4743 ;;		On exit  : 0/0
  4744 ;;		Unchanged: 0/0
  4745 ;; Data sizes:     COMRAM   BANK0   BANK1   BANK2   BANK3   BANK4   BANK5
  4746 ;;      Params:         0       0       0       0       0       0       0
  4747 ;;      Locals:         0       0       0       0       0       0       0
  4748 ;;      Temps:          2       0       0       0       0       0       0
  4749 ;;      Totals:         2       0       0       0       0       0       0
  4750 ;;Total ram usage:        2 bytes
  4751 ;; Hardware stack levels used:    1
  4752 ;; Hardware stack levels required when called:    1
  4753 ;; This function calls:
  4754 ;;		_I2C1_FunctionComplete
  4755 ;;		_I2C1_Stop
  4756 ;; This function is called by:
  4757 ;;		_INTERRUPT_InterruptManager
  4758 ;; This function uses a non-reentrant model
  4759 ;;
  4760                           
  4761                           	psect	text24
  4762  0000BA                     __ptext24:
  4763                           	opt stack 0
  4764  0000BA                     _I2C1_ISR:
  4765                           	opt stack 22
  4766                           
  4767                           ;i2c1.c: 189: static uint8_t *pi2c_buf_ptr;
  4768                           ;i2c1.c: 190: static uint16_t i2c_address = 0;
  4769                           ;i2c1.c: 191: static int i2c_bytes_left = 0;
  4770                           ;i2c1.c: 192: static uint8_t i2c_10bit_address_restart = 0;
  4771                           ;i2c1.c: 194: PIR1bits.SSP1IF = 0;
  4772                           
  4773                           ;incstack = 0
  4774  0000BA  969E               	bcf	3998,3,c	;volatile
  4775                           
  4776                           ;i2c1.c: 198: if(SSP1CON1bits.WCOL)
  4777  0000BC  AEC6               	btfss	4038,7,c	;volatile
  4778  0000BE  D134               	goto	i2l5449
  4779                           
  4780                           ;i2c1.c: 199: {
  4781                           ;i2c1.c: 201: SSP1CON1bits.WCOL = 0;
  4782  0000C0  9EC6               	bcf	4038,7,c	;volatile
  4783                           
  4784                           ;i2c1.c: 202: i2c1_state = S_MASTER_IDLE;
  4785  0000C2  0E00               	movlw	0
  4786  0000C4  6E3B               	movwf	_i2c1_state,c
  4787                           
  4788                           ;i2c1.c: 203: *(p_i2c1_current->pTrFlag) = I2C1_MESSAGE_FAIL;
  4789  0000C6  EE20 F003          	lfsr	2,3
  4790  0000CA  5032               	movf	_p_i2c1_current,w,c
  4791  0000CC  26D9               	addwf	fsr2l,f,c
  4792  0000CE  5033               	movf	_p_i2c1_current+1,w,c
  4793  0000D0  22DA               	addwfc	fsr2h,f,c
  4794  0000D2  CFDE F004          	movff	postinc2,??_I2C1_ISR
  4795  0000D6  CFDD F005          	movff	postdec2,??_I2C1_ISR+1
  4796  0000DA  C004  FFD9         	movff	??_I2C1_ISR,fsr2l
  4797  0000DE  C005  FFDA         	movff	??_I2C1_ISR+1,fsr2h
  4798  0000E2  0E01               	movlw	1
  4799  0000E4  6EDF               	movwf	indf2,c
  4800                           
  4801                           ;i2c1.c: 206: p_i2c1_current = (0);
  4802  0000E6  0E00               	movlw	0
  4803  0000E8  6E32               	movwf	_p_i2c1_current,c
  4804  0000EA  0E00               	movlw	0
  4805  0000EC  6E33               	movwf	_p_i2c1_current+1,c
  4806                           
  4807                           ;i2c1.c: 208: return;
  4808  0000EE  0012               	return	
  4809  0000F0                     i2l60:
  4810                           
  4811                           ;i2c1.c: 216: if(i2c1_object.trStatus.s.empty != 1)
  4812  0000F0  B22D               	btfsc	_i2c1_object+4,1,c
  4813  0000F2  0012               	return	
  4814                           
  4815                           ;i2c1.c: 217: {
  4816                           ;i2c1.c: 219: p_i2c1_current = i2c1_object.pTrHead;
  4817  0000F4  C02B  F032         	movff	_i2c1_object+2,_p_i2c1_current
  4818  0000F8  C02C  F033         	movff	_i2c1_object+3,_p_i2c1_current+1
  4819                           
  4820                           ;i2c1.c: 220: i2c1_trb_count = i2c1_object.pTrHead->count;
  4821  0000FC  C02B  FFD9         	movff	_i2c1_object+2,fsr2l
  4822  000100  C02C  FFDA         	movff	_i2c1_object+3,fsr2h
  4823  000104  50DF               	movf	indf2,w,c
  4824  000106  6E04               	movwf	??_I2C1_ISR& (0+255),c
  4825  000108  5004               	movf	??_I2C1_ISR,w,c
  4826  00010A  0100               	movlb	0	; () banked
  4827  00010C  6FCA               	movwf	_i2c1_trb_count& (0+255),b
  4828  00010E  6BCB               	clrf	(_i2c1_trb_count+1)& (0+255),b
  4829                           
  4830                           ; BSR set to: 0
  4831                           ;i2c1.c: 221: p_i2c1_trb_current = i2c1_object.pTrHead->ptrb_list;
  4832  000110  EE20 F001          	lfsr	2,1
  4833  000114  502B               	movf	_i2c1_object+2,w,c
  4834  000116  26D9               	addwf	fsr2l,f,c
  4835  000118  502C               	movf	_i2c1_object+3,w,c
  4836  00011A  22DA               	addwfc	fsr2h,f,c
  4837  00011C  CFDE F034          	movff	postinc2,_p_i2c1_trb_current
  4838  000120  CFDD F035          	movff	postdec2,_p_i2c1_trb_current+1
  4839                           
  4840                           ;i2c1.c: 223: i2c1_object.pTrHead++;
  4841  000124  0E05               	movlw	5
  4842  000126  262B               	addwf	_i2c1_object+2,f,c
  4843  000128  0E00               	movlw	0
  4844  00012A  222C               	addwfc	_i2c1_object+3,f,c
  4845                           
  4846                           ;i2c1.c: 226: if(i2c1_object.pTrHead == (i2c1_tr_queue + 1))
  4847  00012C  0EF1               	movlw	low (_i2c1_tr_queue+5)
  4848  00012E  182B               	xorwf	_i2c1_object+2,w,c
  4849  000130  E108               	bnz	i2l5343
  4850  000132  0E00               	movlw	high (_i2c1_tr_queue+5)
  4851  000134  182C               	xorwf	_i2c1_object+3,w,c
  4852  000136  A4D8               	btfss	status,2,c
  4853  000138  D004               	goto	i2l5343
  4854                           
  4855                           ; BSR set to: 0
  4856                           ;i2c1.c: 227: {
  4857                           ;i2c1.c: 229: i2c1_object.pTrHead = i2c1_tr_queue;
  4858  00013A  0EEC               	movlw	low _i2c1_tr_queue
  4859  00013C  6E2B               	movwf	_i2c1_object+2,c
  4860  00013E  0E00               	movlw	high _i2c1_tr_queue
  4861  000140  6E2C               	movwf	_i2c1_object+3,c
  4862  000142                     i2l5343:
  4863                           
  4864                           ; BSR set to: 0
  4865                           ;i2c1.c: 230: }
  4866                           ;i2c1.c: 234: i2c1_object.trStatus.s.full = 0;
  4867  000142  902D               	bcf	_i2c1_object+4,0,c
  4868                           
  4869                           ;i2c1.c: 237: if(i2c1_object.pTrHead == i2c1_object.pTrTail)
  4870  000144  5029               	movf	_i2c1_object,w,c
  4871  000146  182B               	xorwf	_i2c1_object+2,w,c
  4872  000148  E104               	bnz	i2l63
  4873  00014A  502A               	movf	_i2c1_object+1,w,c
  4874  00014C  182C               	xorwf	_i2c1_object+3,w,c
  4875  00014E  B4D8               	btfsc	status,2,c
  4876                           
  4877                           ; BSR set to: 0
  4878                           ;i2c1.c: 238: {
  4879                           ;i2c1.c: 240: i2c1_object.trStatus.s.empty = 1;
  4880  000150  822D               	bsf	_i2c1_object+4,1,c
  4881  000152                     i2l63:
  4882                           
  4883                           ; BSR set to: 0
  4884                           ;i2c1.c: 241: }
  4885                           ;i2c1.c: 244: SSP1CON2bits.SEN = 1;
  4886  000152  80C5               	bsf	4037,0,c	;volatile
  4887                           
  4888                           ; BSR set to: 0
  4889                           ;i2c1.c: 247: i2c1_state = S_MASTER_SEND_ADDR;
  4890  000154  0E02               	movlw	2
  4891  000156  6E3B               	movwf	_i2c1_state,c
  4892                           
  4893                           ; BSR set to: 0
  4894                           ;i2c1.c: 248: }
  4895                           ;i2c1.c: 250: break;
  4896  000158  0012               	return	
  4897  00015A                     i2l65:
  4898                           
  4899                           ;i2c1.c: 257: SSP1CON2bits.RSEN = 1;
  4900  00015A  82C5               	bsf	4037,1,c	;volatile
  4901                           
  4902                           ;i2c1.c: 260: i2c1_state = S_MASTER_SEND_ADDR;
  4903  00015C  0E02               	movlw	2
  4904  00015E  6E3B               	movwf	_i2c1_state,c
  4905                           
  4906                           ;i2c1.c: 262: break;
  4907  000160  0012               	return	
  4908  000162                     i2l66:
  4909                           
  4910                           ;i2c1.c: 266: if(SSP1CON2bits.ACKSTAT)
  4911  000162  ACC5               	btfss	4037,6,c	;volatile
  4912  000164  D005               	goto	i2l5355
  4913                           
  4914                           ;i2c1.c: 267: {
  4915                           ;i2c1.c: 268: i2c1_object.i2cErrors++;
  4916  000166  2A2F               	incf	_i2c1_object+6,f,c
  4917                           
  4918                           ;i2c1.c: 269: I2C1_Stop(I2C1_MESSAGE_ADDRESS_NO_ACK);
  4919  000168  0E04               	movlw	4
  4920  00016A  EC53  F006         	call	_I2C1_Stop
  4921                           
  4922                           ;i2c1.c: 270: }
  4923  00016E  0012               	return	
  4924  000170                     i2l5355:
  4925                           
  4926                           ;i2c1.c: 271: else
  4927                           ;i2c1.c: 272: {
  4928                           ;i2c1.c: 274: SSP1BUF = (i2c_address >> 1) & 0x00FF;
  4929  000170  90D8               	bcf	status,0,c
  4930  000172  3043               	rrcf	I2C1_ISR@i2c_address+1,w,c
  4931  000174  6E05               	movwf	(??_I2C1_ISR+1)& (0+255),c
  4932  000176  3042               	rrcf	I2C1_ISR@i2c_address,w,c
  4933  000178  6E04               	movwf	??_I2C1_ISR& (0+255),c
  4934  00017A  5004               	movf	??_I2C1_ISR,w,c
  4935  00017C  6EC9               	movwf	4041,c	;volatile
  4936                           
  4937                           ;i2c1.c: 277: if(i2c_address & 0x01)
  4938  00017E  A042               	btfss	I2C1_ISR@i2c_address,0,c
  4939  000180  D003               	goto	i2l5361
  4940                           
  4941                           ;i2c1.c: 278: {
  4942                           ;i2c1.c: 281: i2c1_state = S_MASTER_10BIT_RESTART;
  4943  000182  0E0B               	movlw	11
  4944  000184  6E3B               	movwf	_i2c1_state,c
  4945                           
  4946                           ;i2c1.c: 282: }
  4947  000186  0012               	return	
  4948  000188                     i2l5361:
  4949                           
  4950                           ;i2c1.c: 283: else
  4951                           ;i2c1.c: 284: {
  4952                           ;i2c1.c: 286: i2c1_state = S_MASTER_SEND_DATA;
  4953  000188  0E03               	movlw	3
  4954  00018A  6E3B               	movwf	_i2c1_state,c
  4955                           
  4956                           ;i2c1.c: 287: }
  4957                           ;i2c1.c: 288: }
  4958                           ;i2c1.c: 290: break;
  4959  00018C  0012               	return	
  4960  00018E                     i2l71:
  4961                           
  4962                           ;i2c1.c: 294: if(SSP1CON2bits.ACKSTAT)
  4963  00018E  ACC5               	btfss	4037,6,c	;volatile
  4964  000190  D005               	goto	i2l72
  4965                           
  4966                           ;i2c1.c: 295: {
  4967                           ;i2c1.c: 296: i2c1_object.i2cErrors++;
  4968  000192  2A2F               	incf	_i2c1_object+6,f,c
  4969                           
  4970                           ;i2c1.c: 297: I2C1_Stop(I2C1_MESSAGE_ADDRESS_NO_ACK);
  4971  000194  0E04               	movlw	4
  4972  000196  EC53  F006         	call	_I2C1_Stop
  4973                           
  4974                           ;i2c1.c: 298: }
  4975  00019A  0012               	return	
  4976  00019C                     i2l72:
  4977                           
  4978                           ;i2c1.c: 299: else
  4979                           ;i2c1.c: 300: {
  4980                           ;i2c1.c: 303: SSP1CON2bits.RSEN = 1;
  4981  00019C  82C5               	bsf	4037,1,c	;volatile
  4982                           
  4983                           ;i2c1.c: 307: i2c_address = 0x00F0 | ((i2c_address >> 8) & 0x0006);
  4984  00019E  C042  F004         	movff	I2C1_ISR@i2c_address,??_I2C1_ISR
  4985  0001A2  C043  F005         	movff	I2C1_ISR@i2c_address+1,??_I2C1_ISR+1
  4986  0001A6  C005  F004         	movff	??_I2C1_ISR+1,??_I2C1_ISR
  4987  0001AA  6A05               	clrf	??_I2C1_ISR+1,c
  4988  0001AC  0E06               	movlw	6
  4989  0001AE  1604               	andwf	??_I2C1_ISR,f,c
  4990  0001B0  0E00               	movlw	0
  4991  0001B2  1605               	andwf	??_I2C1_ISR+1,f,c
  4992  0001B4  0EF0               	movlw	240
  4993  0001B6  1004               	iorwf	??_I2C1_ISR,w,c
  4994  0001B8  6E42               	movwf	I2C1_ISR@i2c_address,c
  4995  0001BA  5005               	movf	??_I2C1_ISR+1,w,c
  4996  0001BC  6E43               	movwf	I2C1_ISR@i2c_address+1,c
  4997                           
  4998                           ;i2c1.c: 310: i2c_address |= 0x0001;
  4999  0001BE  8042               	bsf	I2C1_ISR@i2c_address,0,c
  5000                           
  5001                           ;i2c1.c: 313: i2c_10bit_address_restart = 1;
  5002  0001C0  0E01               	movlw	1
  5003  0001C2  6E38               	movwf	I2C1_ISR@i2c_10bit_address_restart,c
  5004                           
  5005                           ;i2c1.c: 316: i2c1_state = S_MASTER_SEND_ADDR;
  5006  0001C4  0E02               	movlw	2
  5007  0001C6  6E3B               	movwf	_i2c1_state,c
  5008                           
  5009                           ;i2c1.c: 317: }
  5010                           ;i2c1.c: 319: break;
  5011  0001C8  0012               	return	
  5012  0001CA                     i2l5375:
  5013                           
  5014                           ;i2c1.c: 334: if(i2c_10bit_address_restart != 1)
  5015  0001CA  0438               	decf	I2C1_ISR@i2c_10bit_address_restart,w,c
  5016  0001CC  B4D8               	btfsc	status,2,c
  5017  0001CE  D01E               	goto	i2l76
  5018                           
  5019                           ;i2c1.c: 335: {
  5020                           ;i2c1.c: 337: i2c_address = p_i2c1_trb_current->address;
  5021  0001D0  C034  FFD9         	movff	_p_i2c1_trb_current,fsr2l
  5022  0001D4  C035  FFDA         	movff	_p_i2c1_trb_current+1,fsr2h
  5023  0001D8  CFDE F042          	movff	postinc2,I2C1_ISR@i2c_address
  5024  0001DC  CFDD F043          	movff	postdec2,I2C1_ISR@i2c_address+1
  5025                           
  5026                           ;i2c1.c: 338: pi2c_buf_ptr = p_i2c1_trb_current->pbuffer;
  5027  0001E0  EE20 F003          	lfsr	2,3
  5028  0001E4  5034               	movf	_p_i2c1_trb_current,w,c
  5029  0001E6  26D9               	addwf	fsr2l,f,c
  5030  0001E8  5035               	movf	_p_i2c1_trb_current+1,w,c
  5031  0001EA  22DA               	addwfc	fsr2h,f,c
  5032  0001EC  CFDE F0BA          	movff	postinc2,I2C1_ISR@pi2c_buf_ptr
  5033  0001F0  CFDD F0BB          	movff	postdec2,I2C1_ISR@pi2c_buf_ptr+1
  5034                           
  5035                           ;i2c1.c: 339: i2c_bytes_left = p_i2c1_trb_current->length;
  5036  0001F4  EE20 F002          	lfsr	2,2
  5037  0001F8  5034               	movf	_p_i2c1_trb_current,w,c
  5038  0001FA  26D9               	addwf	fsr2l,f,c
  5039  0001FC  5035               	movf	_p_i2c1_trb_current+1,w,c
  5040  0001FE  22DA               	addwfc	fsr2h,f,c
  5041  000200  50DF               	movf	indf2,w,c
  5042  000202  6E04               	movwf	??_I2C1_ISR& (0+255),c
  5043  000204  5004               	movf	??_I2C1_ISR,w,c
  5044  000206  0100               	movlb	0	; () banked
  5045  000208  6FB8               	movwf	I2C1_ISR@i2c_bytes_left& (0+255),b
  5046  00020A  6BB9               	clrf	(I2C1_ISR@i2c_bytes_left+1)& (0+255),b
  5047  00020C                     i2l76:
  5048                           
  5049                           ;i2c1.c: 362: else
  5050                           ;i2c1.c: 363: {
  5051                           ;i2c1.c: 365: SSP1BUF = i2c_address;
  5052  00020C  C042  FFC9         	movff	I2C1_ISR@i2c_address,4041	;volatile
  5053                           
  5054                           ;i2c1.c: 366: if(i2c_address & 0x01)
  5055  000210  A042               	btfss	I2C1_ISR@i2c_address,0,c
  5056  000212  D003               	goto	i2l5395
  5057                           
  5058                           ;i2c1.c: 367: {
  5059                           ;i2c1.c: 369: i2c1_state = S_MASTER_ACK_ADDR;
  5060  000214  0E05               	movlw	5
  5061  000216  6E3B               	movwf	_i2c1_state,c
  5062                           
  5063                           ;i2c1.c: 370: }
  5064  000218  0012               	return	
  5065  00021A                     i2l5395:
  5066                           
  5067                           ;i2c1.c: 371: else
  5068                           ;i2c1.c: 372: {
  5069                           ;i2c1.c: 374: i2c1_state = S_MASTER_SEND_DATA;
  5070  00021A  0E03               	movlw	3
  5071  00021C  6E3B               	movwf	_i2c1_state,c
  5072                           
  5073                           ;i2c1.c: 375: }
  5074                           ;i2c1.c: 376: }
  5075                           ;i2c1.c: 377: break;
  5076  00021E  0012               	return	
  5077  000220                     i2l82:
  5078                           
  5079                           ;i2c1.c: 382: if(SSP1CON2bits.ACKSTAT)
  5080  000220  ACC5               	btfss	4037,6,c	;volatile
  5081  000222  D006               	goto	i2l5403
  5082                           
  5083                           ;i2c1.c: 383: {
  5084                           ;i2c1.c: 385: i2c1_object.i2cErrors++;
  5085  000224  2A2F               	incf	_i2c1_object+6,f,c
  5086                           
  5087                           ;i2c1.c: 388: SSP1CON2bits.ACKSTAT = 0;
  5088  000226  9CC5               	bcf	4037,6,c	;volatile
  5089                           
  5090                           ;i2c1.c: 391: I2C1_Stop(I2C1_DATA_NO_ACK);
  5091  000228  0E05               	movlw	5
  5092  00022A  EC53  F006         	call	_I2C1_Stop
  5093                           
  5094                           ;i2c1.c: 393: }
  5095  00022E  0012               	return	
  5096  000230                     i2l5403:
  5097                           
  5098                           ;i2c1.c: 394: else
  5099                           ;i2c1.c: 395: {
  5100                           ;i2c1.c: 397: if(i2c_bytes_left-- == 0U)
  5101  000230  0100               	movlb	0	; () banked
  5102  000232  51B8               	movf	I2C1_ISR@i2c_bytes_left& (0+255),w,b
  5103  000234  6E04               	movwf	??_I2C1_ISR& (0+255),c
  5104  000236  0100               	movlb	0	; () banked
  5105  000238  51B9               	movf	(I2C1_ISR@i2c_bytes_left+1)& (0+255),w,b
  5106  00023A  6E05               	movwf	(??_I2C1_ISR+1)& (0+255),c
  5107  00023C  0E01               	movlw	1
  5108  00023E  0100               	movlb	0	; () banked
  5109  000240  5FB8               	subwf	I2C1_ISR@i2c_bytes_left& (0+255),f,b
  5110  000242  0E00               	movlw	0
  5111  000244  0100               	movlb	0	; () banked
  5112  000246  5BB9               	subwfb	(I2C1_ISR@i2c_bytes_left+1)& (0+255),f,b
  5113  000248  5004               	movf	??_I2C1_ISR,w,c
  5114  00024A  1005               	iorwf	??_I2C1_ISR+1,w,c
  5115  00024C  A4D8               	btfss	status,2,c
  5116  00024E  D016               	goto	i2l5411
  5117                           
  5118                           ; BSR set to: 0
  5119                           ;i2c1.c: 398: {
  5120                           ;i2c1.c: 402: p_i2c1_trb_current++;
  5121  000250  0E05               	movlw	5
  5122  000252  2634               	addwf	_p_i2c1_trb_current,f,c
  5123  000254  0E00               	movlw	0
  5124  000256  2235               	addwfc	_p_i2c1_trb_current+1,f,c
  5125                           
  5126                           ;i2c1.c: 405: if(--i2c1_trb_count == 0)
  5127  000258  0100               	movlb	0	; () banked
  5128  00025A  07CA               	decf	_i2c1_trb_count& (0+255),f,b
  5129  00025C  A0D8               	btfss	status,0,c
  5130  00025E  07CB               	decf	(_i2c1_trb_count+1)& (0+255),f,b
  5131  000260  0100               	movlb	0	; () banked
  5132  000262  51CA               	movf	_i2c1_trb_count& (0+255),w,b
  5133  000264  0100               	movlb	0	; () banked
  5134  000266  11CB               	iorwf	(_i2c1_trb_count+1)& (0+255),w,b
  5135  000268  A4D8               	btfss	status,2,c
  5136  00026A  D004               	goto	i2l86
  5137                           
  5138                           ; BSR set to: 0
  5139                           ;i2c1.c: 406: {
  5140                           ;i2c1.c: 407: I2C1_Stop(I2C1_MESSAGE_COMPLETE);
  5141  00026C  0E00               	movlw	0
  5142  00026E  EC53  F006         	call	_I2C1_Stop
  5143                           
  5144                           ;i2c1.c: 408: }
  5145  000272  0012               	return	
  5146  000274                     i2l86:
  5147                           
  5148                           ; BSR set to: 0
  5149                           ;i2c1.c: 409: else
  5150                           ;i2c1.c: 410: {
  5151                           ;i2c1.c: 417: SSP1CON2bits.RSEN = 1;
  5152  000274  82C5               	bsf	4037,1,c	;volatile
  5153                           
  5154                           ; BSR set to: 0
  5155                           ;i2c1.c: 420: i2c1_state = S_MASTER_SEND_ADDR;
  5156  000276  0E02               	movlw	2
  5157  000278  6E3B               	movwf	_i2c1_state,c
  5158                           
  5159                           ; BSR set to: 0
  5160                           ;i2c1.c: 422: }
  5161                           ;i2c1.c: 423: }
  5162  00027A  0012               	return	
  5163  00027C                     i2l5411:
  5164                           
  5165                           ; BSR set to: 0
  5166                           ;i2c1.c: 424: else
  5167                           ;i2c1.c: 425: {
  5168                           ;i2c1.c: 427: SSP1BUF = *pi2c_buf_ptr++;
  5169  00027C  C0BA  FFF6         	movff	I2C1_ISR@pi2c_buf_ptr,tblptrl
  5170  000280  C0BB  FFF7         	movff	I2C1_ISR@pi2c_buf_ptr+1,tblptrh
  5171  000284  6AF8               	clrf	tblptru,c
  5172  000286  0E05               	movlw	(high __ramtop+-1)
  5173  000288  64F7               	cpfsgt	tblptrh,c
  5174  00028A  D003               	bra	i2u527_47
  5175  00028C  0008               	tblrd		*
  5176  00028E  50F5               	movf	tablat,w,c
  5177  000290  D005               	bra	i2u527_40
  5178  000292                     i2u527_47:
  5179  000292  CFF6 FFE9          	movff	tblptrl,fsr0l
  5180  000296  CFF7 FFEA          	movff	tblptrh,fsr0h
  5181  00029A  50EF               	movf	indf0,w,c
  5182  00029C                     i2u527_40:
  5183  00029C  6EC9               	movwf	4041,c	;volatile
  5184  00029E  0100               	movlb	0	; () banked
  5185  0002A0  4BBA               	infsnz	I2C1_ISR@pi2c_buf_ptr& (0+255),f,b
  5186  0002A2  2BBB               	incf	(I2C1_ISR@pi2c_buf_ptr+1)& (0+255),f,b
  5187                           
  5188                           ; BSR set to: 0
  5189                           ;i2c1.c: 428: }
  5190                           ;i2c1.c: 429: }
  5191                           ;i2c1.c: 430: break;
  5192                           
  5193                           ; BSR set to: 0
  5194  0002A4  0012               	return	
  5195  0002A6                     i2l89:
  5196                           
  5197                           ;i2c1.c: 435: if(SSP1CON2bits.ACKSTAT)
  5198  0002A6  ACC5               	btfss	4037,6,c	;volatile
  5199  0002A8  D006               	goto	i2l90
  5200                           
  5201                           ;i2c1.c: 436: {
  5202                           ;i2c1.c: 439: i2c1_object.i2cErrors++;
  5203  0002AA  2A2F               	incf	_i2c1_object+6,f,c
  5204                           
  5205                           ;i2c1.c: 442: I2C1_Stop(I2C1_MESSAGE_ADDRESS_NO_ACK);
  5206  0002AC  0E04               	movlw	4
  5207  0002AE  EC53  F006         	call	_I2C1_Stop
  5208                           
  5209                           ;i2c1.c: 445: SSP1CON2bits.ACKSTAT = 0;
  5210  0002B2  9CC5               	bcf	4037,6,c	;volatile
  5211                           
  5212                           ;i2c1.c: 446: }
  5213  0002B4  0012               	return	
  5214  0002B6                     i2l90:
  5215                           
  5216                           ;i2c1.c: 447: else
  5217                           ;i2c1.c: 448: {
  5218                           ;i2c1.c: 449: SSP1CON2bits.RCEN = 1;
  5219  0002B6  86C5               	bsf	4037,3,c	;volatile
  5220                           
  5221                           ;i2c1.c: 450: i2c1_state = S_MASTER_ACK_RCV_DATA;
  5222  0002B8  0E08               	movlw	8
  5223  0002BA  6E3B               	movwf	_i2c1_state,c
  5224                           
  5225                           ;i2c1.c: 451: }
  5226                           ;i2c1.c: 452: break;
  5227  0002BC  0012               	return	
  5228  0002BE                     i2l5423:
  5229                           
  5230                           ;i2c1.c: 459: i2c1_state = S_MASTER_ACK_RCV_DATA;
  5231  0002BE  0E08               	movlw	8
  5232  0002C0  6E3B               	movwf	_i2c1_state,c
  5233                           
  5234                           ;i2c1.c: 462: SSP1CON2bits.RCEN = 1;
  5235  0002C2  86C5               	bsf	4037,3,c	;volatile
  5236                           
  5237                           ;i2c1.c: 464: break;
  5238  0002C4  0012               	return	
  5239  0002C6                     i2l5427:
  5240                           
  5241                           ;i2c1.c: 469: *pi2c_buf_ptr++ = SSP1BUF;
  5242  0002C6  C0BA  FFF6         	movff	I2C1_ISR@pi2c_buf_ptr,tblptrl
  5243  0002CA  C0BB  FFF7         	movff	I2C1_ISR@pi2c_buf_ptr+1,tblptrh
  5244  0002CE  6AF8               	clrf	tblptru,c
  5245  0002D0  0E05               	movlw	(high __ramtop+-1)
  5246  0002D2  64F7               	cpfsgt	tblptrh,c
  5247  0002D4  D004               	bra	i2u529_47
  5248  0002D6  CFC9 FFF5          	movff	4041,tablat	;volatile
  5249  0002DA  000C               	tblwt		*
  5250  0002DC  D006               	bra	i2u529_40
  5251  0002DE                     i2u529_47:
  5252  0002DE  CFF6 FFE9          	movff	tblptrl,fsr0l
  5253  0002E2  CFF7 FFEA          	movff	tblptrh,fsr0h
  5254  0002E6  CFC9 FFEF          	movff	4041,indf0	;volatile
  5255  0002EA                     i2u529_40:
  5256  0002EA  0100               	movlb	0	; () banked
  5257  0002EC  4BBA               	infsnz	I2C1_ISR@pi2c_buf_ptr& (0+255),f,b
  5258  0002EE  2BBB               	incf	(I2C1_ISR@pi2c_buf_ptr+1)& (0+255),f,b
  5259                           
  5260                           ; BSR set to: 0
  5261                           ;i2c1.c: 472: if(--i2c_bytes_left)
  5262  0002F0  0100               	movlb	0	; () banked
  5263  0002F2  07B8               	decf	I2C1_ISR@i2c_bytes_left& (0+255),f,b
  5264  0002F4  A0D8               	btfss	status,0,c
  5265  0002F6  07B9               	decf	(I2C1_ISR@i2c_bytes_left+1)& (0+255),f,b
  5266  0002F8  0100               	movlb	0	; () banked
  5267  0002FA  51B8               	movf	I2C1_ISR@i2c_bytes_left& (0+255),w,b
  5268  0002FC  0100               	movlb	0	; () banked
  5269  0002FE  11B9               	iorwf	(I2C1_ISR@i2c_bytes_left+1)& (0+255),w,b
  5270  000300  B4D8               	btfsc	status,2,c
  5271  000302  D004               	goto	i2l94
  5272                           
  5273                           ; BSR set to: 0
  5274                           ;i2c1.c: 473: {
  5275                           ;i2c1.c: 479: SSP1CON2bits.ACKDT = 0;
  5276  000304  9AC5               	bcf	4037,5,c	;volatile
  5277                           
  5278                           ; BSR set to: 0
  5279                           ;i2c1.c: 482: i2c1_state = S_MASTER_RCV_DATA;
  5280  000306  0E06               	movlw	6
  5281  000308  6E3B               	movwf	_i2c1_state,c
  5282                           
  5283                           ;i2c1.c: 483: }
  5284  00030A  D003               	goto	i2l5439
  5285  00030C                     i2l94:
  5286                           
  5287                           ; BSR set to: 0
  5288                           ;i2c1.c: 484: else
  5289                           ;i2c1.c: 485: {
  5290                           ;i2c1.c: 489: SSP1CON2bits.ACKDT = 1;
  5291  00030C  8AC5               	bsf	4037,5,c	;volatile
  5292                           
  5293                           ; BSR set to: 0
  5294                           ;i2c1.c: 491: I2C1_FunctionComplete();
  5295  00030E  ECE9  F006         	call	_I2C1_FunctionComplete	;wreg free
  5296  000312                     i2l5439:
  5297                           
  5298                           ;i2c1.c: 492: }
  5299                           ;i2c1.c: 495: SSP1CON2bits.ACKEN = 1;
  5300  000312  88C5               	bsf	4037,4,c	;volatile
  5301                           
  5302                           ;i2c1.c: 496: break;
  5303  000314  0012               	return	
  5304  000316                     i2l5441:
  5305                           
  5306                           ;i2c1.c: 499: case S_MASTER_SEND_STOP:
  5307                           ;i2c1.c: 502: I2C1_Stop(I2C1_MESSAGE_COMPLETE);
  5308  000316  0E00               	movlw	0
  5309  000318  EC53  F006         	call	_I2C1_Stop
  5310                           
  5311                           ;i2c1.c: 503: break;
  5312  00031C  0012               	return	
  5313  00031E                     i2l5443:
  5314                           
  5315                           ;i2c1.c: 509: i2c1_object.i2cErrors++;
  5316  00031E  2A2F               	incf	_i2c1_object+6,f,c
  5317                           
  5318                           ;i2c1.c: 510: I2C1_Stop(I2C1_LOST_STATE);
  5319  000320  0E06               	movlw	6
  5320  000322  EC53  F006         	call	_I2C1_Stop
  5321                           
  5322                           ;i2c1.c: 513: }
  5323                           
  5324                           ;i2c1.c: 511: break;
  5325  000326  0012               	return	
  5326  000328                     i2l5449:
  5327  000328  503B               	movf	_i2c1_state,w,c
  5328                           
  5329                           ; Switch size 1, requested type "space"
  5330                           ; Number of cases is 11, Range of values is 0 to 11
  5331                           ; switch strategies available:
  5332                           ; Name         Instructions Cycles
  5333                           ; simple_byte           34    18 (average)
  5334                           ;	Chosen strategy is simple_byte
  5335  00032A  0A00               	xorlw	0	; case 0
  5336  00032C  B4D8               	btfsc	status,2,c
  5337  00032E  D6E0               	goto	i2l60
  5338  000330  0A01               	xorlw	1	; case 1
  5339  000332  B4D8               	btfsc	status,2,c
  5340  000334  D712               	goto	i2l65
  5341  000336  0A03               	xorlw	3	; case 2
  5342  000338  B4D8               	btfsc	status,2,c
  5343  00033A  D747               	goto	i2l5375
  5344  00033C  0A01               	xorlw	1	; case 3
  5345  00033E  B4D8               	btfsc	status,2,c
  5346  000340  D76F               	goto	i2l82
  5347  000342  0A07               	xorlw	7	; case 4
  5348  000344  B4D8               	btfsc	status,2,c
  5349  000346  D7E7               	goto	i2l5441
  5350  000348  0A01               	xorlw	1	; case 5
  5351  00034A  B4D8               	btfsc	status,2,c
  5352  00034C  D7AC               	goto	i2l89
  5353  00034E  0A03               	xorlw	3	; case 6
  5354  000350  B4D8               	btfsc	status,2,c
  5355  000352  D7B5               	goto	i2l5423
  5356  000354  0A01               	xorlw	1	; case 7
  5357  000356  B4D8               	btfsc	status,2,c
  5358  000358  D7DE               	goto	i2l5441
  5359  00035A  0A0F               	xorlw	15	; case 8
  5360  00035C  B4D8               	btfsc	status,2,c
  5361  00035E  D7B3               	goto	i2l5427
  5362  000360  0A02               	xorlw	2	; case 10
  5363  000362  B4D8               	btfsc	status,2,c
  5364  000364  D6FE               	goto	i2l66
  5365  000366  0A01               	xorlw	1	; case 11
  5366  000368  B4D8               	btfsc	status,2,c
  5367  00036A  D711               	goto	i2l71
  5368  00036C  D7D8               	goto	i2l5443
  5369  00036E                     __end_of_I2C1_ISR:
  5370                           	opt stack 0
  5371                           pclatu	equ	0xFFB
  5372                           pclath	equ	0xFFA
  5373                           tblptru	equ	0xFF8
  5374                           tblptrh	equ	0xFF7
  5375                           tblptrl	equ	0xFF6
  5376                           tablat	equ	0xFF5
  5377                           prodh	equ	0xFF4
  5378                           prodl	equ	0xFF3
  5379                           intcon	equ	0xFF2
  5380                           intcon2	equ	0xFF1
  5381                           indf0	equ	0xFEF
  5382                           postinc0	equ	0xFEE
  5383                           fsr0h	equ	0xFEA
  5384                           fsr0l	equ	0xFE9
  5385                           wreg	equ	0xFE8
  5386                           fsr1h	equ	0xFE2
  5387                           fsr1l	equ	0xFE1
  5388                           indf2	equ	0xFDF
  5389                           postinc2	equ	0xFDE
  5390                           postdec2	equ	0xFDD
  5391                           fsr2h	equ	0xFDA
  5392                           fsr2l	equ	0xFD9
  5393                           status	equ	0xFD8
  5394                           
  5395 ;; *************** function _I2C1_Stop *****************
  5396 ;; Defined at:
  5397 ;;		line 534 in file "mcc_generated_files/i2c1.c"
  5398 ;; Parameters:    Size  Location     Type
  5399 ;;  completion_c    1    wreg     enum E8678
  5400 ;; Auto vars:     Size  Location     Type
  5401 ;;  completion_c    1    2[COMRAM] enum E8678
  5402 ;; Return value:  Size  Location     Type
  5403 ;;                  1    wreg      void 
  5404 ;; Registers used:
  5405 ;;		wreg, fsr2l, fsr2h, status,2, status,0
  5406 ;; Tracked objects:
  5407 ;;		On entry : 0/0
  5408 ;;		On exit  : 0/0
  5409 ;;		Unchanged: 0/0
  5410 ;; Data sizes:     COMRAM   BANK0   BANK1   BANK2   BANK3   BANK4   BANK5
  5411 ;;      Params:         0       0       0       0       0       0       0
  5412 ;;      Locals:         1       0       0       0       0       0       0
  5413 ;;      Temps:          2       0       0       0       0       0       0
  5414 ;;      Totals:         3       0       0       0       0       0       0
  5415 ;;Total ram usage:        3 bytes
  5416 ;; Hardware stack levels used:    1
  5417 ;; This function calls:
  5418 ;;		Nothing
  5419 ;; This function is called by:
  5420 ;;		_I2C1_ISR
  5421 ;; This function uses a non-reentrant model
  5422 ;;
  5423                           
  5424                           	psect	text25
  5425  000CA6                     __ptext25:
  5426                           	opt stack 0
  5427  000CA6                     _I2C1_Stop:
  5428                           	opt stack 22
  5429                           
  5430                           ;incstack = 0
  5431                           ;I2C1_Stop@completion_code stored from wreg
  5432  000CA6  6E03               	movwf	I2C1_Stop@completion_code,c
  5433                           
  5434                           ;i2c1.c: 537: SSP1CON2bits.PEN = 1;
  5435  000CA8  84C5               	bsf	4037,2,c	;volatile
  5436                           
  5437                           ;i2c1.c: 540: if (p_i2c1_current->pTrFlag != (0))
  5438  000CAA  EE20 F003          	lfsr	2,3
  5439  000CAE  5032               	movf	_p_i2c1_current,w,c
  5440  000CB0  26D9               	addwf	fsr2l,f,c
  5441  000CB2  5033               	movf	_p_i2c1_current+1,w,c
  5442  000CB4  22DA               	addwfc	fsr2h,f,c
  5443  000CB6  50DE               	movf	postinc2,w,c
  5444  000CB8  10DE               	iorwf	postinc2,w,c
  5445  000CBA  B4D8               	btfsc	status,2,c
  5446  000CBC  D010               	goto	i2l5281
  5447                           
  5448                           ;i2c1.c: 541: {
  5449                           ;i2c1.c: 543: *(p_i2c1_current->pTrFlag) = completion_code;
  5450  000CBE  EE20 F003          	lfsr	2,3
  5451  000CC2  5032               	movf	_p_i2c1_current,w,c
  5452  000CC4  26D9               	addwf	fsr2l,f,c
  5453  000CC6  5033               	movf	_p_i2c1_current+1,w,c
  5454  000CC8  22DA               	addwfc	fsr2h,f,c
  5455  000CCA  CFDE F001          	movff	postinc2,??_I2C1_Stop
  5456  000CCE  CFDD F002          	movff	postdec2,??_I2C1_Stop+1
  5457  000CD2  C001  FFD9         	movff	??_I2C1_Stop,fsr2l
  5458  000CD6  C002  FFDA         	movff	??_I2C1_Stop+1,fsr2h
  5459  000CDA  C003  FFDF         	movff	I2C1_Stop@completion_code,indf2
  5460  000CDE                     i2l5281:
  5461                           
  5462                           ;i2c1.c: 544: }
  5463                           ;i2c1.c: 547: i2c1_state = S_MASTER_IDLE;
  5464  000CDE  0E00               	movlw	0
  5465  000CE0  6E3B               	movwf	_i2c1_state,c
  5466  000CE2  0012               	return		;funcret
  5467  000CE4                     __end_of_I2C1_Stop:
  5468                           	opt stack 0
  5469                           pclatu	equ	0xFFB
  5470                           pclath	equ	0xFFA
  5471                           tblptru	equ	0xFF8
  5472                           tblptrh	equ	0xFF7
  5473                           tblptrl	equ	0xFF6
  5474                           tablat	equ	0xFF5
  5475                           prodh	equ	0xFF4
  5476                           prodl	equ	0xFF3
  5477                           intcon	equ	0xFF2
  5478                           intcon2	equ	0xFF1
  5479                           indf0	equ	0xFEF
  5480                           postinc0	equ	0xFEE
  5481                           fsr0h	equ	0xFEA
  5482                           fsr0l	equ	0xFE9
  5483                           wreg	equ	0xFE8
  5484                           fsr1h	equ	0xFE2
  5485                           fsr1l	equ	0xFE1
  5486                           indf2	equ	0xFDF
  5487                           postinc2	equ	0xFDE
  5488                           postdec2	equ	0xFDD
  5489                           fsr2h	equ	0xFDA
  5490                           fsr2l	equ	0xFD9
  5491                           status	equ	0xFD8
  5492                           
  5493 ;; *************** function _I2C1_FunctionComplete *****************
  5494 ;; Defined at:
  5495 ;;		line 516 in file "mcc_generated_files/i2c1.c"
  5496 ;; Parameters:    Size  Location     Type
  5497 ;;		None
  5498 ;; Auto vars:     Size  Location     Type
  5499 ;;		None
  5500 ;; Return value:  Size  Location     Type
  5501 ;;                  1    wreg      void 
  5502 ;; Registers used:
  5503 ;;		wreg, status,2, status,0
  5504 ;; Tracked objects:
  5505 ;;		On entry : 0/0
  5506 ;;		On exit  : 0/0
  5507 ;;		Unchanged: 0/0
  5508 ;; Data sizes:     COMRAM   BANK0   BANK1   BANK2   BANK3   BANK4   BANK5
  5509 ;;      Params:         0       0       0       0       0       0       0
  5510 ;;      Locals:         0       0       0       0       0       0       0
  5511 ;;      Temps:          0       0       0       0       0       0       0
  5512 ;;      Totals:         0       0       0       0       0       0       0
  5513 ;;Total ram usage:        0 bytes
  5514 ;; Hardware stack levels used:    1
  5515 ;; This function calls:
  5516 ;;		Nothing
  5517 ;; This function is called by:
  5518 ;;		_I2C1_ISR
  5519 ;; This function uses a non-reentrant model
  5520 ;;
  5521                           
  5522                           	psect	text26
  5523  000DD2                     __ptext26:
  5524                           	opt stack 0
  5525  000DD2                     _I2C1_FunctionComplete:
  5526                           	opt stack 22
  5527                           
  5528                           ;i2c1.c: 520: p_i2c1_trb_current++;
  5529                           
  5530                           ;incstack = 0
  5531  000DD2  0E05               	movlw	5
  5532  000DD4  2634               	addwf	_p_i2c1_trb_current,f,c
  5533  000DD6  0E00               	movlw	0
  5534  000DD8  2235               	addwfc	_p_i2c1_trb_current+1,f,c
  5535                           
  5536                           ;i2c1.c: 523: if(--i2c1_trb_count == 0)
  5537  000DDA  0100               	movlb	0	; () banked
  5538  000DDC  07CA               	decf	_i2c1_trb_count& (0+255),f,b
  5539  000DDE  A0D8               	btfss	status,0,c
  5540  000DE0  07CB               	decf	(_i2c1_trb_count+1)& (0+255),f,b
  5541  000DE2  0100               	movlb	0	; () banked
  5542  000DE4  51CA               	movf	_i2c1_trb_count& (0+255),w,b
  5543  000DE6  0100               	movlb	0	; () banked
  5544  000DE8  11CB               	iorwf	(_i2c1_trb_count+1)& (0+255),w,b
  5545  000DEA  A4D8               	btfss	status,2,c
  5546  000DEC  D003               	goto	i2l5287
  5547                           
  5548                           ; BSR set to: 0
  5549                           ;i2c1.c: 524: {
  5550                           ;i2c1.c: 525: i2c1_state = S_MASTER_SEND_STOP;
  5551  000DEE  0E04               	movlw	4
  5552  000DF0  6E3B               	movwf	_i2c1_state,c
  5553                           
  5554                           ;i2c1.c: 526: }
  5555  000DF2  0012               	return	
  5556  000DF4                     i2l5287:
  5557                           
  5558                           ; BSR set to: 0
  5559                           ;i2c1.c: 527: else
  5560                           ;i2c1.c: 528: {
  5561                           ;i2c1.c: 529: i2c1_state = S_MASTER_RESTART;
  5562  000DF4  0E01               	movlw	1
  5563  000DF6  6E3B               	movwf	_i2c1_state,c
  5564  000DF8  0012               	return	
  5565  000DFA                     __end_of_I2C1_FunctionComplete:
  5566                           	opt stack 0
  5567                           pclatu	equ	0xFFB
  5568                           pclath	equ	0xFFA
  5569                           tblptru	equ	0xFF8
  5570                           tblptrh	equ	0xFF7
  5571                           tblptrl	equ	0xFF6
  5572                           tablat	equ	0xFF5
  5573                           prodh	equ	0xFF4
  5574                           prodl	equ	0xFF3
  5575                           intcon	equ	0xFF2
  5576                           intcon2	equ	0xFF1
  5577                           indf0	equ	0xFEF
  5578                           postinc0	equ	0xFEE
  5579                           fsr0h	equ	0xFEA
  5580                           fsr0l	equ	0xFE9
  5581                           wreg	equ	0xFE8
  5582                           fsr1h	equ	0xFE2
  5583                           fsr1l	equ	0xFE1
  5584                           indf2	equ	0xFDF
  5585                           postinc2	equ	0xFDE
  5586                           postdec2	equ	0xFDD
  5587                           fsr2h	equ	0xFDA
  5588                           fsr2l	equ	0xFD9
  5589                           status	equ	0xFD8
  5590                           
  5591 ;; *************** function _I2C1_BusCollisionISR *****************
  5592 ;; Defined at:
  5593 ;;		line 681 in file "mcc_generated_files/i2c1.c"
  5594 ;; Parameters:    Size  Location     Type
  5595 ;;		None
  5596 ;; Auto vars:     Size  Location     Type
  5597 ;;		None
  5598 ;; Return value:  Size  Location     Type
  5599 ;;                  1    wreg      void 
  5600 ;; Registers used:
  5601 ;;		None
  5602 ;; Tracked objects:
  5603 ;;		On entry : 0/0
  5604 ;;		On exit  : 0/0
  5605 ;;		Unchanged: 0/0
  5606 ;; Data sizes:     COMRAM   BANK0   BANK1   BANK2   BANK3   BANK4   BANK5
  5607 ;;      Params:         0       0       0       0       0       0       0
  5608 ;;      Locals:         0       0       0       0       0       0       0
  5609 ;;      Temps:          0       0       0       0       0       0       0
  5610 ;;      Totals:         0       0       0       0       0       0       0
  5611 ;;Total ram usage:        0 bytes
  5612 ;; Hardware stack levels used:    1
  5613 ;; This function calls:
  5614 ;;		Nothing
  5615 ;; This function is called by:
  5616 ;;		_INTERRUPT_InterruptManager
  5617 ;; This function uses a non-reentrant model
  5618 ;;
  5619                           
  5620                           	psect	text27
  5621  000E80                     __ptext27:
  5622                           	opt stack 0
  5623  000E80                     _I2C1_BusCollisionISR:
  5624                           	opt stack 23
  5625                           
  5626                           ; BSR set to: 0
  5627                           ;incstack = 0
  5628  000E80  0012               	return		;funcret
  5629  000E82                     __end_of_I2C1_BusCollisionISR:
  5630                           	opt stack 0
  5631                           pclatu	equ	0xFFB
  5632                           pclath	equ	0xFFA
  5633                           tblptru	equ	0xFF8
  5634                           tblptrh	equ	0xFF7
  5635                           tblptrl	equ	0xFF6
  5636                           tablat	equ	0xFF5
  5637                           prodh	equ	0xFF4
  5638                           prodl	equ	0xFF3
  5639                           intcon	equ	0xFF2
  5640                           intcon2	equ	0xFF1
  5641                           indf0	equ	0xFEF
  5642                           postinc0	equ	0xFEE
  5643                           fsr0h	equ	0xFEA
  5644                           fsr0l	equ	0xFE9
  5645                           wreg	equ	0xFE8
  5646                           fsr1h	equ	0xFE2
  5647                           fsr1l	equ	0xFE1
  5648                           indf2	equ	0xFDF
  5649                           postinc2	equ	0xFDE
  5650                           postdec2	equ	0xFDD
  5651                           fsr2h	equ	0xFDA
  5652                           fsr2l	equ	0xFD9
  5653                           status	equ	0xFD8
  5654                           
  5655 ;; *************** function _EUSART1_Transmit_ISR *****************
  5656 ;; Defined at:
  5657 ;;		line 150 in file "UART.c"
  5658 ;; Parameters:    Size  Location     Type
  5659 ;;		None
  5660 ;; Auto vars:     Size  Location     Type
  5661 ;;		None
  5662 ;; Return value:  Size  Location     Type
  5663 ;;                  1    wreg      void 
  5664 ;; Registers used:
  5665 ;;		wreg, fsr2l, fsr2h, status,2, status,0, cstack
  5666 ;; Tracked objects:
  5667 ;;		On entry : 0/0
  5668 ;;		On exit  : 0/0
  5669 ;;		Unchanged: 0/0
  5670 ;; Data sizes:     COMRAM   BANK0   BANK1   BANK2   BANK3   BANK4   BANK5
  5671 ;;      Params:         0       0       0       0       0       0       0
  5672 ;;      Locals:         0       0       0       0       0       0       0
  5673 ;;      Temps:          0       0       0       0       0       0       0
  5674 ;;      Totals:         0       0       0       0       0       0       0
  5675 ;;Total ram usage:        0 bytes
  5676 ;; Hardware stack levels used:    1
  5677 ;; Hardware stack levels required when called:    2
  5678 ;; This function calls:
  5679 ;;		_UART_buff_get
  5680 ;;		_UART_buff_size
  5681 ;; This function is called by:
  5682 ;;		_INTERRUPT_InterruptManager
  5683 ;; This function uses a non-reentrant model
  5684 ;;
  5685                           
  5686                           	psect	text28
  5687  000D20                     __ptext28:
  5688                           	opt stack 0
  5689  000D20                     _EUSART1_Transmit_ISR:
  5690                           	opt stack 21
  5691                           
  5692                           ;UART.c: 152: if (UART_buff_size(&output_buffer) > 0) {
  5693                           
  5694                           ;incstack = 0
  5695  000D20  0E00               	movlw	low _output_buffer
  5696  000D22  6E01               	movwf	UART_buff_size@_this,c
  5697  000D24  0E03               	movlw	high _output_buffer
  5698  000D26  6E02               	movwf	UART_buff_size@_this+1,c
  5699  000D28  EC0C  F007         	call	_UART_buff_size	;wreg free
  5700  000D2C  BE02               	btfsc	?_UART_buff_size+1,7,c
  5701  000D2E  D00D               	goto	i2l4019
  5702  000D30  5002               	movf	?_UART_buff_size+1,w,c
  5703  000D32  E103               	bnz	i2u301_40
  5704  000D34  0401               	decf	?_UART_buff_size,w,c
  5705  000D36  A0D8               	btfss	status,0,c
  5706  000D38  D008               	goto	i2l4019
  5707  000D3A                     i2u301_40:
  5708                           
  5709                           ;UART.c: 153: TXREG1 = UART_buff_get(&output_buffer);
  5710  000D3A  0E00               	movlw	low _output_buffer
  5711  000D3C  6E07               	movwf	UART_buff_get@_this,c
  5712  000D3E  0E03               	movlw	high _output_buffer
  5713  000D40  6E08               	movwf	UART_buff_get@_this+1,c
  5714  000D42  ECF4  F003         	call	_UART_buff_get	;wreg free
  5715  000D46  6EAD               	movwf	4013,c	;volatile
  5716                           
  5717                           ;UART.c: 154: } else {
  5718  000D48  0012               	return	
  5719  000D4A                     i2l4019:
  5720                           
  5721                           ;UART.c: 155: Transmit_stall = 1;
  5722  000D4A  0E01               	movlw	1
  5723  000D4C  6E44               	movwf	_Transmit_stall,c
  5724                           
  5725                           ;UART.c: 156: PIE1bits.TX1IE = 0;
  5726  000D4E  989D               	bcf	3997,4,c	;volatile
  5727  000D50  0012               	return	
  5728  000D52                     __end_of_EUSART1_Transmit_ISR:
  5729                           	opt stack 0
  5730                           pclatu	equ	0xFFB
  5731                           pclath	equ	0xFFA
  5732                           tblptru	equ	0xFF8
  5733                           tblptrh	equ	0xFF7
  5734                           tblptrl	equ	0xFF6
  5735                           tablat	equ	0xFF5
  5736                           prodh	equ	0xFF4
  5737                           prodl	equ	0xFF3
  5738                           intcon	equ	0xFF2
  5739                           intcon2	equ	0xFF1
  5740                           indf0	equ	0xFEF
  5741                           postinc0	equ	0xFEE
  5742                           fsr0h	equ	0xFEA
  5743                           fsr0l	equ	0xFE9
  5744                           wreg	equ	0xFE8
  5745                           fsr1h	equ	0xFE2
  5746                           fsr1l	equ	0xFE1
  5747                           indf2	equ	0xFDF
  5748                           postinc2	equ	0xFDE
  5749                           postdec2	equ	0xFDD
  5750                           fsr2h	equ	0xFDA
  5751                           fsr2l	equ	0xFD9
  5752                           status	equ	0xFD8
  5753                           
  5754 ;; *************** function _UART_buff_size *****************
  5755 ;; Defined at:
  5756 ;;		line 102 in file "UART.c"
  5757 ;; Parameters:    Size  Location     Type
  5758 ;;  _this           2    0[COMRAM] PTR struct UART_ring_buf
  5759 ;;		 -> output_buffer(206), input_buffer(206), 
  5760 ;; Auto vars:     Size  Location     Type
  5761 ;;		None
  5762 ;; Return value:  Size  Location     Type
  5763 ;;                  2    0[COMRAM] int 
  5764 ;; Registers used:
  5765 ;;		wreg, fsr2l, fsr2h, status,2, status,0
  5766 ;; Tracked objects:
  5767 ;;		On entry : 0/0
  5768 ;;		On exit  : 0/0
  5769 ;;		Unchanged: 0/0
  5770 ;; Data sizes:     COMRAM   BANK0   BANK1   BANK2   BANK3   BANK4   BANK5
  5771 ;;      Params:         2       0       0       0       0       0       0
  5772 ;;      Locals:         0       0       0       0       0       0       0
  5773 ;;      Temps:          0       0       0       0       0       0       0
  5774 ;;      Totals:         2       0       0       0       0       0       0
  5775 ;;Total ram usage:        2 bytes
  5776 ;; Hardware stack levels used:    1
  5777 ;; This function calls:
  5778 ;;		Nothing
  5779 ;; This function is called by:
  5780 ;;		_EUSART1_Transmit_ISR
  5781 ;;		_Receive_available
  5782 ;; This function uses a non-reentrant model
  5783 ;;
  5784                           
  5785                           	psect	text29
  5786  000E18                     __ptext29:
  5787                           	opt stack 0
  5788  000E18                     _UART_buff_size:
  5789                           	opt stack 22
  5790                           
  5791                           ;UART.c: 103: return (_this->count);
  5792                           
  5793                           ;incstack = 0
  5794  000E18  EE20 F0CC          	lfsr	2,204
  5795  000E1C  5001               	movf	UART_buff_size@_this,w,c
  5796  000E1E  26D9               	addwf	fsr2l,f,c
  5797  000E20  5002               	movf	UART_buff_size@_this+1,w,c
  5798  000E22  22DA               	addwfc	fsr2h,f,c
  5799  000E24  CFDE F001          	movff	postinc2,?_UART_buff_size
  5800  000E28  CFDD F002          	movff	postdec2,?_UART_buff_size+1
  5801  000E2C  0012               	return	
  5802  000E2E                     __end_of_UART_buff_size:
  5803                           	opt stack 0
  5804                           pclatu	equ	0xFFB
  5805                           pclath	equ	0xFFA
  5806                           tblptru	equ	0xFF8
  5807                           tblptrh	equ	0xFF7
  5808                           tblptrl	equ	0xFF6
  5809                           tablat	equ	0xFF5
  5810                           prodh	equ	0xFF4
  5811                           prodl	equ	0xFF3
  5812                           intcon	equ	0xFF2
  5813                           intcon2	equ	0xFF1
  5814                           indf0	equ	0xFEF
  5815                           postinc0	equ	0xFEE
  5816                           fsr0h	equ	0xFEA
  5817                           fsr0l	equ	0xFE9
  5818                           wreg	equ	0xFE8
  5819                           fsr1h	equ	0xFE2
  5820                           fsr1l	equ	0xFE1
  5821                           indf2	equ	0xFDF
  5822                           postinc2	equ	0xFDE
  5823                           postdec2	equ	0xFDD
  5824                           fsr2h	equ	0xFDA
  5825                           fsr2l	equ	0xFD9
  5826                           status	equ	0xFD8
  5827                           
  5828 ;; *************** function _UART_buff_get *****************
  5829 ;; Defined at:
  5830 ;;		line 81 in file "UART.c"
  5831 ;; Parameters:    Size  Location     Type
  5832 ;;  _this           2    6[COMRAM] PTR struct UART_ring_buf
  5833 ;;		 -> output_buffer(206), input_buffer(206), 
  5834 ;; Auto vars:     Size  Location     Type
  5835 ;;  c               1   10[COMRAM] unsigned char 
  5836 ;; Return value:  Size  Location     Type
  5837 ;;                  1    wreg      unsigned char 
  5838 ;; Registers used:
  5839 ;;		wreg, fsr2l, fsr2h, status,2, status,0, cstack
  5840 ;; Tracked objects:
  5841 ;;		On entry : 0/0
  5842 ;;		On exit  : 0/0
  5843 ;;		Unchanged: 0/0
  5844 ;; Data sizes:     COMRAM   BANK0   BANK1   BANK2   BANK3   BANK4   BANK5
  5845 ;;      Params:         2       0       0       0       0       0       0
  5846 ;;      Locals:         1       0       0       0       0       0       0
  5847 ;;      Temps:          2       0       0       0       0       0       0
  5848 ;;      Totals:         5       0       0       0       0       0       0
  5849 ;;Total ram usage:        5 bytes
  5850 ;; Hardware stack levels used:    1
  5851 ;; Hardware stack levels required when called:    1
  5852 ;; This function calls:
  5853 ;;		_UART_buff_modulo_inc
  5854 ;; This function is called by:
  5855 ;;		_EUSART1_Transmit_ISR
  5856 ;;		_Receive_get
  5857 ;;		_Send_put
  5858 ;; This function uses a non-reentrant model
  5859 ;;
  5860                           
  5861                           	psect	text30
  5862  0007E8                     __ptext30:
  5863                           	opt stack 0
  5864  0007E8                     _UART_buff_get:
  5865                           	opt stack 21
  5866                           
  5867                           ;UART.c: 82: unsigned char c;
  5868                           ;UART.c: 83: if (_this->count > 0) {
  5869                           
  5870                           ;incstack = 0
  5871  0007E8  EE20 F0CC          	lfsr	2,204
  5872  0007EC  5007               	movf	UART_buff_get@_this,w,c
  5873  0007EE  26D9               	addwf	fsr2l,f,c
  5874  0007F0  5008               	movf	UART_buff_get@_this+1,w,c
  5875  0007F2  22DA               	addwfc	fsr2h,f,c
  5876  0007F4  0E01               	movlw	1
  5877  0007F6  BEDB               	btfsc	plusw2,7,c
  5878  0007F8  D03C               	goto	i2l3839
  5879  0007FA  0E01               	movlw	1
  5880  0007FC  50DB               	movf	plusw2,w,c
  5881  0007FE  E103               	bnz	i2u274_40
  5882  000800  04DE               	decf	postinc2,w,c
  5883  000802  A0D8               	btfss	status,0,c
  5884  000804  D036               	goto	i2l3839
  5885  000806                     i2u274_40:
  5886                           
  5887                           ;UART.c: 84: c = _this->buf[_this->tail];
  5888  000806  EE20 F0CA          	lfsr	2,202
  5889  00080A  5007               	movf	UART_buff_get@_this,w,c
  5890  00080C  26D9               	addwf	fsr2l,f,c
  5891  00080E  5008               	movf	UART_buff_get@_this+1,w,c
  5892  000810  22DA               	addwfc	fsr2h,f,c
  5893  000812  CFDE F009          	movff	postinc2,??_UART_buff_get
  5894  000816  CFDD F00A          	movff	postdec2,??_UART_buff_get+1
  5895  00081A  5009               	movf	??_UART_buff_get,w,c
  5896  00081C  2407               	addwf	UART_buff_get@_this,w,c
  5897  00081E  6ED9               	movwf	fsr2l,c
  5898  000820  500A               	movf	??_UART_buff_get+1,w,c
  5899  000822  2008               	addwfc	UART_buff_get@_this+1,w,c
  5900  000824  6EDA               	movwf	fsr2h,c
  5901  000826  50DF               	movf	indf2,w,c
  5902  000828  6E0B               	movwf	UART_buff_get@c,c
  5903                           
  5904                           ;UART.c: 85: _this->tail = UART_buff_modulo_inc(_this->tail, 200);
  5905  00082A  EE20 F0CA          	lfsr	2,202
  5906  00082E  5007               	movf	UART_buff_get@_this,w,c
  5907  000830  26D9               	addwf	fsr2l,f,c
  5908  000832  5008               	movf	UART_buff_get@_this+1,w,c
  5909  000834  22DA               	addwfc	fsr2h,f,c
  5910  000836  CFDE F001          	movff	postinc2,UART_buff_modulo_inc@value
  5911  00083A  CFDD F002          	movff	postdec2,UART_buff_modulo_inc@value+1
  5912  00083E  0E00               	movlw	0
  5913  000840  6E04               	movwf	UART_buff_modulo_inc@modulus+1,c
  5914  000842  0EC8               	movlw	200
  5915  000844  6E03               	movwf	UART_buff_modulo_inc@modulus,c
  5916  000846  ECC0  F006         	call	_UART_buff_modulo_inc	;wreg free
  5917  00084A  EE20 F0CA          	lfsr	2,202
  5918  00084E  5007               	movf	UART_buff_get@_this,w,c
  5919  000850  26D9               	addwf	fsr2l,f,c
  5920  000852  5008               	movf	UART_buff_get@_this+1,w,c
  5921  000854  22DA               	addwfc	fsr2h,f,c
  5922  000856  C001  FFDE         	movff	?_UART_buff_modulo_inc,postinc2
  5923  00085A  C002  FFDD         	movff	?_UART_buff_modulo_inc+1,postdec2
  5924                           
  5925                           ;UART.c: 86: --_this->count;
  5926  00085E  EE20 F0CC          	lfsr	2,204
  5927  000862  5007               	movf	UART_buff_get@_this,w,c
  5928  000864  26D9               	addwf	fsr2l,f,c
  5929  000866  5008               	movf	UART_buff_get@_this+1,w,c
  5930  000868  22DA               	addwfc	fsr2h,f,c
  5931  00086A  06DE               	decf	postinc2,f,c
  5932  00086C  0E00               	movlw	0
  5933  00086E  5ADD               	subwfb	postdec2,f,c
  5934                           
  5935                           ;UART.c: 87: } else {
  5936  000870  D002               	goto	i2l1136
  5937  000872                     i2l3839:
  5938                           
  5939                           ;UART.c: 88: c = 0;
  5940  000872  0E00               	movlw	0
  5941  000874  6E0B               	movwf	UART_buff_get@c,c
  5942  000876                     i2l1136:
  5943                           
  5944                           ;UART.c: 89: }
  5945                           ;UART.c: 90: return (c);
  5946  000876  500B               	movf	UART_buff_get@c,w,c
  5947  000878  0012               	return	
  5948  00087A                     __end_of_UART_buff_get:
  5949                           	opt stack 0
  5950                           pclatu	equ	0xFFB
  5951                           pclath	equ	0xFFA
  5952                           tblptru	equ	0xFF8
  5953                           tblptrh	equ	0xFF7
  5954                           tblptrl	equ	0xFF6
  5955                           tablat	equ	0xFF5
  5956                           prodh	equ	0xFF4
  5957                           prodl	equ	0xFF3
  5958                           intcon	equ	0xFF2
  5959                           intcon2	equ	0xFF1
  5960                           indf0	equ	0xFEF
  5961                           postinc0	equ	0xFEE
  5962                           fsr0h	equ	0xFEA
  5963                           fsr0l	equ	0xFE9
  5964                           wreg	equ	0xFE8
  5965                           fsr1h	equ	0xFE2
  5966                           fsr1l	equ	0xFE1
  5967                           indf2	equ	0xFDF
  5968                           postinc2	equ	0xFDE
  5969                           postdec2	equ	0xFDD
  5970                           plusw2	equ	0xFDB
  5971                           fsr2h	equ	0xFDA
  5972                           fsr2l	equ	0xFD9
  5973                           status	equ	0xFD8
  5974                           
  5975 ;; *************** function _EUSART1_Receive_ISR *****************
  5976 ;; Defined at:
  5977 ;;		line 139 in file "UART.c"
  5978 ;; Parameters:    Size  Location     Type
  5979 ;;		None
  5980 ;; Auto vars:     Size  Location     Type
  5981 ;;  data            1   11[COMRAM] unsigned char 
  5982 ;; Return value:  Size  Location     Type
  5983 ;;                  1    wreg      void 
  5984 ;; Registers used:
  5985 ;;		wreg, fsr2l, fsr2h, status,2, status,0, cstack
  5986 ;; Tracked objects:
  5987 ;;		On entry : 0/0
  5988 ;;		On exit  : 0/0
  5989 ;;		Unchanged: 0/0
  5990 ;; Data sizes:     COMRAM   BANK0   BANK1   BANK2   BANK3   BANK4   BANK5
  5991 ;;      Params:         0       0       0       0       0       0       0
  5992 ;;      Locals:         1       0       0       0       0       0       0
  5993 ;;      Temps:          0       0       0       0       0       0       0
  5994 ;;      Totals:         1       0       0       0       0       0       0
  5995 ;;Total ram usage:        1 bytes
  5996 ;; Hardware stack levels used:    1
  5997 ;; Hardware stack levels required when called:    2
  5998 ;; This function calls:
  5999 ;;		_UART_buff_put
  6000 ;; This function is called by:
  6001 ;;		_INTERRUPT_InterruptManager
  6002 ;; This function uses a non-reentrant model
  6003 ;;
  6004                           
  6005                           	psect	text31
  6006  000DFA                     __ptext31:
  6007                           	opt stack 0
  6008  000DFA                     _EUSART1_Receive_ISR:
  6009                           	opt stack 21
  6010                           
  6011                           ;UART.c: 140: if (1 == RC1STAbits.OERR) {
  6012                           
  6013                           ;incstack = 0
  6014  000DFA  A2AB               	btfss	4011,1,c	;volatile
  6015  000DFC  D002               	goto	i2l1167
  6016                           
  6017                           ;UART.c: 143: RC1STAbits.CREN = 0;
  6018  000DFE  98AB               	bcf	4011,4,c	;volatile
  6019                           
  6020                           ;UART.c: 144: RC1STAbits.CREN = 1;
  6021  000E00  88AB               	bsf	4011,4,c	;volatile
  6022  000E02                     i2l1167:
  6023                           
  6024                           ;UART.c: 145: }
  6025                           ;UART.c: 146: unsigned char data = RCREG1;
  6026  000E02  CFAE F00C          	movff	4014,EUSART1_Receive_ISR@data	;volatile
  6027                           
  6028                           ;UART.c: 147: UART_buff_put(&input_buffer, data);
  6029  000E06  0E00               	movlw	low _input_buffer
  6030  000E08  6E07               	movwf	UART_buff_put@_this,c
  6031  000E0A  0E02               	movlw	high _input_buffer
  6032  000E0C  6E08               	movwf	UART_buff_put@_this+1,c
  6033  000E0E  C00C  F009         	movff	EUSART1_Receive_ISR@data,UART_buff_put@c
  6034  000E12  ECB7  F001         	call	_UART_buff_put	;wreg free
  6035  000E16  0012               	return		;funcret
  6036  000E18                     __end_of_EUSART1_Receive_ISR:
  6037                           	opt stack 0
  6038                           pclatu	equ	0xFFB
  6039                           pclath	equ	0xFFA
  6040                           tblptru	equ	0xFF8
  6041                           tblptrh	equ	0xFF7
  6042                           tblptrl	equ	0xFF6
  6043                           tablat	equ	0xFF5
  6044                           prodh	equ	0xFF4
  6045                           prodl	equ	0xFF3
  6046                           intcon	equ	0xFF2
  6047                           intcon2	equ	0xFF1
  6048                           indf0	equ	0xFEF
  6049                           postinc0	equ	0xFEE
  6050                           fsr0h	equ	0xFEA
  6051                           fsr0l	equ	0xFE9
  6052                           wreg	equ	0xFE8
  6053                           fsr1h	equ	0xFE2
  6054                           fsr1l	equ	0xFE1
  6055                           indf2	equ	0xFDF
  6056                           postinc2	equ	0xFDE
  6057                           postdec2	equ	0xFDD
  6058                           plusw2	equ	0xFDB
  6059                           fsr2h	equ	0xFDA
  6060                           fsr2l	equ	0xFD9
  6061                           status	equ	0xFD8
  6062                           
  6063 ;; *************** function _UART_buff_put *****************
  6064 ;; Defined at:
  6065 ;;		line 68 in file "UART.c"
  6066 ;; Parameters:    Size  Location     Type
  6067 ;;  _this           2    6[COMRAM] PTR struct UART_ring_buf
  6068 ;;		 -> output_buffer(206), input_buffer(206), 
  6069 ;;  c               1    8[COMRAM] const unsigned char 
  6070 ;; Auto vars:     Size  Location     Type
  6071 ;;		None
  6072 ;; Return value:  Size  Location     Type
  6073 ;;                  1    wreg      void 
  6074 ;; Registers used:
  6075 ;;		wreg, fsr2l, fsr2h, status,2, status,0, cstack
  6076 ;; Tracked objects:
  6077 ;;		On entry : 0/0
  6078 ;;		On exit  : 0/0
  6079 ;;		Unchanged: 0/0
  6080 ;; Data sizes:     COMRAM   BANK0   BANK1   BANK2   BANK3   BANK4   BANK5
  6081 ;;      Params:         3       0       0       0       0       0       0
  6082 ;;      Locals:         0       0       0       0       0       0       0
  6083 ;;      Temps:          2       0       0       0       0       0       0
  6084 ;;      Totals:         5       0       0       0       0       0       0
  6085 ;;Total ram usage:        5 bytes
  6086 ;; Hardware stack levels used:    1
  6087 ;; Hardware stack levels required when called:    1
  6088 ;; This function calls:
  6089 ;;		_UART_buff_modulo_inc
  6090 ;; This function is called by:
  6091 ;;		_EUSART1_Receive_ISR
  6092 ;;		_Send_put
  6093 ;; This function uses a non-reentrant model
  6094 ;;
  6095                           
  6096                           	psect	text32
  6097  00036E                     __ptext32:
  6098                           	opt stack 0
  6099  00036E                     _UART_buff_put:
  6100                           	opt stack 21
  6101                           
  6102                           ;UART.c: 69: if (_this->count < 200) {
  6103                           
  6104                           ;incstack = 0
  6105  00036E  EE20 F0CC          	lfsr	2,204
  6106  000372  5007               	movf	UART_buff_put@_this,w,c
  6107  000374  26D9               	addwf	fsr2l,f,c
  6108  000376  5008               	movf	UART_buff_put@_this+1,w,c
  6109  000378  22DA               	addwfc	fsr2h,f,c
  6110  00037A  0E01               	movlw	1
  6111  00037C  BEDB               	btfsc	plusw2,7,c
  6112  00037E  D007               	goto	i2l3819
  6113  000380  0E01               	movlw	1
  6114  000382  50DB               	movf	plusw2,w,c
  6115  000384  E13A               	bnz	i2l3825
  6116  000386  0EC8               	movlw	200
  6117  000388  5CDE               	subwf	postinc2,w,c
  6118  00038A  B0D8               	btfsc	status,0,c
  6119  00038C  D036               	goto	i2l3825
  6120  00038E                     i2l3819:
  6121                           
  6122                           ;UART.c: 70: _this->buf[_this->head] = c;
  6123  00038E  EE20 F0C8          	lfsr	2,200
  6124  000392  5007               	movf	UART_buff_put@_this,w,c
  6125  000394  26D9               	addwf	fsr2l,f,c
  6126  000396  5008               	movf	UART_buff_put@_this+1,w,c
  6127  000398  22DA               	addwfc	fsr2h,f,c
  6128  00039A  CFDE F00A          	movff	postinc2,??_UART_buff_put
  6129  00039E  CFDD F00B          	movff	postdec2,??_UART_buff_put+1
  6130  0003A2  500A               	movf	??_UART_buff_put,w,c
  6131  0003A4  2407               	addwf	UART_buff_put@_this,w,c
  6132  0003A6  6ED9               	movwf	fsr2l,c
  6133  0003A8  500B               	movf	??_UART_buff_put+1,w,c
  6134  0003AA  2008               	addwfc	UART_buff_put@_this+1,w,c
  6135  0003AC  6EDA               	movwf	fsr2h,c
  6136  0003AE  C009  FFDF         	movff	UART_buff_put@c,indf2
  6137                           
  6138                           ;UART.c: 71: _this->head = UART_buff_modulo_inc(_this->head, 200);
  6139  0003B2  EE20 F0C8          	lfsr	2,200
  6140  0003B6  5007               	movf	UART_buff_put@_this,w,c
  6141  0003B8  26D9               	addwf	fsr2l,f,c
  6142  0003BA  5008               	movf	UART_buff_put@_this+1,w,c
  6143  0003BC  22DA               	addwfc	fsr2h,f,c
  6144  0003BE  CFDE F001          	movff	postinc2,UART_buff_modulo_inc@value
  6145  0003C2  CFDD F002          	movff	postdec2,UART_buff_modulo_inc@value+1
  6146  0003C6  0E00               	movlw	0
  6147  0003C8  6E04               	movwf	UART_buff_modulo_inc@modulus+1,c
  6148  0003CA  0EC8               	movlw	200
  6149  0003CC  6E03               	movwf	UART_buff_modulo_inc@modulus,c
  6150  0003CE  ECC0  F006         	call	_UART_buff_modulo_inc	;wreg free
  6151  0003D2  EE20 F0C8          	lfsr	2,200
  6152  0003D6  5007               	movf	UART_buff_put@_this,w,c
  6153  0003D8  26D9               	addwf	fsr2l,f,c
  6154  0003DA  5008               	movf	UART_buff_put@_this+1,w,c
  6155  0003DC  22DA               	addwfc	fsr2h,f,c
  6156  0003DE  C001  FFDE         	movff	?_UART_buff_modulo_inc,postinc2
  6157  0003E2  C002  FFDD         	movff	?_UART_buff_modulo_inc+1,postdec2
  6158                           
  6159                           ;UART.c: 72: ++_this->count;
  6160  0003E6  EE20 F0CC          	lfsr	2,204
  6161  0003EA  5007               	movf	UART_buff_put@_this,w,c
  6162  0003EC  26D9               	addwf	fsr2l,f,c
  6163  0003EE  5008               	movf	UART_buff_put@_this+1,w,c
  6164  0003F0  22DA               	addwfc	fsr2h,f,c
  6165  0003F2  2ADE               	incf	postinc2,f,c
  6166  0003F4  0E00               	movlw	0
  6167  0003F6  22DD               	addwfc	postdec2,f,c
  6168                           
  6169                           ;UART.c: 73: } else {
  6170  0003F8  0012               	return	
  6171  0003FA                     i2l3825:
  6172                           
  6173                           ;UART.c: 74: _this->buf[_this->head] = c;
  6174  0003FA  EE20 F0C8          	lfsr	2,200
  6175  0003FE  5007               	movf	UART_buff_put@_this,w,c
  6176  000400  26D9               	addwf	fsr2l,f,c
  6177  000402  5008               	movf	UART_buff_put@_this+1,w,c
  6178  000404  22DA               	addwfc	fsr2h,f,c
  6179  000406  CFDE F00A          	movff	postinc2,??_UART_buff_put
  6180  00040A  CFDD F00B          	movff	postdec2,??_UART_buff_put+1
  6181  00040E  500A               	movf	??_UART_buff_put,w,c
  6182  000410  2407               	addwf	UART_buff_put@_this,w,c
  6183  000412  6ED9               	movwf	fsr2l,c
  6184  000414  500B               	movf	??_UART_buff_put+1,w,c
  6185  000416  2008               	addwfc	UART_buff_put@_this+1,w,c
  6186  000418  6EDA               	movwf	fsr2h,c
  6187  00041A  C009  FFDF         	movff	UART_buff_put@c,indf2
  6188                           
  6189                           ;UART.c: 75: _this->head = UART_buff_modulo_inc(_this->head, 200);
  6190  00041E  EE20 F0C8          	lfsr	2,200
  6191  000422  5007               	movf	UART_buff_put@_this,w,c
  6192  000424  26D9               	addwf	fsr2l,f,c
  6193  000426  5008               	movf	UART_buff_put@_this+1,w,c
  6194  000428  22DA               	addwfc	fsr2h,f,c
  6195  00042A  CFDE F001          	movff	postinc2,UART_buff_modulo_inc@value
  6196  00042E  CFDD F002          	movff	postdec2,UART_buff_modulo_inc@value+1
  6197  000432  0E00               	movlw	0
  6198  000434  6E04               	movwf	UART_buff_modulo_inc@modulus+1,c
  6199  000436  0EC8               	movlw	200
  6200  000438  6E03               	movwf	UART_buff_modulo_inc@modulus,c
  6201  00043A  ECC0  F006         	call	_UART_buff_modulo_inc	;wreg free
  6202  00043E  EE20 F0C8          	lfsr	2,200
  6203  000442  5007               	movf	UART_buff_put@_this,w,c
  6204  000444  26D9               	addwf	fsr2l,f,c
  6205  000446  5008               	movf	UART_buff_put@_this+1,w,c
  6206  000448  22DA               	addwfc	fsr2h,f,c
  6207  00044A  C001  FFDE         	movff	?_UART_buff_modulo_inc,postinc2
  6208  00044E  C002  FFDD         	movff	?_UART_buff_modulo_inc+1,postdec2
  6209                           
  6210                           ;UART.c: 76: _this->tail = UART_buff_modulo_inc(_this->tail, 200);
  6211  000452  EE20 F0CA          	lfsr	2,202
  6212  000456  5007               	movf	UART_buff_put@_this,w,c
  6213  000458  26D9               	addwf	fsr2l,f,c
  6214  00045A  5008               	movf	UART_buff_put@_this+1,w,c
  6215  00045C  22DA               	addwfc	fsr2h,f,c
  6216  00045E  CFDE F001          	movff	postinc2,UART_buff_modulo_inc@value
  6217  000462  CFDD F002          	movff	postdec2,UART_buff_modulo_inc@value+1
  6218  000466  0E00               	movlw	0
  6219  000468  6E04               	movwf	UART_buff_modulo_inc@modulus+1,c
  6220  00046A  0EC8               	movlw	200
  6221  00046C  6E03               	movwf	UART_buff_modulo_inc@modulus,c
  6222  00046E  ECC0  F006         	call	_UART_buff_modulo_inc	;wreg free
  6223  000472  EE20 F0CA          	lfsr	2,202
  6224  000476  5007               	movf	UART_buff_put@_this,w,c
  6225  000478  26D9               	addwf	fsr2l,f,c
  6226  00047A  5008               	movf	UART_buff_put@_this+1,w,c
  6227  00047C  22DA               	addwfc	fsr2h,f,c
  6228  00047E  C001  FFDE         	movff	?_UART_buff_modulo_inc,postinc2
  6229  000482  C002  FFDD         	movff	?_UART_buff_modulo_inc+1,postdec2
  6230  000486  0012               	return	
  6231  000488                     __end_of_UART_buff_put:
  6232                           	opt stack 0
  6233                           pclatu	equ	0xFFB
  6234                           pclath	equ	0xFFA
  6235                           tblptru	equ	0xFF8
  6236                           tblptrh	equ	0xFF7
  6237                           tblptrl	equ	0xFF6
  6238                           tablat	equ	0xFF5
  6239                           prodh	equ	0xFF4
  6240                           prodl	equ	0xFF3
  6241                           intcon	equ	0xFF2
  6242                           intcon2	equ	0xFF1
  6243                           indf0	equ	0xFEF
  6244                           postinc0	equ	0xFEE
  6245                           fsr0h	equ	0xFEA
  6246                           fsr0l	equ	0xFE9
  6247                           wreg	equ	0xFE8
  6248                           fsr1h	equ	0xFE2
  6249                           fsr1l	equ	0xFE1
  6250                           indf2	equ	0xFDF
  6251                           postinc2	equ	0xFDE
  6252                           postdec2	equ	0xFDD
  6253                           plusw2	equ	0xFDB
  6254                           fsr2h	equ	0xFDA
  6255                           fsr2l	equ	0xFD9
  6256                           status	equ	0xFD8
  6257                           
  6258 ;; *************** function _UART_buff_modulo_inc *****************
  6259 ;; Defined at:
  6260 ;;		line 106 in file "UART.c"
  6261 ;; Parameters:    Size  Location     Type
  6262 ;;  value           2    0[COMRAM] const unsigned int 
  6263 ;;  modulus         2    2[COMRAM] const unsigned int 
  6264 ;; Auto vars:     Size  Location     Type
  6265 ;;  my_value        2    4[COMRAM] unsigned int 
  6266 ;; Return value:  Size  Location     Type
  6267 ;;                  2    0[COMRAM] unsigned int 
  6268 ;; Registers used:
  6269 ;;		wreg, status,2, status,0
  6270 ;; Tracked objects:
  6271 ;;		On entry : 0/0
  6272 ;;		On exit  : 0/0
  6273 ;;		Unchanged: 0/0
  6274 ;; Data sizes:     COMRAM   BANK0   BANK1   BANK2   BANK3   BANK4   BANK5
  6275 ;;      Params:         4       0       0       0       0       0       0
  6276 ;;      Locals:         2       0       0       0       0       0       0
  6277 ;;      Temps:          0       0       0       0       0       0       0
  6278 ;;      Totals:         6       0       0       0       0       0       0
  6279 ;;Total ram usage:        6 bytes
  6280 ;; Hardware stack levels used:    1
  6281 ;; This function calls:
  6282 ;;		Nothing
  6283 ;; This function is called by:
  6284 ;;		_UART_buff_put
  6285 ;;		_UART_buff_get
  6286 ;; This function uses a non-reentrant model
  6287 ;;
  6288                           
  6289                           	psect	text33
  6290  000D80                     __ptext33:
  6291                           	opt stack 0
  6292  000D80                     _UART_buff_modulo_inc:
  6293                           	opt stack 21
  6294                           
  6295                           ;UART.c: 107: unsigned int my_value = value + 1;
  6296                           
  6297                           ;incstack = 0
  6298  000D80  0E01               	movlw	1
  6299  000D82  2401               	addwf	UART_buff_modulo_inc@value,w,c
  6300  000D84  6E05               	movwf	UART_buff_modulo_inc@my_value,c
  6301  000D86  0E00               	movlw	0
  6302  000D88  2002               	addwfc	UART_buff_modulo_inc@value+1,w,c
  6303  000D8A  6E06               	movwf	UART_buff_modulo_inc@my_value+1,c
  6304                           
  6305                           ;UART.c: 108: if (my_value >= modulus) {
  6306  000D8C  5003               	movf	UART_buff_modulo_inc@modulus,w,c
  6307  000D8E  5C05               	subwf	UART_buff_modulo_inc@my_value,w,c
  6308  000D90  5004               	movf	UART_buff_modulo_inc@modulus+1,w,c
  6309  000D92  5806               	subwfb	UART_buff_modulo_inc@my_value+1,w,c
  6310  000D94  A0D8               	btfss	status,0,c
  6311  000D96  D004               	goto	i2l3649
  6312                           
  6313                           ;UART.c: 109: my_value = 0;
  6314  000D98  0E00               	movlw	0
  6315  000D9A  6E06               	movwf	UART_buff_modulo_inc@my_value+1,c
  6316  000D9C  0E00               	movlw	0
  6317  000D9E  6E05               	movwf	UART_buff_modulo_inc@my_value,c
  6318  000DA0                     i2l3649:
  6319                           
  6320                           ;UART.c: 110: }
  6321                           ;UART.c: 111: return (my_value);
  6322  000DA0  C005  F001         	movff	UART_buff_modulo_inc@my_value,?_UART_buff_modulo_inc
  6323  000DA4  C006  F002         	movff	UART_buff_modulo_inc@my_value+1,?_UART_buff_modulo_inc+1
  6324  000DA8  0012               	return	
  6325  000DAA                     __end_of_UART_buff_modulo_inc:
  6326                           	opt stack 0
  6327                           pclatu	equ	0xFFB
  6328                           pclath	equ	0xFFA
  6329                           tblptru	equ	0xFF8
  6330                           tblptrh	equ	0xFF7
  6331                           tblptrl	equ	0xFF6
  6332                           tablat	equ	0xFF5
  6333                           prodh	equ	0xFF4
  6334                           prodl	equ	0xFF3
  6335                           intcon	equ	0xFF2
  6336                           intcon2	equ	0xFF1
  6337                           indf0	equ	0xFEF
  6338                           postinc0	equ	0xFEE
  6339                           fsr0h	equ	0xFEA
  6340                           fsr0l	equ	0xFE9
  6341                           wreg	equ	0xFE8
  6342                           fsr1h	equ	0xFE2
  6343                           fsr1l	equ	0xFE1
  6344                           indf2	equ	0xFDF
  6345                           postinc2	equ	0xFDE
  6346                           postdec2	equ	0xFDD
  6347                           plusw2	equ	0xFDB
  6348                           fsr2h	equ	0xFDA
  6349                           fsr2l	equ	0xFD9
  6350                           status	equ	0xFD8
  6351                           pclatu	equ	0xFFB
  6352                           pclath	equ	0xFFA
  6353                           tblptru	equ	0xFF8
  6354                           tblptrh	equ	0xFF7
  6355                           tblptrl	equ	0xFF6
  6356                           tablat	equ	0xFF5
  6357                           prodh	equ	0xFF4
  6358                           prodl	equ	0xFF3
  6359                           intcon	equ	0xFF2
  6360                           intcon2	equ	0xFF1
  6361                           indf0	equ	0xFEF
  6362                           postinc0	equ	0xFEE
  6363                           fsr0h	equ	0xFEA
  6364                           fsr0l	equ	0xFE9
  6365                           wreg	equ	0xFE8
  6366                           fsr1h	equ	0xFE2
  6367                           fsr1l	equ	0xFE1
  6368                           indf2	equ	0xFDF
  6369                           postinc2	equ	0xFDE
  6370                           postdec2	equ	0xFDD
  6371                           plusw2	equ	0xFDB
  6372                           fsr2h	equ	0xFDA
  6373                           fsr2l	equ	0xFD9
  6374                           status	equ	0xFD8
  6375                           
  6376                           	psect	rparam
  6377  0000                     pclatu	equ	0xFFB
  6378                           pclath	equ	0xFFA
  6379                           tblptru	equ	0xFF8
  6380                           tblptrh	equ	0xFF7
  6381                           tblptrl	equ	0xFF6
  6382                           tablat	equ	0xFF5
  6383                           prodh	equ	0xFF4
  6384                           prodl	equ	0xFF3
  6385                           intcon	equ	0xFF2
  6386                           intcon2	equ	0xFF1
  6387                           indf0	equ	0xFEF
  6388                           postinc0	equ	0xFEE
  6389                           fsr0h	equ	0xFEA
  6390                           fsr0l	equ	0xFE9
  6391                           wreg	equ	0xFE8
  6392                           fsr1h	equ	0xFE2
  6393                           fsr1l	equ	0xFE1
  6394                           indf2	equ	0xFDF
  6395                           postinc2	equ	0xFDE
  6396                           postdec2	equ	0xFDD
  6397                           plusw2	equ	0xFDB
  6398                           fsr2h	equ	0xFDA
  6399                           fsr2l	equ	0xFD9
  6400                           status	equ	0xFD8
  6401                           
  6402                           	psect	temp
  6403  000045                     btemp:
  6404                           	opt stack 0
  6405  000045                     	ds	1
  6406  0000                     int$flags	set	btemp
  6407                           pclatu	equ	0xFFB
  6408                           pclath	equ	0xFFA
  6409                           tblptru	equ	0xFF8
  6410                           tblptrh	equ	0xFF7
  6411                           tblptrl	equ	0xFF6
  6412                           tablat	equ	0xFF5
  6413                           prodh	equ	0xFF4
  6414                           prodl	equ	0xFF3
  6415                           intcon	equ	0xFF2
  6416                           intcon2	equ	0xFF1
  6417                           indf0	equ	0xFEF
  6418                           postinc0	equ	0xFEE
  6419                           fsr0h	equ	0xFEA
  6420                           fsr0l	equ	0xFE9
  6421                           wreg	equ	0xFE8
  6422                           fsr1h	equ	0xFE2
  6423                           fsr1l	equ	0xFE1
  6424                           indf2	equ	0xFDF
  6425                           postinc2	equ	0xFDE
  6426                           postdec2	equ	0xFDD
  6427                           plusw2	equ	0xFDB
  6428                           fsr2h	equ	0xFDA
  6429                           fsr2l	equ	0xFD9
  6430                           status	equ	0xFD8


Data Sizes:
    Strings     28
    Constant    1040
    Data        1
    BSS         1049
    Persistent  0
    Stack       0

Auto Spaces:
    Space          Size  Autos    Used
    COMRAM           94     40      68
    BANK0           160     12     159
    BANK1           256     17      74
    BANK2           256      0     206
    BANK3           256      0     206
    BANK4           256      0     206
    BANK5           256      0     200

Pointer List with Targets:

    i2c1_tr_queue.ptrb_list.pbuffer	PTR unsigned char  size(2) Largest target is 0
		 -> picture(CODE[272]), oledPutChar@bytes(BANK1[9]), Buff(BANK0[2]), LEDwriteDisplay@writeBuffer(COMRAM[20]), 
		 -> LEDbegin@writeBuffer(COMRAM[3]), LEDblinkRate@writeBuffer(COMRAM[2]), LEDBsetBrightness@writeBuffer(COMRAM[2]), 

    i2c1_tr_queue.pTrFlag	PTR enum E8678 size(2) Largest target is 0
		 -> Display@status(COMRAM[1]), oledPutChar@status(BANK1[1]), OLED_command@status(COMRAM[1]), LEDwriteDisplay@status(COMRAM[1]), 
		 -> LEDbegin@status(COMRAM[1]), LEDblinkRate@status(COMRAM[1]), LEDBsetBrightness@status(COMRAM[1]), 

    i2c1_tr_queue.ptrb_list	PTR struct . size(2) Largest target is 0
		 -> I2C1_MasterRead@trBlock(BANK0[5]), I2C1_MasterWrite@trBlock(BANK0[5]), 

    memmove@d1	PTR void  size(2) Largest target is 9
		 -> oledPutChar@bytes(BANK1[9]), 

    memmove@d	PTR unsigned char  size(2) Largest target is 9
		 -> oledPutChar@bytes(BANK1[9]), 

    memmove@s1	PTR const void  size(2) Largest target is 768
		 -> OledFont(CODE[768]), 

    memmove@s	PTR const unsigned char  size(2) Largest target is 768
		 -> OledFont(CODE[768]), 

    sp__utoa	PTR unsigned char  size(2) Largest target is 20
		 -> SetData@s(COMRAM[20]), 

    sp__itoa	PTR unsigned char  size(2) Largest target is 20
		 -> SetData@s(COMRAM[20]), 

    oledPrint@s	PTR unsigned char  size(2) Largest target is 20
		 -> STR_8(CODE[8]), STR_7(CODE[6]), STR_6(CODE[3]), STR_5(CODE[11]), 
		 -> STR_4(CODE[8]), STR_3(CODE[6]), STR_2(CODE[3]), STR_1(CODE[11]), 
		 -> SetData@s(COMRAM[20]), 

    sp__memmove	PTR void  size(2) Largest target is 9
		 -> oledPutChar@bytes(BANK1[9]), 

    oledPutChar@base	PTR const unsigned char  size(2) Largest target is 768
		 -> OledFont(CODE[768]), 

    UART_buff_size@_this	PTR struct UART_ring_buff size(2) Largest target is 206
		 -> output_buffer(BANK3[206]), input_buffer(BANK2[206]), 

    UART_buff_get@_this	PTR struct UART_ring_buff size(2) Largest target is 206
		 -> output_buffer(BANK3[206]), input_buffer(BANK2[206]), 

    UART_buff_put@_this	PTR struct UART_ring_buff size(2) Largest target is 206
		 -> output_buffer(BANK3[206]), input_buffer(BANK2[206]), 

    sp__memset	PTR void  size(2) Largest target is 206
		 -> output_buffer(BANK3[206]), input_buffer(BANK2[206]), ring_buffer(BANK4[206]), 

    sendStructAddress	PTR unsigned char  size(2) Largest target is 206
		 -> ring_buffer(BANK4[206]), NULL(NULL[0]), 

    serial_read	PTR FTN()unsigned char  size(2) Largest target is 1
		 -> Absolute function(), 

    serial_peek	PTR FTN()unsigned char  size(2) Largest target is 1
		 -> Absolute function(), 

    serial_available	PTR FTN()int  size(2) Largest target is 1
		 -> Absolute function(), 

    serial_write	PTR FTN(unsigned char ,)void  size(2) Largest target is 1
		 -> Absolute function(), 

    receiveArrayAddress	PTR volatile int  size(2) Largest target is 0
		 -> NULL(NULL[0]), 

    TMR2_InterruptHandler	PTR FTN()void  size(2) Largest target is 1
		 -> Absolute function(), TMR2_DefaultInterruptHandler(), 

    I2C1_MasterWriteTRBBuild@pdata	PTR unsigned char  size(2) Largest target is 272
		 -> picture(CODE[272]), oledPutChar@bytes(BANK1[9]), Buff(BANK0[2]), LEDwriteDisplay@writeBuffer(COMRAM[20]), 
		 -> LEDbegin@writeBuffer(COMRAM[3]), LEDblinkRate@writeBuffer(COMRAM[2]), LEDBsetBrightness@writeBuffer(COMRAM[2]), 

    I2C1_MasterWriteTRBBuild@ptrb.pbuffer	PTR unsigned char  size(2) Largest target is 272
		 -> picture(CODE[272]), oledPutChar@bytes(BANK1[9]), Buff(BANK0[2]), LEDwriteDisplay@writeBuffer(COMRAM[20]), 
		 -> LEDbegin@writeBuffer(COMRAM[3]), LEDblinkRate@writeBuffer(COMRAM[2]), LEDBsetBrightness@writeBuffer(COMRAM[2]), 

    I2C1_MasterWriteTRBBuild@ptrb	PTR struct . size(2) Largest target is 6
		 -> I2C1_MasterWrite@trBlock(BANK0[5]), 

    I2C1_MasterReadTRBBuild@ptrb.pbuffer	PTR unsigned char  size(2) Largest target is 272
		 -> picture(CODE[272]), oledPutChar@bytes(BANK1[9]), Buff(BANK0[2]), LEDwriteDisplay@writeBuffer(COMRAM[20]), 
		 -> LEDbegin@writeBuffer(COMRAM[3]), LEDblinkRate@writeBuffer(COMRAM[2]), LEDBsetBrightness@writeBuffer(COMRAM[2]), 

    i2c1_object.pTrTail.ptrb_list.pbuffer	PTR unsigned char  size(2) Largest target is 272
		 -> picture(CODE[272]), oledPutChar@bytes(BANK1[9]), Buff(BANK0[2]), LEDwriteDisplay@writeBuffer(COMRAM[20]), 
		 -> LEDbegin@writeBuffer(COMRAM[3]), LEDblinkRate@writeBuffer(COMRAM[2]), LEDBsetBrightness@writeBuffer(COMRAM[2]), 

    i2c1_object.pTrTail.pTrFlag	PTR enum E8678 size(2) Largest target is 1
		 -> Display@status(COMRAM[1]), oledPutChar@status(BANK1[1]), OLED_command@status(COMRAM[1]), LEDwriteDisplay@status(COMRAM[1]), 
		 -> LEDbegin@status(COMRAM[1]), LEDblinkRate@status(COMRAM[1]), LEDBsetBrightness@status(COMRAM[1]), 

    i2c1_object.pTrTail.ptrb_list	PTR struct . size(2) Largest target is 6
		 -> I2C1_MasterRead@trBlock(BANK0[5]), I2C1_MasterWrite@trBlock(BANK0[5]), 

    I2C1_MasterTRBInsert@ptrb_list	PTR struct . size(2) Largest target is 6
		 -> I2C1_MasterRead@trBlock(BANK0[5]), I2C1_MasterWrite@trBlock(BANK0[5]), 

    I2C1_MasterTRBInsert@pflag	PTR enum E8678 size(2) Largest target is 1
		 -> Display@status(COMRAM[1]), oledPutChar@status(BANK1[1]), OLED_command@status(COMRAM[1]), LEDwriteDisplay@status(COMRAM[1]), 
		 -> LEDbegin@status(COMRAM[1]), LEDblinkRate@status(COMRAM[1]), LEDBsetBrightness@status(COMRAM[1]), 

    F8790.pbuffer	PTR unsigned char  size(2) Largest target is 272
		 -> picture(CODE[272]), oledPutChar@bytes(BANK1[9]), Buff(BANK0[2]), LEDwriteDisplay@writeBuffer(COMRAM[20]), 
		 -> LEDbegin@writeBuffer(COMRAM[3]), LEDblinkRate@writeBuffer(COMRAM[2]), LEDBsetBrightness@writeBuffer(COMRAM[2]), 

    I2C1_MasterWrite@pflag	PTR enum E8678 size(2) Largest target is 1
		 -> Display@status(COMRAM[1]), oledPutChar@status(BANK1[1]), OLED_command@status(COMRAM[1]), LEDwriteDisplay@status(COMRAM[1]), 
		 -> LEDbegin@status(COMRAM[1]), LEDblinkRate@status(COMRAM[1]), LEDBsetBrightness@status(COMRAM[1]), 

    I2C1_MasterWrite@pdata	PTR unsigned char  size(2) Largest target is 272
		 -> picture(CODE[272]), oledPutChar@bytes(BANK1[9]), Buff(BANK0[2]), LEDwriteDisplay@writeBuffer(COMRAM[20]), 
		 -> LEDbegin@writeBuffer(COMRAM[3]), LEDblinkRate@writeBuffer(COMRAM[2]), LEDBsetBrightness@writeBuffer(COMRAM[2]), 

    F8785.pbuffer	PTR unsigned char  size(2) Largest target is 272
		 -> picture(CODE[272]), oledPutChar@bytes(BANK1[9]), Buff(BANK0[2]), LEDwriteDisplay@writeBuffer(COMRAM[20]), 
		 -> LEDbegin@writeBuffer(COMRAM[3]), LEDblinkRate@writeBuffer(COMRAM[2]), LEDBsetBrightness@writeBuffer(COMRAM[2]), 

    I2C1_ISR@pi2c_buf_ptr	PTR unsigned char  size(2) Largest target is 272
		 -> picture(CODE[272]), oledPutChar@bytes(BANK1[9]), Buff(BANK0[2]), LEDwriteDisplay@writeBuffer(COMRAM[20]), 
		 -> LEDbegin@writeBuffer(COMRAM[3]), LEDblinkRate@writeBuffer(COMRAM[2]), LEDblinkRate@b(COMRAM[2]), LEDBsetBrightness@writeBuffer(COMRAM[2]), 
		 -> LEDBsetBrightness@b(COMRAM[2]), I2C1_ISR@i2c_address(COMRAM[2]), NULL(NULL[0]), 

    S21$pbuffer	PTR unsigned char  size(2) Largest target is 272
		 -> picture(CODE[272]), oledPutChar@bytes(BANK1[9]), Buff(BANK0[2]), LEDwriteDisplay@writeBuffer(COMRAM[20]), 
		 -> LEDbegin@writeBuffer(COMRAM[3]), LEDblinkRate@writeBuffer(COMRAM[2]), LEDBsetBrightness@writeBuffer(COMRAM[2]), 

    p_i2c1_trb_current.pbuffer	PTR unsigned char  size(2) Largest target is 272
		 -> picture(CODE[272]), oledPutChar@bytes(BANK1[9]), Buff(BANK0[2]), LEDwriteDisplay@writeBuffer(COMRAM[20]), 
		 -> LEDbegin@writeBuffer(COMRAM[3]), LEDblinkRate@writeBuffer(COMRAM[2]), LEDBsetBrightness@writeBuffer(COMRAM[2]), 

    p_i2c1_trb_current	PTR struct . size(2) Largest target is 6
		 -> I2C1_MasterRead@trBlock(BANK0[5]), I2C1_MasterWrite@trBlock(BANK0[5]), NULL(NULL[0]), 

    i2c1_object.pTrHead.pTrFlag	PTR enum E8678 size(2) Largest target is 1
		 -> Display@status(COMRAM[1]), oledPutChar@status(BANK1[1]), OLED_command@status(COMRAM[1]), LEDwriteDisplay@status(COMRAM[1]), 
		 -> LEDbegin@status(COMRAM[1]), LEDblinkRate@status(COMRAM[1]), LEDBsetBrightness@status(COMRAM[1]), 

    i2c1_object.pTrHead.ptrb_list	PTR struct . size(2) Largest target is 6
		 -> I2C1_MasterRead@trBlock(BANK0[5]), I2C1_MasterWrite@trBlock(BANK0[5]), 

    S33$pTrFlag	PTR enum E8678 size(2) Largest target is 1
		 -> Display@status(COMRAM[1]), oledPutChar@status(BANK1[1]), OLED_command@status(COMRAM[1]), LEDwriteDisplay@status(COMRAM[1]), 
		 -> LEDbegin@status(COMRAM[1]), LEDblinkRate@status(COMRAM[1]), LEDBsetBrightness@status(COMRAM[1]), 

    p_i2c1_current.pTrFlag	PTR enum E8678 size(2) Largest target is 1
		 -> Display@status(COMRAM[1]), oledPutChar@status(BANK1[1]), OLED_command@status(COMRAM[1]), LEDwriteDisplay@status(COMRAM[1]), 
		 -> LEDbegin@status(COMRAM[1]), LEDblinkRate@status(COMRAM[1]), LEDBsetBrightness@status(COMRAM[1]), 

    S33$ptrb_list	PTR struct . size(2) Largest target is 6
		 -> I2C1_MasterRead@trBlock(BANK0[5]), I2C1_MasterWrite@trBlock(BANK0[5]), 

    p_i2c1_current.ptrb_list	PTR struct . size(2) Largest target is 6
		 -> I2C1_MasterRead@trBlock(BANK0[5]), I2C1_MasterWrite@trBlock(BANK0[5]), 

    p_i2c1_current	PTR struct . size(2) Largest target is 7
		 -> i2c1_tr_queue(BANK0[5]), NULL(NULL[0]), 

    S44$pTrHead	PTR struct . size(2) Largest target is 7
		 -> i2c1_tr_queue(BANK0[5]), 

    i2c1_object.pTrHead	PTR struct . size(2) Largest target is 7
		 -> i2c1_tr_queue(BANK0[5]), 

    S44$pTrTail	PTR struct . size(2) Largest target is 7
		 -> i2c1_tr_queue(BANK0[5]), 

    i2c1_object.pTrTail	PTR struct . size(2) Largest target is 7
		 -> i2c1_tr_queue(BANK0[5]), 


Critical Paths under _main in COMRAM

    _Splash->_oledGotoYX
    _Splash->_oledPrint
    _oledClear->_oledGotoYX
    _oledPutChar->_memmove
    _oledGotoYX->_OLED_command
    _OLED_init->_OLED_command
    _I2C1_MasterWrite->_I2C1_MasterWriteTRBBuild

Critical Paths under _INTERRUPT_InterruptManager in COMRAM

    _INTERRUPT_InterruptManager->_EUSART1_Receive_ISR
    _TMR0_ISR->_ReadButtonState
    _I2C1_ISR->_I2C1_Stop
    _EUSART1_Transmit_ISR->_UART_buff_get
    _UART_buff_get->_UART_buff_modulo_inc
    _EUSART1_Receive_ISR->_UART_buff_put
    _UART_buff_put->_UART_buff_modulo_inc

Critical Paths under _main in BANK0

    _oledPrint->_oledPutChar
    _oledClear->_oledPutChar
    _oledPutChar->_I2C1_MasterWrite
    _OLED_command->_I2C1_MasterWrite

Critical Paths under _INTERRUPT_InterruptManager in BANK0

    None.

Critical Paths under _main in BANK1

    _oledPrint->_oledPutChar
    _Setupdisplay->_oledClear
    _oledClear->_oledPutChar

Critical Paths under _INTERRUPT_InterruptManager in BANK1

    None.

Critical Paths under _main in BANK2

    None.

Critical Paths under _INTERRUPT_InterruptManager in BANK2

    None.

Critical Paths under _main in BANK3

    None.

Critical Paths under _INTERRUPT_InterruptManager in BANK3

    None.

Critical Paths under _main in BANK4

    None.

Critical Paths under _INTERRUPT_InterruptManager in BANK4

    None.

Critical Paths under _main in BANK5

    None.

Critical Paths under _INTERRUPT_InterruptManager in BANK5

    None.

Call Graph Tables:

 ---------------------------------------------------------------------------------
 (Depth) Function   	        Calls       Base Space   Used Autos Params    Refs
 ---------------------------------------------------------------------------------
 (0) _main                                                 0     0      0   25577
                          _ClearTime
                     _GetButtonState
                            _GetTime
                  _SYSTEM_Initialize
                       _Setupdisplay
                             _Splash
 ---------------------------------------------------------------------------------
 (1) _Splash                                               0     0      0   11002
                         _oledGotoYX
                          _oledPrint
 ---------------------------------------------------------------------------------
 (2) _oledPrint                                            2     0      2    5678
                                             38 COMRAM     2     0      2
                        _oledPutChar
 ---------------------------------------------------------------------------------
 (1) _Setupdisplay                                         0     0      0   14425
                          _OLED_init
                          _oledClear
 ---------------------------------------------------------------------------------
 (2) _oledClear                                            4     4      0   10442
                                             13 BANK1      4     4      0
                         _oledGotoYX
                        _oledPutChar
 ---------------------------------------------------------------------------------
 (3) _oledPutChar                                         17    17      0    4920
                                              8 BANK0      4     4      0
                                              0 BANK1     13    13      0
                   _I2C1_MasterWrite
                            _memmove
 ---------------------------------------------------------------------------------
 (4) _memmove                                             12     6      6     752
                                             26 COMRAM    12     6      6
 ---------------------------------------------------------------------------------
 (2) _oledGotoYX                                           3     2      1    5324
                                             38 COMRAM     2     1      1
                                              8 BANK0      1     1      0
                       _OLED_command
 ---------------------------------------------------------------------------------
 (2) _OLED_init                                            0     0      0    3983
                       _OLED_command
 ---------------------------------------------------------------------------------
 (3) _OLED_command                                         2     2      0    3983
                                             36 COMRAM     2     2      0
                   _I2C1_MasterWrite
 ---------------------------------------------------------------------------------
 (4) _I2C1_MasterWrite                                     8     0      8    3761
                                              0 BANK0      8     0      8
               _I2C1_MasterTRBInsert
           _I2C1_MasterWriteTRBBuild
 ---------------------------------------------------------------------------------
 (5) _I2C1_MasterWriteTRBBuild                            10     2      8     494
                                             26 COMRAM    10     2      8
 ---------------------------------------------------------------------------------
 (5) _I2C1_MasterTRBInsert                                 7     1      6     648
                                             26 COMRAM     7     1      6
 ---------------------------------------------------------------------------------
 (1) _SYSTEM_Initialize                                    0     0      0       0
                    _I2C1_Initialize
               _INTERRUPT_Initialize
              _OSCILLATOR_Initialize
             _PIN_MANAGER_Initialize
 ---------------------------------------------------------------------------------
 (2) _PIN_MANAGER_Initialize                               0     0      0       0
 ---------------------------------------------------------------------------------
 (2) _OSCILLATOR_Initialize                                0     0      0       0
 ---------------------------------------------------------------------------------
 (2) _INTERRUPT_Initialize                                 0     0      0       0
 ---------------------------------------------------------------------------------
 (2) _I2C1_Initialize                                      0     0      0       0
 ---------------------------------------------------------------------------------
 (1) _GetTime                                              2     0      2       0
                                             26 COMRAM     2     0      2
 ---------------------------------------------------------------------------------
 (1) _GetButtonState                                       6     4      2     150
                                             26 COMRAM     6     4      2
 ---------------------------------------------------------------------------------
 (1) _ClearTime                                            0     0      0       0
 ---------------------------------------------------------------------------------
 Estimated maximum stack depth 5
 ---------------------------------------------------------------------------------
 (Depth) Function   	        Calls       Base Space   Used Autos Params    Refs
 ---------------------------------------------------------------------------------
 (7) _INTERRUPT_InterruptManager                          14    14      0    2650
                                             12 COMRAM    14    14      0
                _EUSART1_Receive_ISR
               _EUSART1_Transmit_ISR
               _I2C1_BusCollisionISR
                           _I2C1_ISR
                           _TMR0_ISR
 ---------------------------------------------------------------------------------
 (8) _TMR0_ISR                                             2     2      0     330
                                              4 COMRAM     2     2      0
                    _ReadButtonState
 ---------------------------------------------------------------------------------
 (9) _ReadButtonState                                      4     2      2     262
                                              0 COMRAM     4     2      2
 ---------------------------------------------------------------------------------
 (8) _I2C1_ISR                                             2     2      0      31
                                              3 COMRAM     2     2      0
              _I2C1_FunctionComplete
                          _I2C1_Stop
 ---------------------------------------------------------------------------------
 (9) _I2C1_Stop                                            3     3      0      31
                                              0 COMRAM     3     3      0
 ---------------------------------------------------------------------------------
 (9) _I2C1_FunctionComplete                                0     0      0       0
 ---------------------------------------------------------------------------------
 (8) _I2C1_BusCollisionISR                                 0     0      0       0
 ---------------------------------------------------------------------------------
 (8) _EUSART1_Transmit_ISR                                 0     0      0    1100
                      _UART_buff_get
                     _UART_buff_size
 ---------------------------------------------------------------------------------
 (9) _UART_buff_size                                       2     0      2     150
                                              0 COMRAM     2     0      2
 ---------------------------------------------------------------------------------
 (9) _UART_buff_get                                        5     3      2     950
                                              6 COMRAM     5     3      2
               _UART_buff_modulo_inc
 ---------------------------------------------------------------------------------
 (8) _EUSART1_Receive_ISR                                  1     1      0    1189
                                             11 COMRAM     1     1      0
                      _UART_buff_put
 ---------------------------------------------------------------------------------
 (9) _UART_buff_put                                        5     2      3    1166
                                              6 COMRAM     5     2      3
               _UART_buff_modulo_inc
 ---------------------------------------------------------------------------------
 (10) _UART_buff_modulo_inc                                6     2      4     602
                                              0 COMRAM     6     2      4
 ---------------------------------------------------------------------------------
 Estimated maximum stack depth 10
 ---------------------------------------------------------------------------------

 Call Graph Graphs:

 _main (ROOT)
   _ClearTime
   _GetButtonState
   _GetTime
   _SYSTEM_Initialize
     _I2C1_Initialize
     _INTERRUPT_Initialize
     _OSCILLATOR_Initialize
     _PIN_MANAGER_Initialize
   _Setupdisplay
     _OLED_init
       _OLED_command
         _I2C1_MasterWrite
           _I2C1_MasterTRBInsert
           _I2C1_MasterWriteTRBBuild
     _oledClear
       _oledGotoYX
         _OLED_command
           _I2C1_MasterWrite
             _I2C1_MasterTRBInsert
             _I2C1_MasterWriteTRBBuild
       _oledPutChar
         _I2C1_MasterWrite
           _I2C1_MasterTRBInsert
           _I2C1_MasterWriteTRBBuild
         _memmove
   _Splash
     _oledGotoYX
       _OLED_command
         _I2C1_MasterWrite
           _I2C1_MasterTRBInsert
           _I2C1_MasterWriteTRBBuild
     _oledPrint
       _oledPutChar
         _I2C1_MasterWrite
           _I2C1_MasterTRBInsert
           _I2C1_MasterWriteTRBBuild
         _memmove

 _INTERRUPT_InterruptManager (ROOT)
   _EUSART1_Receive_ISR
     _UART_buff_put
       _UART_buff_modulo_inc
   _EUSART1_Transmit_ISR
     _UART_buff_get
       _UART_buff_modulo_inc
     _UART_buff_size
   _I2C1_BusCollisionISR
   _I2C1_ISR
     _I2C1_FunctionComplete
     _I2C1_Stop
   _TMR0_ISR
     _ReadButtonState

 Address spaces:
Name               Size   Autos  Total    Cost      Usage
BIGRAM             5FF      0       0      16        0.0%
EEDATA             100      0       0       0        0.0%
BITBANK5           100      0       0      14        0.0%
BANK5              100      0      C8      15       78.1%
BITBANK4           100      0       0      12        0.0%
BANK4              100      0      CE      13       80.5%
BITBANK3           100      0       0      10        0.0%
BANK3              100      0      CE      11       80.5%
BITBANK2           100      0       0       7        0.0%
BANK2              100      0      CE       8       80.5%
BITBANK1           100      0       0       5        0.0%
BANK1              100     11      4A       6       28.9%
BITBANK0            A0      0       0       3        0.0%
BANK0               A0      C      9F       4       99.4%
BITCOMRAM           5E      0       0       0        0.0%
COMRAM              5E     28      44       1       72.3%
BITSFR_1             0      0       0      40        0.0%
SFR_1                0      0       0      40        0.0%
BITSFR               0      0       0      40        0.0%
SFR                  0      0       0      40        0.0%
STACK                0      0       0       2        0.0%
NULL                 0      0       0       0        0.0%
ABS                  0      0     45F       9        0.0%
DATA                 0      0     45F      17        0.0%
CODE                 0      0       0       0        0.0%


Microchip Technology PIC18 Macro Assembler V1.36 build -262312587 
Symbol Table                                                                                   Tue Aug 23 10:29:40 2016

                                  _i 00C8                                    _k 00CC  
                       _rx_array_inx 0040                         __CFG_CP0$OFF 000000  
                       __CFG_CP1$OFF 000000                         __CFG_CP2$OFF 000000  
                       __CFG_CP3$OFF 000000                         __CFG_CPB$OFF 000000  
                                _PR2 000FBB                         __CFG_CPD$OFF 000000  
                                wreg 000FE8                         __CFG_LVP$OFF 000000  
                   __end_of_I2C1_ISR 036E                                 l1233 0B10  
                               l5205 097A                                 l5213 06EC  
                               l5311 0B08                                 l5217 071E  
                               l5241 05B2                                 l5321 0C3A  
                               l5163 07C2                                 l5243 05B8  
                               l5165 07CE                                 l5253 063E  
                               l5317 0C12                                 l5159 07AE  
                               l5175 0C02                                 l5255 066E  
                               l5169 07DE                                 l5185 0922  
                               l5273 069E                                 l5187 0952  
                               l5293 0AC4                                 l5299 0ADE  
                               l5573 0B7C                                 l5575 0B9A  
                               l5577 0B9E                                 STR_1 7FE3  
                               STR_2 7FFC                                 STR_3 7FF6  
                               STR_4 7FEE                                 _LATA 000F89  
                               _LATB 000F8A                                 _LATC 000F8B  
                               _LATD 000F8C                                 _LATE 000F8D  
                               u5100 0C32                                 u5110 0C5A  
                               u5107 0C28                                 u5117 0C50  
                               u5540 0B90                                 u5550 0B98  
                               i2l60 00F0                                 u5580 0BB8  
                               i2l71 018E                                 i2l63 0152  
                               i2l72 019C                                 i2l65 015A  
                               i2l90 02B6                                 i2l82 0220  
                               i2l66 0162                                 u4955 0A2E  
                               i2l76 020C                                 u4965 0A4A  
                               i2l94 030C                                 i2l86 0274  
                               i2l89 02A6                                 _TMR2 000FBC  
                               _WPUB 000F61                                 _Buff 00F1  
                      oledPutChar@ch 0144                                 _main 0B68  
                               _time 00DC                                 fsr0h 000FEA  
                               fsr1h 000FE2                                 indf0 000FEF  
                               fsr0l 000FE9                                 fsr2h 000FDA  
                               fsr1l 000FE1                                 indf2 000FDF  
                               fsr2l 000FD9               ??_I2C1_MasterTRBInsert 0021  
                               btemp 0045                        __CFG_BORV$190 000000  
                               pclat 000FFA                      OLED_command@com 0025  
                               prodh 000FF4                                 prodl 000FF3  
                               start 00B6                        __CFG_IESO$OFF 000000  
                    __end_of_GetTime 0E80                         ___param_bank 000010  
     I2C1_MasterWriteTRBBuild@length 001F                           _i2c1_state 003B  
                 __size_of_OLED_init 008C       __size_of_OSCILLATOR_Initialize 000E  
          I2C1_MasterTRBInsert@count 001B        __end_of_OSCILLATOR_Initialize 0E60  
          I2C1_MasterTRBInsert@pflag 001F                                ?_main 0001  
                  __end_of_I2C1_Stop 0CE4                                _T0CON 000FD5  
                              _T2CON 000FBA                                _LATA3 007C4B  
                              _LATC1 007C59                                _LATA6 007C4E  
                              _LATA7 007C4F                                _LATE0 007C68  
                              _LATE1 007C69                                _LATE2 007C6A  
                     __CFG_DEBUG$OFF 000000                                i2l272 0070  
                              i2l267 004E                                i2l276 007A  
                              i2l269 005A                                _TMR0H 000FD7  
                              _TMR0L 000FD6                                _TRISA 000F92  
                              _TRISB 000F93                                _TRISC 000F94  
                              _TRISD 000F95                                _TRISE 000F96  
       __end_of_I2C1_BusCollisionISR 0E82                        __CFG_WRT0$OFF 000000  
                      __CFG_WRT1$OFF 000000                        __CFG_WRT2$OFF 000000  
                      __CFG_WRT3$OFF 000000                 _EUSART1_Transmit_ISR 0D20  
                     __CFG_EBTR0$OFF 000000                       __CFG_FCMEN$OFF 000000  
                     __CFG_EBTR1$OFF 000000                       __CFG_EBTR2$OFF 000000  
                     __CFG_EBTR3$OFF 000000                    ??_I2C1_Initialize 001B  
                   __end_of_TMR0_ISR 0D20                        __CFG_WRTB$OFF 000000  
                      __CFG_WRTC$OFF 000000                        __CFG_WRTD$OFF 000000  
                     __CFG_EBTRB$OFF 000000                                _brake 00C2  
                              _group 0030                      __end_of_memmove 074C  
                 __CFG_MCLRE$EXTMCLR 000000                      __end_of_picture 7FE3  
                       ?_oledPutChar 0001                                tablat 000FF5  
                              plusw2 000FDB                                status 000FD8  
                     __CFG_HFOFST$ON 000000                    ??_ReadButtonState 0003  
                     __CFG_PBADEN$ON 000000      I2C1_MasterWriteTRBBuild@address 0021  
                    __initialization 0982                I2C1_MasterWrite@pdata 00F3  
              I2C1_MasterWrite@pflag 00F9                         __end_of_main 0BBC  
        ?_INTERRUPT_InterruptManager 0001                     __end_of_OledFont 7ED3  
                 __size_of_ClearTime 000C                          _i2c1_object 0029  
                             ??_main 0029                        __activetblptr 000002  
              ?_EUSART1_Transmit_ISR 0001                               _ADCON0 000FC2  
                             _ADCON1 000FC1                               _ADCON2 000FC0  
                             _ADRESH 000FC4                               _ADRESL 000FC3  
                             _ANSELA 000F38                               _ANSELB 000F39  
                             _ANSELC 000F3A                               _ANSELD 000F3B  
                             _ANSELE 000F3C                               _RC1STA 000FAB  
                             i2l1136 0876                               i2l1167 0E02  
                             i2l4031 0D04                               i2l4019 0D4A  
                             i2l4027 0CF4                               i2l4037 0D16  
                     __CFG_WDTEN$OFF 000000          UART_buff_modulo_inc@modulus 0003  
                             i2l5411 027C                               i2l5403 0230  
                             i2l3741 04BE                               i2l5423 02BE  
                             i2l5343 0142                               i2l3751 0540  
                             i2l3743 04D8                               i2l3649 0DA0  
                             i2l3825 03FA                               i2l5281 0CDE  
                             i2l5441 0316                               i2l5361 0188  
                             i2l3745 04F2                               i2l3737 048A  
                             i2l3819 038E                               i2l5443 031E  
                             i2l5427 02C6                               i2l5355 0170  
                             i2l3747 050C                               i2l3739 04A4  
                             i2l3755 055A                               i2l3749 0526  
                             i2l3839 0872                               i2l5287 0DF4  
                             i2l5439 0312                               i2l5375 01CA  
                             i2l5449 0328                               i2l5395 021A  
                             i2l5549 0064                       _GetButtonState 0DAA  
                             _RCREG1 000FAE                    __end_of_OLED_init 0906  
                             _OSCCON 000FD3                               _SPBRG1 000FAF  
                          ??_GetTime 001D                               _TX1STA 000FAC  
                             _TXREG1 000FAD                    ?_I2C1_MasterWrite 00F3  
                     __CFG_XINST$OFF 000000                   ??_I2C1_MasterWrite 0025  
                             _Splash 0A60                       _p_i2c1_current 0032  
                      _output_buffer 0300                      oledPutChar@base 0142  
                     __CFG_STVREN$ON 000000           ??_I2C1_MasterWriteTRBBuild 0023  
                          ?_I2C1_ISR 0001                               clear_0 0988  
                             clear_1 0994                               clear_2 09A0  
                             clear_3 09AC                               clear_4 09B8  
                             clear_5 09C4                               clear_6 09D0  
                      ?_OLED_command 0001                               _rx_len 0041  
                       __pdataCOMRAM 0044                            ??_memmove 0021  
                       __mediumconst 7BD2                               tblptrh 000FF7  
                             tblptrl 000FF6                               tblptru 000FF8  
       __end_of_UART_buff_modulo_inc 0DAA               __end_of_GetButtonState 0DD2  
      I2C1_MasterWriteTRBBuild@pdata 001D        __size_of_INTERRUPT_Initialize 0012  
                  _SYSTEM_Initialize 0E2E                    __end_of_ClearTime 0E6C  
                         __accesstop 0060              __end_of__initialization 09E8  
                 ?_SYSTEM_Initialize 0001                        ___rparam_used 000001  
                     _i2c1_trb_count 00CA                _I2C1_FunctionComplete 0DD2  
               _I2C1_BusCollisionISR 0E80                       __pcstackCOMRAM 0001  
             I2C1_MasterWrite@length 00F5                  ??_SYSTEM_Initialize 001B  
                          ?_TMR0_ISR 0001                           ??_I2C1_ISR 0004  
                     ??_OLED_command 0025                   UART_buff_get@_this 0007  
              __end_of_UART_buff_get 087A               ??_EUSART1_Transmit_ISR 000C  
              __end_of_UART_buff_put 0488          __end_of_EUSART1_Receive_ISR 0E18  
                    ?_GetButtonState 001B            __end_of_SYSTEM_Initialize 0E40  
                _addressErrorCounter 00BE                           __pbssBANK0 0060  
                         __pbssBANK1 0100                           __pbssBANK2 0200  
                         __pbssBANK3 0300                           __pbssBANK4 0400  
                         __pbssBANK5 0500                      __CFG_PLLCFG$OFF 000000  
               __size_of_oledPutChar 010A              __size_of_UART_buff_size 0016  
                 __size_of_oledClear 0058                ?_I2C1_BusCollisionISR 0001  
                 __size_of_oledPrint 0052                   __CFG_CCP2MX$PORTC1 000000  
                            ?_Splash 0001                           ??_TMR0_ISR 0005  
                 __CFG_CCP3MX$PORTB5 000000                      _I2C1_Initialize 0D52  
                         _crc_buffer 0128                            TMR0_ISR@x 0005  
                 UART_buff_put@_this 0007                              _OSCCON2 000FD2  
                          _I2C1_Stop 0CA6         UART_buff_modulo_inc@my_value 0005  
                  __CFG_PRICLKEN$OFF 000000                              _OSCTUNE 000F9B  
                            _SPBRGH1 000FB0                              _SSP1ADD 000FC8  
                    _ReadButtonState 0488                  _receiveArrayAddress 00CE  
                            _SSP1BUF 000FC9        I2C1_MasterTRBInsert@ptrb_list 001D  
                            _GetTime 0E76                    _alignErrorCounter 00C0  
                    __CFG_PWRTEN$OFF 000000               ?_I2C1_FunctionComplete 0001  
                            __Hparam 0000        __size_of_I2C1_MasterTRBInsert 009C  
                            __Lparam 0000                   _p_i2c1_trb_current 0034  
                          _AKNAKsend 0039                      __size_of_Splash 005A  
               _UART_buff_modulo_inc 0D80                              _calc_CS 003A  
                            __pcinit 0982                              __ramtop 0600  
                   oledPutChar@bytes 0139                        ?_Setupdisplay 0001  
                            __ptext0 0B68                              __ptext1 0A60  
                            __ptext2 0C10                              __ptext3 0E6C  
                            __ptext4 0ABA                              __ptext5 059E  
                            __ptext6 06A8                              __ptext7 09F6  
                            __ptext8 087A                              __ptext9 0906  
                         _oledGotoYX 09F6                            _T0CONbits 000FD5  
              _OSCILLATOR_Initialize 0E52                            _T2CONbits 000FBA  
                            _memmove 06A8                    __end_of_oledClear 0B12  
           ??_PIN_MANAGER_Initialize 001B                              _picture 7ED3  
                         ?_I2C1_Stop 0001                    __end_of_oledPrint 0C62  
                            _timeOut 00DE           __size_of_SYSTEM_Initialize 0012  
               I2C1_ISR@pi2c_buf_ptr 00BA                 end_of_initialization 09E8  
                          _LED_array 0088                         oledClear@col 0148  
               __end_of_OLED_command 0982                         oledClear@row 0146  
                      __Lmediumconst 7BD2               ??_I2C1_BusCollisionISR 0001  
            __end_of_I2C1_Initialize 0D80                            _OLED_init 087A  
              ?_UART_buff_modulo_inc 0001                              postdec2 000FDD  
                            postinc0 000FEE                              postinc2 000FDE  
              ReadButtonState@btnnum 0001                   OLED_command@status 0026  
                     ??_Setupdisplay 0029                            _PORTAbits 000F80  
                          _PORTBbits 000F81                            _PORTDbits 000F83  
            __end_of_ReadButtonState 059E            __size_of_I2C1_MasterWrite 0054  
             _dataAdressErrorCounter 00C6                    __size_of_I2C1_ISR 02B4  
                         _rx_address 003F                            _TRISAbits 000F92  
                          _TRISCbits 000F94    I2C1_ISR@i2c_10bit_address_restart 0038  
                     _UART_buff_size 0E18                           ?_OLED_init 0001  
            I2C1_MasterWrite@address 00F7                            _ClearTime 0E60  
                      _moduleAddress 003D                 _timer0ReloadVal16bit 0036  
       __end_of_INTERRUPT_Initialize 0E52         _TMR2_DefaultInterruptHandler 000000  
                     __end_of_Splash 0ABA                      _crcErrorCounter 00C4  
            I2C1_MasterWrite@trBlock 00E7                        __pidataCOMRAM 0E82  
                  __size_of_TMR0_ISR 003C             I2C1_Stop@completion_code 0003  
                        ?_oledGotoYX 0027               ?_OSCILLATOR_Initialize 0001  
                   ??_GetButtonState 001D                  start_initialization 0982  
                        ??_I2C1_Stop 0001      __size_of_PIN_MANAGER_Initialize 0056  
  __size_of_I2C1_MasterWriteTRBBuild 0044            ?_I2C1_MasterWriteTRBBuild 001B  
                     UART_buff_get@c 000B               __end_of_UART_buff_size 0E2E  
                     UART_buff_put@c 0009                           ?_ClearTime 0001  
                   ?_I2C1_Initialize 0001               ??_UART_buff_modulo_inc 0005  
                           ??_Splash 0029         I2C1_MasterWriteTRBBuild@ptrb 001B  
                   ?_ReadButtonState 0001                          __pbssCOMRAM 0029  
      __size_of_EUSART1_Transmit_ISR 0032                        __pcstackBANK0 00F3  
                      __pcstackBANK1 0139                           oledPrint@s 0027  
                      _i2c1_tr_queue 00EC                __size_of_OLED_command 007C  
                      ??_oledPutChar 00FB                      ?_UART_buff_size 0001  
            ??_I2C1_FunctionComplete 0001         __size_of_EUSART1_Receive_ISR 001E  
               __end_of_Setupdisplay 0E76                             ?_GetTime 001B  
                __size_of_oledGotoYX 006A                          ??_OLED_init 0027  
             __size_of_UART_buff_get 0092               __size_of_UART_buff_put 011A  
             _PIN_MANAGER_Initialize 0B12                            __pintcode 0008  
                      __pmediumconst 7BD2                             _I2C1_ISR 00BA  
       ??_INTERRUPT_InterruptManager 000D                         _OLED_command 0906  
                   _I2C1_MasterWrite 0BBC                             _BAUD1CON 000FB8  
       __end_of_I2C1_MasterTRBInsert 07E8                             ?_memmove 001B  
                          _butnarray 00B0                            _oledClear 0ABA  
               _INTERRUPT_Initialize 0E40                 GetButtonState@btnnum 001B  
                          _oledPrint 0C10                         _receiveArray 0100  
                        _LEDNUM_ENAB 0098               I2C1_MasterRead@trBlock 00E2  
                           _LATCbits 000F8B                             _LEDState 00A4  
                UART_buff_size@_this 0001                             _IPR1bits 000F9F  
                           _IPR2bits 000FA2                             _PIE1bits 000F9D  
                           _PIE2bits 000FA0                          ??_ClearTime 001B  
                __end_of_oledPutChar 06A8                             i2u301_40 0D3A  
__size_of_INTERRUPT_InterruptManager 00AE                             i2u270_40 0520  
                           i2u270_46 0522                             i2u271_40 053A  
                           i2u271_46 053C                             i2u272_40 0554  
                           i2u272_46 0556                             i2u265_40 049E  
                           _PIR1bits 000F9E                             i2u265_46 04A0  
                           i2u274_40 0806                             i2u266_40 04B8  
                           i2u266_46 04BA                             i2u267_40 04D2  
                           _PIR2bits 000FA1                             i2u267_46 04D4  
                           i2u268_40 04EC                             i2u268_46 04EE  
                           i2u269_40 0506                             i2u269_46 0508  
                           i2u527_40 029C                             i2u527_47 0292  
                           i2u529_40 02EA                             i2u529_47 02DE  
                           _RCONbits 000FD0                     __CFG_WDTPS$32768 000000  
                           _SSP1CON1 000FC6                             _SSP1CON3 000FCB  
                           _TMR0_ISR 0CE4                             _SSP1STAT 000FC7  
                       _input_buffer 0200                            _rx_buffer 0500  
                         _ADCON0bits 000FC2                        _UART_buff_get 07E8  
                      _UART_buff_put 036E                           ?_oledClear 0001  
                        _INTCON2bits 000FF1                ?_INTERRUPT_Initialize 0001  
                         ?_oledPrint 0027                    _sendStructAddress 00D0  
                           _OledFont 7BD3                     __size_of_GetTime 000A  
                           __Hrparam 0000        __size_of_I2C1_BusCollisionISR 0002  
                           __Lrparam 0000                   __CFG_BOREN$SBORDIS 000000  
             I2C1_ISR@i2c_bytes_left 00B8                    __CFG_P2BMX$PORTD2 000000  
            ??_OSCILLATOR_Initialize 001B                            memmove@d1 001B  
                          memmove@s1 001D     __end_of_I2C1_MasterWriteTRBBuild 0CA6  
                       ??_oledGotoYX 0028                       ?_UART_buff_get 0007  
                     ?_UART_buff_put 0007                     __size_of_memmove 00A4  
                I2C1_ISR@i2c_address 0042                             __ptext10 0BBC  
                           __ptext11 0C62                             __ptext20 0E60  
                           __ptext12 074C                             __ptext13 0E2E  
                           __ptext30 07E8                             __ptext22 0CE4  
                           __ptext14 0B12                __size_of_Setupdisplay 000A  
                           __ptext31 0DFA                             __ptext23 0488  
                           __ptext15 0E52                             __ptext32 036E  
                           __ptext24 00BA                             __ptext16 0E40  
                           __ptext33 0D80                             __ptext25 0CA6  
                           __ptext17 0D52                             __ptext26 0DD2  
                           __ptext18 0E76                             __ptext27 0E80  
                           __ptext19 0DAA                             __ptext28 0D20  
                           __ptext29 0E18                         _SSP1CON1bits 000FC6  
                       _SSP1CON2bits 000FC5                    oledPutChar@status 0145  
                   oledGotoYX@Column 0027              EUSART1_Receive_ISR@data 000C  
                        _oledPutChar 059E                        _returnAddress 003E  
                      __size_of_main 0054                       _Transmit_stall 0044  
                 __end_of_oledGotoYX 0A60                 _I2C1_MasterTRBInsert 074C  
                         _RC1STAbits 000FAB                             int$flags 0045  
      handleIndicators@oldIndicators 00E0                         _serial_write 00D8  
                           _throttle 00DA   __end_of_INTERRUPT_InterruptManager 00B6  
         _INTERRUPT_InterruptManager 0008                  _EUSART1_Receive_ISR 0DFA  
                       _Setupdisplay 0E6C                           _INTCONbits 000FF2  
          UART_buff_modulo_inc@value 0001                     ??_UART_buff_size 0003  
             ??_INTERRUPT_Initialize 001B                     _serial_available 00D2  
                           memmove@d 0023                             memmove@n 001F  
                           memmove@s 0025                          ??_oledClear 0029  
                        ??_oledPrint 0029                             intlevel2 0000  
               ?_EUSART1_Receive_ISR 0001              ?_PIN_MANAGER_Initialize 0001  
           __end_of_I2C1_MasterWrite 0C10       __size_of_I2C1_FunctionComplete 0028  
      __end_of_I2C1_FunctionComplete 0DFA                ?_I2C1_MasterTRBInsert 001B  
       __end_of_EUSART1_Transmit_ISR 0D52                          _ring_buffer 0400  
                        _serial_peek 00D4                          _serial_read 00D6  
      __size_of_UART_buff_modulo_inc 002A             __size_of_I2C1_Initialize 002E  
                    ??_UART_buff_get 0009                      ??_UART_buff_put 000A  
           _I2C1_MasterWriteTRBBuild 0C62                    __CFG_T3CMX$PORTC0 000000  
                     _maxDataAddress 003C             __size_of_ReadButtonState 0116  
              ??_EUSART1_Receive_ISR 000C       __end_of_PIN_MANAGER_Initialize 0B68  
                      oledGotoYX@Row 00FB              __size_of_GetButtonState 0028  
                 __size_of_I2C1_Stop 003E                        _displaybuffer 0060  
                  __CFG_FOSC$INTIO67 000000                _TMR2_InterruptHandler 00BC  
