Microchip Technology Inc, v1.26 (A)

Tool Name:
  c:\program files (x86)\microchip\xc16\v1.26\bin\bin\..\bin/elf-ld.exe

Command:
  -p33FJ128GP804 \
  -o \
  dist/default/debug/BMM.X.debug.elf \
  -Lc:/program files (x86)/microchip/xc16/v1.26/bin/bin/.. \
  -Lc:/program files (x86)/microchip/xc16/v1.26/bin/bin/../../lib \
  -Lc:/program files (x86)/microchip/xc16/v1.26/bin/bin/../../lib/PIC24E \
  -Lc:/program files (x86)/microchip/xc16/v1.26/bin/bin/../../support/PIC24E/gld \
  -Lc:/program files (x86)/microchip/xc16/v1.26/bin/bin/../../lib/PIC24F \
  -Lc:/program files (x86)/microchip/xc16/v1.26/bin/bin/../../support/PIC24F/gld \
  -Lc:/program files (x86)/microchip/xc16/v1.26/bin/bin/../../lib/PIC24H \
  -Lc:/program files (x86)/microchip/xc16/v1.26/bin/bin/../../support/PIC24H/gld \
  -Lc:/program files (x86)/microchip/xc16/v1.26/bin/bin/../../lib/dsPIC30F \
  -Lc:/program files (x86)/microchip/xc16/v1.26/bin/bin/../../support/dsPIC30F/gld \
  -Lc:/program files (x86)/microchip/xc16/v1.26/bin/bin/../../lib/dsPIC33E \
  -Lc:/program files (x86)/microchip/xc16/v1.26/bin/bin/../../support/dsPIC33E/gld \
  -Lc:/program files (x86)/microchip/xc16/v1.26/bin/bin/../../lib/dsPIC33F \
  -Lc:/program files (x86)/microchip/xc16/v1.26/bin/bin/../../support/dsPIC33F/gld \
  build/default/debug/ConfigBits.o \
  build/default/debug/FastTransfer.o \
  build/default/debug/Function.o \
  build/default/debug/main.o \
  build/default/debug/pwm.o \
  build/default/debug/I2C.o \
  build/default/debug/UART.o \
  build/default/debug/Timers.o \
  build/default/debug/Communications.o \
  build/default/debug/UART1.o \
  build/default/debug/LT6804.o \
  build/default/debug/spi2.o \
  build/default/debug/BatteryManagment.o \
  build/default/debug/ADS1015.o \
  -TC:\\Users\\richc\\AppData\\Local\\Temp\\tmp000017c8.00 \
  -TC:\\Users\\richc\\AppData\\Local\\Temp\\tmp000017c8.01 \
  -TC:\\Users\\richc\\AppData\\Local\\Temp\\tmp000017c8.02 \
  -TC:\\Users\\richc\\AppData\\Local\\Temp\\tmp000017c8.03 \
  -TC:\\Users\\richc\\AppData\\Local\\Temp\\tmp000017c8.04 \
  --defsym=__MPLAB_BUILD=1 \
  --defsym=__MPLAB_DEBUG=1 \
  --defsym=__DEBUG=1 \
  --defsym=__MPLAB_DEBUGGER_PK3=1 \
  -Tp33FJ128GP804.gld.05 \
  --heap=500 \
  --stack=16 \
  --check-sections \
  --data-init \
  --pack-data \
  --handles \
  --isr \
  --no-gc-sections \
  --fill-upper=0 \
  --stackguard=16 \
  --no-force-link \
  --smart-io \
  -Map=dist/default/debug/BMM.X.debug.map \
  --report-mem \
  --memorysummary \
  dist/default/debug/memoryfile.xml \
  -start-group \
  --library=pic30-elf \
  --library=m-elf \
  --library=c-elf \
  -end-group \

Archive member included because of file (symbol)

c:/program files (x86)/microchip/xc16/v1.26/bin/bin/../../lib\libpic30-elf.a(crt0_standard.o)
                              (__resetPRI)
c:/program files (x86)/microchip/xc16/v1.26/bin/bin/../../lib\libpic30-elf.a(data_init_standard.o)
                              c:/program files (x86)/microchip/xc16/v1.26/bin/bin/../../lib\libpic30-elf.a(crt0_standard.o) (__data_init_standard)
c:/program files (x86)/microchip/xc16/v1.26/bin/bin/../../lib\libpic30-elf.a(c30_uart.eo)
                              build/default/debug/UART1.o (___C30_UART)
c:/program files (x86)/microchip/xc16/v1.26/bin/bin/../../lib\libpic30-elf.a(delay32.eo)
                              build/default/debug/Function.o (___delay32)
c:/program files (x86)/microchip/xc16/v1.26/bin/bin/../../lib\libm-elf.a(addsf3.eo)
                              build/default/debug/BatteryManagment.o (___subsf3)
c:/program files (x86)/microchip/xc16/v1.26/bin/bin/../../lib\libm-elf.a(divsf3.eo)
                              build/default/debug/BatteryManagment.o (___divsf3)
c:/program files (x86)/microchip/xc16/v1.26/bin/bin/../../lib\libm-elf.a(feqltle.eo)
                              build/default/debug/BatteryManagment.o (___ltsf2)
c:/program files (x86)/microchip/xc16/v1.26/bin/bin/../../lib\libm-elf.a(fgtge.eo)
                              build/default/debug/BatteryManagment.o (___gtsf2)
c:/program files (x86)/microchip/xc16/v1.26/bin/bin/../../lib\libm-elf.a(fixsfsi.eo)
                              build/default/debug/BatteryManagment.o (_(float, int, long long, short, float, short, int))
c:/program files (x86)/microchip/xc16/v1.26/bin/bin/../../lib\libm-elf.a(floatsisf.eo)
                              build/default/debug/BatteryManagment.o (___floatsisf)
c:/program files (x86)/microchip/xc16/v1.26/bin/bin/../../lib\libm-elf.a(fpack.eo)
                              c:/program files (x86)/microchip/xc16/v1.26/bin/bin/../../lib\libm-elf.a(addsf3.eo) (__fpack)
c:/program files (x86)/microchip/xc16/v1.26/bin/bin/../../lib\libm-elf.a(funpack.eo)
                              c:/program files (x86)/microchip/xc16/v1.26/bin/bin/../../lib\libm-elf.a(fixsfsi.eo) (__funpack)
c:/program files (x86)/microchip/xc16/v1.26/bin/bin/../../lib\libm-elf.a(funpack2.eo)
                              c:/program files (x86)/microchip/xc16/v1.26/bin/bin/../../lib\libm-elf.a(addsf3.eo) (__funpack2)
c:/program files (x86)/microchip/xc16/v1.26/bin/bin/../../lib\libm-elf.a(futil.eo)
                              c:/program files (x86)/microchip/xc16/v1.26/bin/bin/../../lib\libm-elf.a(addsf3.eo) (__fPropagateNaN)
c:/program files (x86)/microchip/xc16/v1.26/bin/bin/../../lib\libm-elf.a(logf.eo)
                              build/default/debug/BatteryManagment.o (_logf)
c:/program files (x86)/microchip/xc16/v1.26/bin/bin/../../lib\libm-elf.a(mulsf3.eo)
                              build/default/debug/BatteryManagment.o (___mulsf3)
c:/program files (x86)/microchip/xc16/v1.26/bin/bin/../../lib\libm-elf.a(powf.eo)
                              build/default/debug/BatteryManagment.o (_powf)
c:/program files (x86)/microchip/xc16/v1.26/bin/bin/../../lib\libm-elf.a(_frexpf.eo)
                              c:/program files (x86)/microchip/xc16/v1.26/bin/bin/../../lib\libm-elf.a(logf.eo) (__frexpf)
c:/program files (x86)/microchip/xc16/v1.26/bin/bin/../../lib\libm-elf.a(errno.eo)
                              c:/program files (x86)/microchip/xc16/v1.26/bin/bin/../../lib\libm-elf.a(logf.eo) (_errno)
c:/program files (x86)/microchip/xc16/v1.26/bin/bin/../../lib\libm-elf.a(expf.eo)
                              c:/program files (x86)/microchip/xc16/v1.26/bin/bin/../../lib\libm-elf.a(powf.eo) (_expf)
c:/program files (x86)/microchip/xc16/v1.26/bin/bin/../../lib\libm-elf.a(fchop.eo)
                              c:/program files (x86)/microchip/xc16/v1.26/bin/bin/../../lib\libm-elf.a(powf.eo) (__fchop)
c:/program files (x86)/microchip/xc16/v1.26/bin/bin/../../lib\libm-elf.a(fcompare.eo)
                              c:/program files (x86)/microchip/xc16/v1.26/bin/bin/../../lib\libm-elf.a(feqltle.eo) (__fcompare)
c:/program files (x86)/microchip/xc16/v1.26/bin/bin/../../lib\libm-elf.a(floatdisf.eo)
                              c:/program files (x86)/microchip/xc16/v1.26/bin/bin/../../lib\libm-elf.a(floatsisf.eo) (___floatdisf)
c:/program files (x86)/microchip/xc16/v1.26/bin/bin/../../lib\libm-elf.a(floatundisf.eo)
                              c:/program files (x86)/microchip/xc16/v1.26/bin/bin/../../lib\libm-elf.a(floatdisf.eo) (___floatundisf)
c:/program files (x86)/microchip/xc16/v1.26/bin/bin/../../lib\libm-elf.a(ldexpf.eo)
                              c:/program files (x86)/microchip/xc16/v1.26/bin/bin/../../lib\libm-elf.a(powf.eo) (_ldexpf)
c:/program files (x86)/microchip/xc16/v1.26/bin/bin/../../lib\libc-elf.a(malloc.eo)
                              build/default/debug/FastTransfer.o (_malloc)
c:/program files (x86)/microchip/xc16/v1.26/bin/bin/../../lib\libc-elf.a(memcpy.eo)
                              c:/program files (x86)/microchip/xc16/v1.26/bin/bin/../../lib\libc-elf.a(malloc.eo) (_memcpy)
c:/program files (x86)/microchip/xc16/v1.26/bin/bin/../../lib\libc-elf.a(memset.eo)
                              build/default/debug/FastTransfer.o (_memset)
c:/program files (x86)/microchip/xc16/v1.26/bin/bin/../../lib\libc-elf.a(printf_cdnopuxX.XXeo)
                              build/default/debug/Function.o (__printf_cdnopuxX)
c:/program files (x86)/microchip/xc16/v1.26/bin/bin/../../lib\libc-elf.a(printf_s.XXeo)
                              build/default/debug/main.o (__printf_0)
c:/program files (x86)/microchip/xc16/v1.26/bin/bin/../../lib\libc-elf.a(_iob.eo)
                              c:/program files (x86)/microchip/xc16/v1.26/bin/bin/../../lib\libc-elf.a(printf_cdnopuxX.XXeo) (__iob)
c:/program files (x86)/microchip/xc16/v1.26/bin/bin/../../lib\libc-elf.a(doprnt_cdnopuxX.XXeo)
                              c:/program files (x86)/microchip/xc16/v1.26/bin/bin/../../lib\libc-elf.a(printf_cdnopuxX.XXeo) (__vfprintf_cdnopuxX)
c:/program files (x86)/microchip/xc16/v1.26/bin/bin/../../lib\libc-elf.a(doprnt_s.XXeo)
                              c:/program files (x86)/microchip/xc16/v1.26/bin/bin/../../lib\libc-elf.a(printf_s.XXeo) (__vfprintf_s)
c:/program files (x86)/microchip/xc16/v1.26/bin/bin/../../lib\libc-elf.a(fputc.eo)
                              c:/program files (x86)/microchip/xc16/v1.26/bin/bin/../../lib\libc-elf.a(doprnt_cdnopuxX.XXeo) (_fputc)
c:/program files (x86)/microchip/xc16/v1.26/bin/bin/../../lib\libc-elf.a(flsbuf.eo)
                              c:/program files (x86)/microchip/xc16/v1.26/bin/bin/../../lib\libc-elf.a(fputc.eo) (__flsbuf)
c:/program files (x86)/microchip/xc16/v1.26/bin/bin/../../lib\libpic30-elf.a(write.eo)
                              c:/program files (x86)/microchip/xc16/v1.26/bin/bin/../../lib\libc-elf.a(fputc.eo) (_write)
c:/program files (x86)/microchip/xc16/v1.26/bin/bin/../../lib\libpic30-elf.a(sbrk.eo)
                              c:/program files (x86)/microchip/xc16/v1.26/bin/bin/../../lib\libc-elf.a(malloc.eo) (_sbrk)
c:/program files (x86)/microchip/xc16/v1.26/bin/bin/../../lib\libpic30-elf.a(brk.elo)
                              c:/program files (x86)/microchip/xc16/v1.26/bin/bin/../../lib\libpic30-elf.a(sbrk.eo) (_brk)
c:/program files (x86)/microchip/xc16/v1.26/bin/bin/../../lib\libm-elf.a(udivsi3.eo)
                              c:/program files (x86)/microchip/xc16/v1.26/bin/bin/../../lib\libc-elf.a(doprnt_cdnopuxX.XXeo) (___udivsi3)
c:/program files (x86)/microchip/xc16/v1.26/bin/bin/../../lib\libm-elf.a(mulsi3.eo)
                              c:/program files (x86)/microchip/xc16/v1.26/bin/bin/../../lib\libc-elf.a(doprnt_cdnopuxX.XXeo) (___mulsi3)
c:/program files (x86)/microchip/xc16/v1.26/bin/bin/../../lib\libm-elf.a(divmoddi3.eo)
                              c:/program files (x86)/microchip/xc16/v1.26/bin/bin/../../lib\libc-elf.a(doprnt_cdnopuxX.XXeo) (___udivdi3)
c:/program files (x86)/microchip/xc16/v1.26/bin/bin/../../lib\libm-elf.a(muldi3.eo)
                              c:/program files (x86)/microchip/xc16/v1.26/bin/bin/../../lib\libc-elf.a(doprnt_cdnopuxX.XXeo) (___muldi3)
c:/program files (x86)/microchip/xc16/v1.26/bin/bin/../../lib\libm-elf.a(umuldi3.eo)
                              c:/program files (x86)/microchip/xc16/v1.26/bin/bin/../../lib\libm-elf.a(muldi3.eo) (___umuldi3)
c:/program files (x86)/microchip/xc16/v1.26/bin/bin/../../lib\libc-elf.a(doprnt_cdnopsuxX.XXeo)
                              (__vfprintf_cdnopsuxX)


Selected CodeGuard Options:
  FGS:GWRP:OFF
  FGS:GSS:OFF
  FSS:SWRP:WRPROTECT_OFF
  FSS:SSS:NO_FLASH
  FSS:RSS:NO_RAM
  FBS:BWRP:WRPROTECT_OFF
  FBS:BSS:NO_FLASH
  FBS:RBS:NO_RAM

CodeGuard FLASH Memory:
  boot    (none)
  secure  (none)
  general 0x200 to 0x157fe

CodeGuard RAM Memory:
  general 0x800 to 0x47ff
  secure  (none)
  boot    (none)


xc16-ld 1.26 (A)

Program Memory  [Origin = 0x200, Length = 0x15600]

section                    address   length (PC units)   length (bytes) (dec)
-------                    -------   -----------------   --------------------
.text                        0x200              0x1760          0x2310  (8976)
.const                      0x1960               0x418           0x624  (1572)
.text                       0x1d78              0x275e          0x3b0d  (15117)
.dinit                      0x44d6               0x138           0x1d4  (468)
.text                       0x460e               0x3e0           0x5d0  (1488)
.init.delay32               0x49ee                0x1c            0x2a  (42)
.text                       0x4a0a                0x18            0x24  (36)
.shared.dinit               0x4a22                 0x2             0x3  (3)

                 Total program memory used (bytes):         0x6c36  (27702) 21%


Ivt Memory  [Origin = 0x4, Length = 0xfc]

section                    address   length (PC units)   length (bytes) (dec)
-------                    -------   -----------------   --------------------
.ivt._T1Interrupt             0x1a                 0x2             0x3  (3)
.ivt._T2Interrupt             0x22                 0x2             0x3  (3)
.ivt._T3Interrupt             0x24                 0x2             0x3  (3)
.ivt._U1RXInterrupt           0x2a                 0x2             0x3  (3)
.ivt._U1TXInterrupt           0x2c                 0x2             0x3  (3)


Data Memory  [Origin = 0x800, Length = 0x4000]

section                    address      alignment gaps    total length  (dec)
-------                    -------      --------------    -------------------
reserve_data_0x800           0x800                0x20            0x20  (32)
reserve_data_0x820           0x820                 0x2             0x2  (2)
reserve_data_0x822           0x822                 0x2             0x2  (2)
reserve_data_0x824           0x824                 0x2             0x2  (2)
reserve_data_0x826           0x826                0x2a            0x2a  (42)
.nbss                        0x850                   0            0x98  (152)
.ndata                       0x8e8                   0            0x10  (16)
.nbss                        0x8f8                   0             0x4  (4)
.bss                         0x8fc                   0           0xd78  (3448)
.data                       0x1674                   0            0xca  (202)
.bss                        0x173e                   0            0x64  (100)
.data                       0x17a2                   0            0x26  (38)
.bss                        0x17c8                   0            0x16  (22)
.data                       0x17de                   0             0x2  (2)
.bss                        0x17e0                   0             0x2  (2)
.heap                       0x17e2                   0           0x1f4  (500)

                 Total data memory used (bytes):         0x11d6  (4566) 27%


Dynamic Memory Usage

region                     address                      maximum length  (dec)
------                     -------                      ---------------------
heap                        0x17e2                               0x1f4  (500)
stack                       0x19d6                              0x2e2a  (11818)

                 Maximum dynamic memory (bytes):         0x301e  (12318)


External Symbols in Data Memory (by address):

                    0x0850                  _timer_3_Function
                    0x0852                  _slaveTime
                    0x0856                  _time
                    0x085a                  _ADCTime
                    0x085e                  _LEDtime
                    0x0862                  _talkTime
                    0x0876                  _FaultValueHistory
                    0x0878                  _count
                    0x087c                  _k
                    0x087e                  _j
                    0x0880                  _Volt1
                    0x0884                  _Volt2
                    0x0888                  _CC1
                    0x088c                  _CC2
                    0x0890                  _CC3
                    0x0894                  _CFGR0
                    0x0895                  _CFGR1
                    0x0896                  _CFGR2
                    0x0897                  _CFGR3
                    0x0898                  _CFGR4
                    0x0899                  _CFGR5
                    0x089a                  _TempK
                    0x089e                  _Vin
                    0x08a0                  _Over_Temp_Value
                    0x08a2                  _Battery_Is_Charging_Flag
                    0x08a4                  _FaultValue
                    0x08a6                  _serial_write
                    0x08a8                  _serial_read
                    0x08aa                  _serial_available
                    0x08ac                  _serial_peek
                    0x08ae                  _rx_buffer
                    0x08b0                  _rx_array_inx
                    0x08b1                  _rx_len
                    0x08b2                  _calc_CS
                    0x08b3                  _moduleAddress
                    0x08b4                  _returnAddress
                    0x08b5                  _maxDataAddress
                    0x08b6                  _receiveArrayAddress
                    0x08b8                  _sendStructAddress
                    0x08ba                  _AKNAKsend
                    0x08bc                  _alignErrorCounter
                    0x08be                  _crcErrorCounter
                    0x08c0                  _addressErrorCounter
                    0x08c2                  _dataAdressErrorCounter
                    0x08c4                  _rx_address
                    0x08c6                  _group
                    0x08c8                  _i
                    0x08ca                  _current_ic
                    0x08cc                  _current_byte
                    0x08ce                  _ADCV
                    0x08d2                  _ADAX
                    0x08d6                  _ADSTAT
                    0x08da                  _x
                    0x08dc                  _pendingSend
                    0x08de                  _COMM_STATE
                    0x08e0                  _faultFlag
                    0x08e2                  _slaveaddr
                    0x08e4                  _portClosed
                    0x08e8                  _CarOn
                    0x08e9                  _CurrentDir
                    0x08ea                  _VoltageDividerResistance
                    0x08ec                  _Over_Voltage_Value
                    0x08ee                  _Under_Voltage_Value
                    0x08f0                  _conversionDelay
                    0x08f1                  _bitShift
                    0x08f2                  _IC_gain
                    0x08f4                  _Transmit_stall
                    0x08f6                  _Transmit_stall1
                    0x08f8                  _i2cAddress
                    0x08fc                  _CurrentOffset
                    0x0914                  _Current
                    0x0920                  _CVolt
                    0x0938                  _TempCBank1
                    0x0a58                  _TempCBank2
                    0x0b78                  _Voltage_data
                    0x0b90                  _Aux_data
                    0x0b9c                  _LTC6804_DATA_ConfigBank1
                    0x0c2c                  _LTC6804_DATA_ConfigBank2
                    0x0cbc                  _Stat_codes_Bank1
                    0x0d4c                  _Stat_codes_Bank2
                    0x0ddc                  _aux_codes_Bank1
                    0x0e6c                  _aux_codes_Bank2
                    0x0efc                  _cell_codes_Bank1
                    0x101c                  _cell_codes_Bank2
                    0x113c                  _Aux_codes_Bank1
                    0x11cc                  _Aux_codes_Bank2
                    0x125c                  _input_buffer
                    0x132a                  _output_buffer
                    0x13f8                  _input_buffer1
                    0x14c6                  _output_buffer1
                    0x1594                  _ring_buffer
                    0x1662                  _crc_buffer
                    0x173e                  _receiveArray
                    0x17a2                  __iob
                    0x17c6                  __Files
                    0x17c8                  ___allocs
                    0x17d0                  ___allocp
                    0x17d2                  ___alloct
                    0x17d4                  ___allocx
                    0x17d8                  __outdone
                    0x17d9                  __sibuf
                    0x17db                  __sobuf
                    0x17de                  ___C30_UART
                    0x17e0                  ___curbrk

External Symbols in Data Memory (by name):

                    0x08d2                  _ADAX
                    0x085a                  _ADCTime
                    0x08ce                  _ADCV
                    0x08d6                  _ADSTAT
                    0x08ba                  _AKNAKsend
                    0x113c                  _Aux_codes_Bank1
                    0x11cc                  _Aux_codes_Bank2
                    0x0b90                  _Aux_data
                    0x08a2                  _Battery_Is_Charging_Flag
                    0x0888                  _CC1
                    0x088c                  _CC2
                    0x0890                  _CC3
                    0x0894                  _CFGR0
                    0x0895                  _CFGR1
                    0x0896                  _CFGR2
                    0x0897                  _CFGR3
                    0x0898                  _CFGR4
                    0x0899                  _CFGR5
                    0x08de                  _COMM_STATE
                    0x0920                  _CVolt
                    0x08e8                  _CarOn
                    0x0914                  _Current
                    0x08e9                  _CurrentDir
                    0x08fc                  _CurrentOffset
                    0x08a4                  _FaultValue
                    0x0876                  _FaultValueHistory
                    0x08f2                  _IC_gain
                    0x085e                  _LEDtime
                    0x0b9c                  _LTC6804_DATA_ConfigBank1
                    0x0c2c                  _LTC6804_DATA_ConfigBank2
                    0x08a0                  _Over_Temp_Value
                    0x08ec                  _Over_Voltage_Value
                    0x0cbc                  _Stat_codes_Bank1
                    0x0d4c                  _Stat_codes_Bank2
                    0x0938                  _TempCBank1
                    0x0a58                  _TempCBank2
                    0x089a                  _TempK
                    0x08f4                  _Transmit_stall
                    0x08f6                  _Transmit_stall1
                    0x08ee                  _Under_Voltage_Value
                    0x089e                  _Vin
                    0x0880                  _Volt1
                    0x0884                  _Volt2
                    0x08ea                  _VoltageDividerResistance
                    0x0b78                  _Voltage_data
                    0x17c6                  __Files
                    0x17de                  ___C30_UART
                    0x17d0                  ___allocp
                    0x17c8                  ___allocs
                    0x17d2                  ___alloct
                    0x17d4                  ___allocx
                    0x17e0                  ___curbrk
                    0x17a2                  __iob
                    0x17d8                  __outdone
                    0x17d9                  __sibuf
                    0x17db                  __sobuf
                    0x08c0                  _addressErrorCounter
                    0x08bc                  _alignErrorCounter
                    0x0ddc                  _aux_codes_Bank1
                    0x0e6c                  _aux_codes_Bank2
                    0x08f1                  _bitShift
                    0x08b2                  _calc_CS
                    0x0efc                  _cell_codes_Bank1
                    0x101c                  _cell_codes_Bank2
                    0x08f0                  _conversionDelay
                    0x0878                  _count
                    0x08be                  _crcErrorCounter
                    0x1662                  _crc_buffer
                    0x08cc                  _current_byte
                    0x08ca                  _current_ic
                    0x08c2                  _dataAdressErrorCounter
                    0x08e0                  _faultFlag
                    0x08c6                  _group
                    0x08c8                  _i
                    0x08f8                  _i2cAddress
                    0x125c                  _input_buffer
                    0x13f8                  _input_buffer1
                    0x087e                  _j
                    0x087c                  _k
                    0x08b5                  _maxDataAddress
                    0x08b3                  _moduleAddress
                    0x132a                  _output_buffer
                    0x14c6                  _output_buffer1
                    0x08dc                  _pendingSend
                    0x08e4                  _portClosed
                    0x173e                  _receiveArray
                    0x08b6                  _receiveArrayAddress
                    0x08b4                  _returnAddress
                    0x1594                  _ring_buffer
                    0x08c4                  _rx_address
                    0x08b0                  _rx_array_inx
                    0x08ae                  _rx_buffer
                    0x08b1                  _rx_len
                    0x08b8                  _sendStructAddress
                    0x08aa                  _serial_available
                    0x08ac                  _serial_peek
                    0x08a8                  _serial_read
                    0x08a6                  _serial_write
                    0x0852                  _slaveTime
                    0x08e2                  _slaveaddr
                    0x0862                  _talkTime
                    0x0856                  _time
                    0x0850                  _timer_3_Function
                    0x08da                  _x

External Symbols in Program Memory (by address):

                  0x000200                  __resetPRI
                  0x00022c                  __psv_init
                  0x00023c                  __data_init_standard
                  0x00023c                  __data_init
                  0x0002b8                  __T1Interrupt
                  0x0002d0                  __T2Interrupt
                  0x00030a                  __T3Interrupt
                  0x000362                  _initTimerOne
                  0x000380                  _initTimerTwo
                  0x0003a2                  _initTimerThree
                  0x0003de                  _updateTimers
                  0x000464                  _time_get
                  0x0004a6                  _time_Set
                  0x0004ee                  _TalkTimeSet
                  0x0004fe                  _CheckFault
                  0x000512                  __DefaultInterrupt
                  0x0005b4                  ___subsf3
                  0x0005b6                  ___addsf3
                  0x000670                  ___divsf3
                  0x0006f4                  ___lesf2
                  0x0006f4                  ___ltsf2
                  0x0006f4                  ___eqsf2
                  0x0006f8                  ___gtsf2
                  0x0006f8                  ___gesf2
                  0x0006fc                  ___fixsfsi
                  0x00073e                  ___floatsisf
                  0x000744                  __fpack
                  0x000790                  __funpack
                  0x0007ba                  __funpack2
                  0x0007ca                  __fPropagateNaN
                  0x0007dc                  __fbopExit
                  0x0007e4                  __fbopReturnNaN
                  0x0007ea                  _logf
                  0x000898                  ___mulsf3
                  0x000900                  _powf
                  0x000ac6                  __frexpf
                  0x000ae0                  _expf
                  0x000ba4                  __fchop
                  0x000bf2                  __fcompare
                  0x000c28                  ___floatdisf
                  0x000c48                  ___floatundisf
                  0x000ca6                  _ldexpf
                  0x000cea                  _malloc
                  0x000dfc                  _free
                  0x000e12                  _realloc
                  0x000e94                  _memcpy
                  0x000ea2                  _memset
                  0x000eb0                  __printf_cdnopuxX
                  0x000ebe                  __printf_s
                  0x000ebe                  __printf_0
                  0x000fd4                  ___udivsi3
                  0x000ff4                  ___mulp32eds3
                  0x000ff4                  ___mulp32peds3
                  0x000ff4                  ___mulsi3
                  0x00104c                  ___udivmoddi3
                  0x001132                  ___udivdi3
                  0x001140                  ___umoddi3
                  0x001148                  ___divdi3
                  0x0011a8                  ___moddi3
                  0x001204                  ___muldi3
                  0x001256                  ___umuldi3
                  0x0012ac                  __vfprintf_0
                  0x0012ac                  __vfprintf_s
                  0x0012ac                  __vfprintf_cdnopsuxX
                  0x0012ac                  __vfprintf_cdnopuxX
                  0x001d78                  _Start_BMS
                  0x001d9e                  _Charge_Mode
                  0x001db4                  _Run_Mode
                  0x001dbc                  _Run_GPIO_Temp_ColumbCounting_Timer
                  0x001dc4                  _Initalize_LT6804b
                  0x001e1e                  _Run_ByPass
                  0x001ea4                  _Open_All_ByPass
                  0x001ef2                  _Startuptests
                  0x001f4c                  _CheckTestReading
                  0x002306                  _CheckThresholdsBank
                  0x00235e                  _CheckThresholds
                  0x00239a                  _Read_Total_Voltage
                  0x002450                  _Read_Total_GPIO
                  0x0024c8                  _Read_Battery
                  0x0025e2                  _Read_GPIO
                  0x0026c0                  _CalculateTemp
                  0x00279e                  _Test_Temp_Sensors
                  0x002834                  _SetBypass
                  0x0028fc                  _RunBypass_Set
                  0x002978                  _SetTempEnable
                  0x0029da                  _SetUnderOverVoltage
                  0x002a88                  _Set_ADC_Mode
                  0x002ae6                  _Set_DCC_Mode_OFF
                  0x002b56                  _Set_DCTO_Mode_OFF
                  0x002ba0                  _Set_REFON_Pin
                  0x002bfe                  _UpdateLT6804
                  0x002c2c                  _ReadCurrentVolt
                  0x002c88                  _ReadVolt
                  0x002cde                  _ReadVoltToCurrent
                  0x002d1c                  _ChargerEN
                  0x002d24                  _ChargerVal
                  0x002d2c                  _CurrentCoulombCount
                  0x002de2                  _CurrentGet
                  0x002e50                  _LTC6804_initialize
                  0x002e62                  _set_adc
                  0x002eb4                  _Set_Stat
                  0x002ede                  _LTC6804_adcv
                  0x002f0c                  _LTC6804_adax
                  0x002f3a                  _LTC6804_ADSTAT
                  0x002f68                  _LTC6804_rdcv
                  0x00312a                  _LTC6804_rdcv_reg
                  0x0031ba                  _LTC6804_rdaux
                  0x003372                  _LTC6804_rdaux_reg
                  0x003400                  _LTC6804_rdStat
                  0x0035b8                  _LTC6804_rdStat_reg
                  0x003628                  _LTC6804_clrcell
                  0x00365a                  _LTC6804_clraux
                  0x003682                  _LTC6804_wrcfg
                  0x00378e                  _LTC6804_rdcfg
                  0x003882                  _wakeup_idle
                  0x003892                  _wakeup_sleep
                  0x0038a0                  _pec15_calc
                  0x0038ee                  _spi_write_array
                  0x003916                  _spi_write_read
                  0x003952                  _begin
                  0x003998                  _CRC8
                  0x0039fc                  _sendData
                  0x003a66                  _receiveData
                  0x003c9a                  _ToSend
                  0x003cac                  _FastTransfer_buffer_put
                  0x003d30                  _FastTransfer_buffer_get
                  0x003d68                  _FastTransfer_buffer_flush
                  0x003d92                  _FastTransfer_buffer_modulo_inc
                  0x003dae                  _AKNAK
                  0x003de6                  _alignError
                  0x003dee                  _CRCError
                  0x003df6                  _addressError
                  0x003dfe                  _dataAddressError
                  0x003e06                  _crcBufS_put
                  0x003e5e                  _crcBufS_status_put
                  0x003eac                  _crcBufS_get
                  0x003f08                  _CRCcheck
                  0x003faa                  _UART_init
                  0x003fe4                  _UART_buff_init
                  0x003ff4                  _UART_buff_put
                  0x004052                  _UART_buff_get
                  0x00408a                  _UART_buff_flush
                  0x0040b4                  _UART_buff_size
                  0x0040c0                  _UART_buff_modulo_inc
                  0x0040dc                  _UART_buff_peek
                  0x0040ec                  _Receive_peek
                  0x0040f6                  _Receive_available
                  0x004100                  _Receive_get
                  0x00410a                  _Send_put
                  0x004128                  __U1RXInterrupt
                  0x004184                  __U1TXInterrupt
                  0x0041b6                  _SetTxStall
                  0x0041c4                  _GetTxStall
                  0x0041cc                  _Setup
                  0x0042ac                  _Delay
                  0x0042ca                  _PinSetMode
                  0x0042f6                  _ledDebug
                  0x004352                  _CommStart
                  0x00436c                  _updateComms
                  0x004486                  _checkCommDirection
                  0x0044aa                  _populateBatteryT
                  0x0044c0                  _populateBatteryV
                  0x00460e                  _InitI2C
                  0x00462c                  _StartI2C
                  0x00463e                  _RestartI2C
                  0x004650                  _StopI2C
                  0x004668                  _WriteI2C
                  0x00467e                  _IdleI2C
                  0x004690                  _ACKStatus
                  0x00469e                  _NotAckI2C
                  0x0046aa                  _AckI2C
                  0x0046be                  _getsI2C
                  0x0046fe                  _getI2C
                  0x004716                  _i2c_wait
                  0x00472c                  _writeRegister
                  0x00475c                  _readRegister
                  0x00479e                  _ADS1015Begin
                  0x0047a6                  _ADS1015SetGain
                  0x0047b2                  _ADS1015readADC_SingleEnded
                  0x004826                  _SPI2_Initialize
                  0x004836                  _SPI2_Exchange8bit
                  0x004870                  _SPI2_Exchange8bitBuffer
                  0x0048e2                  _SPI2_IsBufferFull
                  0x0048ea                  _SPI2_HasWriteCollisionOccured
                  0x0048f2                  _SPI2_ClearWriteCollisionStatus
                  0x0048f8                  _PWM_Init
                  0x004944                  _Timmer2Init
                  0x004960                  _PWM1update
                  0x00498c                  _PWM2update
                  0x0049b8                  _UART1_init
                  0x0049ee                  ___delay32
                  0x004a0a                  _main
                  0xf80000                  __FBS.sec
                  0xf80002                  __FSS.sec
                  0xf80004                  __FGS.sec

External Symbols in Program Memory (by name):

                  0x004690                  _ACKStatus
                  0x00479e                  _ADS1015Begin
                  0x0047a6                  _ADS1015SetGain
                  0x0047b2                  _ADS1015readADC_SingleEnded
                  0x003dae                  _AKNAK
                  0x0046aa                  _AckI2C
                  0x003998                  _CRC8
                  0x003dee                  _CRCError
                  0x003f08                  _CRCcheck
                  0x0026c0                  _CalculateTemp
                  0x001d9e                  _Charge_Mode
                  0x002d1c                  _ChargerEN
                  0x002d24                  _ChargerVal
                  0x0004fe                  _CheckFault
                  0x001f4c                  _CheckTestReading
                  0x00235e                  _CheckThresholds
                  0x002306                  _CheckThresholdsBank
                  0x004352                  _CommStart
                  0x002d2c                  _CurrentCoulombCount
                  0x002de2                  _CurrentGet
                  0x0042ac                  _Delay
                  0x003d68                  _FastTransfer_buffer_flush
                  0x003d30                  _FastTransfer_buffer_get
                  0x003d92                  _FastTransfer_buffer_modulo_inc
                  0x003cac                  _FastTransfer_buffer_put
                  0x0041c4                  _GetTxStall
                  0x00467e                  _IdleI2C
                  0x00460e                  _InitI2C
                  0x001dc4                  _Initalize_LT6804b
                  0x002f3a                  _LTC6804_ADSTAT
                  0x002f0c                  _LTC6804_adax
                  0x002ede                  _LTC6804_adcv
                  0x00365a                  _LTC6804_clraux
                  0x003628                  _LTC6804_clrcell
                  0x002e50                  _LTC6804_initialize
                  0x003400                  _LTC6804_rdStat
                  0x0035b8                  _LTC6804_rdStat_reg
                  0x0031ba                  _LTC6804_rdaux
                  0x003372                  _LTC6804_rdaux_reg
                  0x00378e                  _LTC6804_rdcfg
                  0x002f68                  _LTC6804_rdcv
                  0x00312a                  _LTC6804_rdcv_reg
                  0x003682                  _LTC6804_wrcfg
                  0x00469e                  _NotAckI2C
                  0x001ea4                  _Open_All_ByPass
                  0x004960                  _PWM1update
                  0x00498c                  _PWM2update
                  0x0048f8                  _PWM_Init
                  0x0042ca                  _PinSetMode
                  0x002c2c                  _ReadCurrentVolt
                  0x002c88                  _ReadVolt
                  0x002cde                  _ReadVoltToCurrent
                  0x0024c8                  _Read_Battery
                  0x0025e2                  _Read_GPIO
                  0x002450                  _Read_Total_GPIO
                  0x00239a                  _Read_Total_Voltage
                  0x0040f6                  _Receive_available
                  0x004100                  _Receive_get
                  0x0040ec                  _Receive_peek
                  0x00463e                  _RestartI2C
                  0x0028fc                  _RunBypass_Set
                  0x001e1e                  _Run_ByPass
                  0x001dbc                  _Run_GPIO_Temp_ColumbCounting_Timer
                  0x001db4                  _Run_Mode
                  0x0048f2                  _SPI2_ClearWriteCollisionStatus
                  0x004836                  _SPI2_Exchange8bit
                  0x004870                  _SPI2_Exchange8bitBuffer
                  0x0048ea                  _SPI2_HasWriteCollisionOccured
                  0x004826                  _SPI2_Initialize
                  0x0048e2                  _SPI2_IsBufferFull
                  0x00410a                  _Send_put
                  0x002834                  _SetBypass
                  0x002978                  _SetTempEnable
                  0x0041b6                  _SetTxStall
                  0x0029da                  _SetUnderOverVoltage
                  0x002a88                  _Set_ADC_Mode
                  0x002ae6                  _Set_DCC_Mode_OFF
                  0x002b56                  _Set_DCTO_Mode_OFF
                  0x002ba0                  _Set_REFON_Pin
                  0x002eb4                  _Set_Stat
                  0x0041cc                  _Setup
                  0x00462c                  _StartI2C
                  0x001d78                  _Start_BMS
                  0x001ef2                  _Startuptests
                  0x004650                  _StopI2C
                  0x0004ee                  _TalkTimeSet
                  0x00279e                  _Test_Temp_Sensors
                  0x004944                  _Timmer2Init
                  0x003c9a                  _ToSend
                  0x0049b8                  _UART1_init
                  0x00408a                  _UART_buff_flush
                  0x004052                  _UART_buff_get
                  0x003fe4                  _UART_buff_init
                  0x0040c0                  _UART_buff_modulo_inc
                  0x0040dc                  _UART_buff_peek
                  0x003ff4                  _UART_buff_put
                  0x0040b4                  _UART_buff_size
                  0x003faa                  _UART_init
                  0x002bfe                  _UpdateLT6804
                  0x004668                  _WriteI2C
                  0x000512                  __DefaultInterrupt
                  0xf80000                  __FBS.sec
                  0xf80004                  __FGS.sec
                  0xf80002                  __FSS.sec
                  0x0002b8                  __T1Interrupt
                  0x0002d0                  __T2Interrupt
                  0x00030a                  __T3Interrupt
                  0x004128                  __U1RXInterrupt
                  0x004184                  __U1TXInterrupt
                  0x0005b6                  ___addsf3
                  0x0049ee                  ___delay32
                  0x001148                  ___divdi3
                  0x000670                  ___divsf3
                  0x0006f4                  ___eqsf2
                  0x0006fc                  ___fixsfsi
                  0x000c28                  ___floatdisf
                  0x00073e                  ___floatsisf
                  0x000c48                  ___floatundisf
                  0x0006f8                  ___gesf2
                  0x0006f8                  ___gtsf2
                  0x0006f4                  ___lesf2
                  0x0006f4                  ___ltsf2
                  0x0011a8                  ___moddi3
                  0x001204                  ___muldi3
                  0x000ff4                  ___mulp32eds3
                  0x000ff4                  ___mulp32peds3
                  0x000898                  ___mulsf3
                  0x000ff4                  ___mulsi3
                  0x0005b4                  ___subsf3
                  0x001132                  ___udivdi3
                  0x00104c                  ___udivmoddi3
                  0x000fd4                  ___udivsi3
                  0x001140                  ___umoddi3
                  0x001256                  ___umuldi3
                  0x00023c                  __data_init
                  0x00023c                  __data_init_standard
                  0x0007ca                  __fPropagateNaN
                  0x0007dc                  __fbopExit
                  0x0007e4                  __fbopReturnNaN
                  0x000ba4                  __fchop
                  0x000bf2                  __fcompare
                  0x000744                  __fpack
                  0x000ac6                  __frexpf
                  0x000790                  __funpack
                  0x0007ba                  __funpack2
                  0x000ebe                  __printf_0
                  0x000eb0                  __printf_cdnopuxX
                  0x000ebe                  __printf_s
                  0x00022c                  __psv_init
                  0x000200                  __resetPRI
                  0x0012ac                  __vfprintf_0
                  0x0012ac                  __vfprintf_cdnopsuxX
                  0x0012ac                  __vfprintf_cdnopuxX
                  0x0012ac                  __vfprintf_s
                  0x003df6                  _addressError
                  0x003de6                  _alignError
                  0x003952                  _begin
                  0x004486                  _checkCommDirection
                  0x003eac                  _crcBufS_get
                  0x003e06                  _crcBufS_put
                  0x003e5e                  _crcBufS_status_put
                  0x003dfe                  _dataAddressError
                  0x000ae0                  _expf
                  0x000dfc                  _free
                  0x0046fe                  _getI2C
                  0x0046be                  _getsI2C
                  0x004716                  _i2c_wait
                  0x000362                  _initTimerOne
                  0x0003a2                  _initTimerThree
                  0x000380                  _initTimerTwo
                  0x000ca6                  _ldexpf
                  0x0042f6                  _ledDebug
                  0x0007ea                  _logf
                  0x004a0a                  _main
                  0x000cea                  _malloc
                  0x000e94                  _memcpy
                  0x000ea2                  _memset
                  0x0038a0                  _pec15_calc
                  0x0044aa                  _populateBatteryT
                  0x0044c0                  _populateBatteryV
                  0x000900                  _powf
                  0x00475c                  _readRegister
                  0x000e12                  _realloc
                  0x003a66                  _receiveData
                  0x0039fc                  _sendData
                  0x002e62                  _set_adc
                  0x0038ee                  _spi_write_array
                  0x003916                  _spi_write_read
                  0x0004a6                  _time_Set
                  0x000464                  _time_get
                  0x00436c                  _updateComms
                  0x0003de                  _updateTimers
                  0x003882                  _wakeup_idle
                  0x003892                  _wakeup_sleep
                  0x00472c                  _writeRegister

Memory Configuration

Name             Origin             Length             Attributes
data             0x000800           0x004000           a !xr
reset            0x000000           0x000004  
ivt              0x000004           0x0000fc  
_reserved        0x000100           0x000004  
aivt             0x000104           0x0000fc  
program          0x000200           0x015600           xr
FBS              0xf80000           0x000002  
FSS              0xf80002           0x000002  
FGS              0xf80004           0x000002  
FOSCSEL          0xf80006           0x000002  
FOSC             0xf80008           0x000002  
FWDT             0xf8000a           0x000002  
FPOR             0xf8000c           0x000002  
FICD             0xf8000e           0x000002  
FUID0            0xf80010           0x000002  
FUID1            0xf80012           0x000002  
FUID2            0xf80014           0x000002  
FUID3            0xf80016           0x000002  
*default*        0x000000           0xffffffff  

Linker script and memory map

LOAD build/default/debug/ConfigBits.o
LOAD build/default/debug/FastTransfer.o
LOAD build/default/debug/Function.o
LOAD build/default/debug/main.o
LOAD build/default/debug/pwm.o
LOAD build/default/debug/I2C.o
LOAD build/default/debug/UART.o
LOAD build/default/debug/Timers.o
LOAD build/default/debug/Communications.o
LOAD build/default/debug/UART1.o
LOAD build/default/debug/LT6804.o
LOAD build/default/debug/spi2.o
LOAD build/default/debug/BatteryManagment.o
LOAD build/default/debug/ADS1015.o

reserve_data_0x800
                    0x0800         0x20
                    0x0820                  . = 0x20
 *fill*             0x0800         0x2000

reserve_data_0x820
                    0x0820          0x2
                    0x0822                  . = 0x2
 *fill*             0x0820          0x200

reserve_data_0x822
                    0x0822          0x2
                    0x0824                  . = 0x2
 *fill*             0x0822          0x200

reserve_data_0x824
                    0x0824          0x2
                    0x0826                  . = 0x2
 *fill*             0x0824          0x200

reserve_data_0x826
                    0x0826         0x2a
                    0x0850                  . = 0x2a
 *fill*             0x0826         0x2a00
                    0x0001                  __MPLAB_BUILD = 0x1
                    0x0001                  __MPLAB_DEBUG = 0x1
                    0x0001                  __DEBUG = 0x1
                    0x0001                  __MPLAB_DEBUGGER_PK3 = 0x1
LOAD c:/program files (x86)/microchip/xc16/v1.26/bin/bin/../../lib/dsPIC33F\libp33FJ128GP804-elf.a
LOAD c:/program files (x86)/microchip/xc16/v1.26/bin/bin/../../lib\libfx-elf.a
                    0xf80000                  __FBS = 0xf80000
                    0xf80002                  __FSS = 0xf80002
                    0xf80004                  __FGS = 0xf80004
                    0xf80006                  __FOSCSEL = 0xf80006
                    0xf80008                  __FOSC = 0xf80008
                    0xf8000a                  __FWDT = 0xf8000a
                    0xf8000c                  __FPOR = 0xf8000c
                    0xf8000e                  __FICD = 0xf8000e
                    0xf80010                  __FUID0 = 0xf80010
                    0xf80012                  __FUID1 = 0xf80012
                    0xf80014                  __FUID2 = 0xf80014
                    0xf80016                  __FUID3 = 0xf80016
                    0x0200                  __CODE_BASE = 0x200
                    0x15600                  __CODE_LENGTH = 0x15600
                    0x0004                  __IVT_BASE = 0x4
                    0x0104                  __AIVT_BASE = 0x104
                    0x0800                  __DATA_BASE = 0x800
                    0x4000                  __DATA_LENGTH = 0x4000
                    0x2800                  __YDATA_BASE = 0x2800
                    0x4000                  __DMA_BASE = 0x4000
                    0x47ff                  __DMA_END = 0x47ff

.reset            0x000000          0x4
                  0x000000          0x2 SHORT 0x200 ABSOLUTE (__reset)
                  0x000001          0x2 SHORT 0x4
                  0x000002          0x2 SHORT 0x0 ((ABSOLUTE (__reset) >> 0x10) & 0x7f)
                  0x000003          0x2 SHORT 0x0

.text             0x000200       0x1760
 *(.init)
 .init            0x000200         0x3c c:/program files (x86)/microchip/xc16/v1.26/bin/bin/../../lib\libpic30-elf.a(crt0_standard.o)
                  0x000200                  __resetPRI
                  0x000200                  __reset
                  0x00022c                  __psv_init
 .init            0x00023c         0x6c c:/program files (x86)/microchip/xc16/v1.26/bin/bin/../../lib\libpic30-elf.a(data_init_standard.o)
                  0x00023c                  __data_init_standard
                  0x00023c                  __data_init
 *(.user_init)
 *(.handle)
 .handle          0x0002a8         0x10 jump_table
 *(.isr*)
 .isr.text        0x0002b8        0x25a build/default/debug/Timers.o
                  0x0002b8                  __T1Interrupt
                  0x0002d0                  __T2Interrupt
                  0x00030a                  __T3Interrupt
                  0x000362                  _initTimerOne
                  0x000380                  _initTimerTwo
                  0x0003a2                  _initTimerThree
                  0x0003de                  _updateTimers
                  0x000464                  _time_get
                  0x0004a6                  _time_Set
                  0x0004ee                  _TalkTimeSet
                  0x0004fe                  _CheckFault
 .isr             0x000512          0x4 default_isr
                  0x000512                  __DefaultInterrupt
 *(.libc)
 .libc            0x000516         0x5c c:/program files (x86)/microchip/xc16/v1.26/bin/bin/../../lib\libpic30-elf.a(write.eo)
                  0x000516                  _write
 .libc            0x000572         0x28 c:/program files (x86)/microchip/xc16/v1.26/bin/bin/../../lib\libpic30-elf.a(sbrk.eo)
                  0x000572                  _sbrk
 .libc            0x00059a         0x1a c:/program files (x86)/microchip/xc16/v1.26/bin/bin/../../lib\libpic30-elf.a(brk.elo)
                  0x00059a                  _brk
 *(.libm)
 *(.libdsp)
 *(.lib*)
 .libm.subsf3     0x0005b4         0xbc c:/program files (x86)/microchip/xc16/v1.26/bin/bin/../../lib\libm-elf.a(addsf3.eo)
                  0x0005b4                  ___subsf3
                  0x0005b6                  ___addsf3
 .libm.divfs3     0x000670         0x84 c:/program files (x86)/microchip/xc16/v1.26/bin/bin/../../lib\libm-elf.a(divsf3.eo)
                  0x000670                  ___divsf3
 .libm.eqsf2      0x0006f4          0x4 c:/program files (x86)/microchip/xc16/v1.26/bin/bin/../../lib\libm-elf.a(feqltle.eo)
                  0x0006f4                  ___eqsf2
                  0x0006f4                  ___ltsf2
                  0x0006f4                  ___lesf2
 .libm.gtsf2      0x0006f8          0x4 c:/program files (x86)/microchip/xc16/v1.26/bin/bin/../../lib\libm-elf.a(fgtge.eo)
                  0x0006f8                  ___gesf2
                  0x0006f8                  ___gtsf2
 .libm.fixsfsi    0x0006fc         0x42 c:/program files (x86)/microchip/xc16/v1.26/bin/bin/../../lib\libm-elf.a(fixsfsi.eo)
                  0x0006fc                  _(float, int, long long, short, float, short, int)
 .libm.floatsisf
                  0x00073e          0x6 c:/program files (x86)/microchip/xc16/v1.26/bin/bin/../../lib\libm-elf.a(floatsisf.eo)
                  0x00073e                  ___floatsisf
 .libm.fpack      0x000744         0x4c c:/program files (x86)/microchip/xc16/v1.26/bin/bin/../../lib\libm-elf.a(fpack.eo)
                  0x000744                  __fpack
 .libm.funpack    0x000790         0x2a c:/program files (x86)/microchip/xc16/v1.26/bin/bin/../../lib\libm-elf.a(funpack.eo)
                  0x000790                  __funpack
 .libm.funpack2
                  0x0007ba         0x10 c:/program files (x86)/microchip/xc16/v1.26/bin/bin/../../lib\libm-elf.a(funpack2.eo)
                  0x0007ba                  __funpack2
 .libm.fPropagateNaN
                  0x0007ca         0x12 c:/program files (x86)/microchip/xc16/v1.26/bin/bin/../../lib\libm-elf.a(futil.eo)
                  0x0007ca                  __fPropagateNaN
 .libm.fbobExit
                  0x0007dc          0x8 c:/program files (x86)/microchip/xc16/v1.26/bin/bin/../../lib\libm-elf.a(futil.eo)
                  0x0007dc                  __fbopExit
 .libm.fbopReturnNaN
                  0x0007e4          0x6 c:/program files (x86)/microchip/xc16/v1.26/bin/bin/../../lib\libm-elf.a(futil.eo)
                  0x0007e4                  __fbopReturnNaN
 .libm.logf       0x0007ea         0xae c:/program files (x86)/microchip/xc16/v1.26/bin/bin/../../lib\libm-elf.a(logf.eo)
                  0x0007ea                  _logf
 .libm.mulsf3     0x000898         0x68 c:/program files (x86)/microchip/xc16/v1.26/bin/bin/../../lib\libm-elf.a(mulsf3.eo)
                  0x000898                  ___mulsf3
 .libm.powf       0x000900        0x1c6 c:/program files (x86)/microchip/xc16/v1.26/bin/bin/../../lib\libm-elf.a(powf.eo)
                  0x000900                  _powf
 .libm.frexpf     0x000ac6         0x1a c:/program files (x86)/microchip/xc16/v1.26/bin/bin/../../lib\libm-elf.a(_frexpf.eo)
                  0x000ac6                  __frexpf
 .libm.expf       0x000ae0         0xc4 c:/program files (x86)/microchip/xc16/v1.26/bin/bin/../../lib\libm-elf.a(expf.eo)
                  0x000ae0                  _expf
 .libm.fchop      0x000ba4         0x4e c:/program files (x86)/microchip/xc16/v1.26/bin/bin/../../lib\libm-elf.a(fchop.eo)
                  0x000ba4                  __fchop
 .libm.fcompare
                  0x000bf2         0x36 c:/program files (x86)/microchip/xc16/v1.26/bin/bin/../../lib\libm-elf.a(fcompare.eo)
                  0x000bf2                  __fcompare
 .libm.floatdisf
                  0x000c28         0x20 c:/program files (x86)/microchip/xc16/v1.26/bin/bin/../../lib\libm-elf.a(floatdisf.eo)
                  0x000c28                  ___floatdisf
 .libm.floatundisf
                  0x000c48         0x5e c:/program files (x86)/microchip/xc16/v1.26/bin/bin/../../lib\libm-elf.a(floatundisf.eo)
                  0x000c48                  ___floatundisf
 .libm.ldexpf     0x000ca6         0x44 c:/program files (x86)/microchip/xc16/v1.26/bin/bin/../../lib\libm-elf.a(ldexpf.eo)
                  0x000ca6                  _ldexpf
 .libc.malloc     0x000cea        0x112 c:/program files (x86)/microchip/xc16/v1.26/bin/bin/../../lib\libc-elf.a(malloc.eo)
                  0x000cea                  _malloc
 .libc.free       0x000dfc         0x16 c:/program files (x86)/microchip/xc16/v1.26/bin/bin/../../lib\libc-elf.a(malloc.eo)
                  0x000dfc                  _free
 .libc.realloc    0x000e12         0x82 c:/program files (x86)/microchip/xc16/v1.26/bin/bin/../../lib\libc-elf.a(malloc.eo)
                  0x000e12                  _realloc
 .libc.memcpy     0x000e94          0xe c:/program files (x86)/microchip/xc16/v1.26/bin/bin/../../lib\libc-elf.a(memcpy.eo)
                  0x000e94                  _memcpy
 .libc.memset     0x000ea2          0xe c:/program files (x86)/microchip/xc16/v1.26/bin/bin/../../lib\libc-elf.a(memset.eo)
                  0x000ea2                  _memset
 .libc._printf_cdnopuxX
                  0x000eb0          0xe c:/program files (x86)/microchip/xc16/v1.26/bin/bin/../../lib\libc-elf.a(printf_cdnopuxX.XXeo)
                  0x000eb0                  __printf_cdnopuxX
 .libc._printf_s
                  0x000ebe          0xe c:/program files (x86)/microchip/xc16/v1.26/bin/bin/../../lib\libc-elf.a(printf_s.XXeo)
                  0x000ebe                  __printf_s
                  0x000ebe                  __printf_0
 .libc.fputc      0x000ecc         0x86 c:/program files (x86)/microchip/xc16/v1.26/bin/bin/../../lib\libc-elf.a(fputc.eo)
                  0x000ecc                  _fputc
 .libc._flsbuf    0x000f52         0x7e c:/program files (x86)/microchip/xc16/v1.26/bin/bin/../../lib\libc-elf.a(flsbuf.eo)
                  0x000f52                  __flsbuf
 .libc.dowrite    0x000fd0          0x4 c:/program files (x86)/microchip/xc16/v1.26/bin/bin/../../lib\libpic30-elf.a(write.eo)
 .libm.udivsi3    0x000fd4         0x20 c:/program files (x86)/microchip/xc16/v1.26/bin/bin/../../lib\libm-elf.a(udivsi3.eo)
                  0x000fd4                  ___udivsi3
 .libm.mulsi3     0x000ff4          0xc c:/program files (x86)/microchip/xc16/v1.26/bin/bin/../../lib\libm-elf.a(mulsi3.eo)
                  0x000ff4                  ___mulp32peds3
                  0x000ff4                  ___mulsi3
                  0x000ff4                  ___mulp32eds3
 .libm.__PplusBdi
                  0x001000         0x26 c:/program files (x86)/microchip/xc16/v1.26/bin/bin/../../lib\libm-elf.a(divmoddi3.eo)
 .libm.__PminusBdi
                  0x001026         0x26 c:/program files (x86)/microchip/xc16/v1.26/bin/bin/../../lib\libm-elf.a(divmoddi3.eo)
 .libm.__udivmoddi3
                  0x00104c         0xe6 c:/program files (x86)/microchip/xc16/v1.26/bin/bin/../../lib\libm-elf.a(divmoddi3.eo)
                  0x00104c                  ___udivmoddi3
 .libm.__udivdi3
                  0x001132          0xe c:/program files (x86)/microchip/xc16/v1.26/bin/bin/../../lib\libm-elf.a(divmoddi3.eo)
                  0x001132                  ___udivdi3
 .libm.__umoddi3
                  0x001140          0x8 c:/program files (x86)/microchip/xc16/v1.26/bin/bin/../../lib\libm-elf.a(divmoddi3.eo)
                  0x001140                  ___umoddi3
 .libm.__divdi3
                  0x001148         0x60 c:/program files (x86)/microchip/xc16/v1.26/bin/bin/../../lib\libm-elf.a(divmoddi3.eo)
                  0x001148                  ___divdi3
 .libm.__moddi3
                  0x0011a8         0x5c c:/program files (x86)/microchip/xc16/v1.26/bin/bin/../../lib\libm-elf.a(divmoddi3.eo)
                  0x0011a8                  ___moddi3
 .libm.__muldi3
                  0x001204         0x52 c:/program files (x86)/microchip/xc16/v1.26/bin/bin/../../lib\libm-elf.a(muldi3.eo)
                  0x001204                  ___muldi3
 .libm.umuldi3    0x001256         0x44 c:/program files (x86)/microchip/xc16/v1.26/bin/bin/../../lib\libm-elf.a(umuldi3.eo)
                  0x001256                  ___umuldi3
 .libc.sputc      0x00129a         0x12 c:/program files (x86)/microchip/xc16/v1.26/bin/bin/../../lib\libc-elf.a(doprnt_cdnopsuxX.XXeo)
 .libc._vfprintf_cdnopsuxX
                  0x0012ac        0x6b4 c:/program files (x86)/microchip/xc16/v1.26/bin/bin/../../lib\libc-elf.a(doprnt_cdnopsuxX.XXeo)
                  0x0012ac                  __vfprintf_cdnopuxX
                  0x0012ac                  __vfprintf_cdnopsuxX
                  0x0012ac                  __vfprintf_0
                  0x0012ac                  __vfprintf_s

usercode
 *(usercode)

__FBS             0xf80000          0x2
 *(__FBS.sec*)
 __FBS.sec        0xf80000          0x2 FBS
                  0xf80000                  __FBS.sec

__FSS             0xf80002          0x2
 *(__FSS.sec*)
 __FSS.sec        0xf80002          0x2 FSS
                  0xf80002                  __FSS.sec

__FGS             0xf80004          0x2
 *(__FGS.sec*)
 __FGS.sec        0xf80004          0x2 FGS
                  0xf80004                  __FGS.sec

__FOSCSEL
 *(__FOSCSEL.sec*)

__FOSC
 *(__FOSC.sec*)

__FWDT
 *(__FWDT.sec*)

__FPOR
 *(__FPOR.sec*)

__FICD
 *(__FICD.sec*)

__FUID0
 *(__FUID0.sec*)

__FUID1
 *(__FUID1.sec*)

__FUID2
 *(__FUID2.sec*)

__FUID3
 *(__FUID3.sec*)

.comment
 *(.comment)

.debug_info       0x000000       0x8114
 *(.debug_info)
 .debug_info      0x000000         0x8f build/default/debug/ConfigBits.o
 .debug_info      0x00008f        0xc9f build/default/debug/FastTransfer.o
 .debug_info      0x000d2e       0x1557 build/default/debug/Function.o
 .debug_info      0x002285        0x141 build/default/debug/main.o
 .debug_info      0x0023c6        0x4fd build/default/debug/pwm.o
 .debug_info      0x0028c3        0x8a1 build/default/debug/I2C.o
 .debug_info      0x003164        0xc05 build/default/debug/UART.o
 .debug_info      0x003d69        0xe22 build/default/debug/Timers.o
 .debug_info      0x004b8b        0x593 build/default/debug/Communications.o
 .debug_info      0x00511e        0x90b build/default/debug/UART1.o
 .debug_info      0x005a29        0xc60 build/default/debug/LT6804.o
 .debug_info      0x006689        0x3d2 build/default/debug/spi2.o
 .debug_info      0x006a5b       0x13c5 build/default/debug/BatteryManagment.o
 .debug_info      0x007e20        0x2f4 build/default/debug/ADS1015.o
 *(.gnu.linkonce.wi.*)

.debug_abbrev     0x000000       0x1190
 *(.debug_abbrev)
 .debug_abbrev    0x000000         0x1f build/default/debug/ConfigBits.o
 .debug_abbrev    0x00001f        0x23b build/default/debug/FastTransfer.o
 .debug_abbrev    0x00025a        0x111 build/default/debug/Function.o
 .debug_abbrev    0x00036b         0x6f build/default/debug/main.o
 .debug_abbrev    0x0003da         0xde build/default/debug/pwm.o
 .debug_abbrev    0x0004b8        0x113 build/default/debug/I2C.o
 .debug_abbrev    0x0005cb        0x1cd build/default/debug/UART.o
 .debug_abbrev    0x000798        0x193 build/default/debug/Timers.o
 .debug_abbrev    0x00092b        0x13c build/default/debug/Communications.o
 .debug_abbrev    0x000a67        0x10a build/default/debug/UART1.o
 .debug_abbrev    0x000b71        0x1db build/default/debug/LT6804.o
 .debug_abbrev    0x000d4c         0xf2 build/default/debug/spi2.o
 .debug_abbrev    0x000e3e        0x24a build/default/debug/BatteryManagment.o
 .debug_abbrev    0x001088        0x108 build/default/debug/ADS1015.o

.debug_line       0x000000       0x10d8
 *(.debug_line)
 .debug_line      0x000000         0x1a build/default/debug/ConfigBits.o
 .debug_line      0x00001a        0x1b2 build/default/debug/FastTransfer.o
 .debug_line      0x0001cc         0xf3 build/default/debug/Function.o
 .debug_line      0x0002bf         0x3b build/default/debug/main.o
 .debug_line      0x0002fa         0xb8 build/default/debug/pwm.o
 .debug_line      0x0003b2         0xed build/default/debug/I2C.o
 .debug_line      0x00049f        0x109 build/default/debug/UART.o
 .debug_line      0x0005a8        0x113 build/default/debug/Timers.o
 .debug_line      0x0006bb         0xe6 build/default/debug/Communications.o
 .debug_line      0x0007a1         0xfc build/default/debug/UART1.o
 .debug_line      0x00089d        0x2cc build/default/debug/LT6804.o
 .debug_line      0x000b69        0x112 build/default/debug/spi2.o
 .debug_line      0x000c7b        0x3e5 build/default/debug/BatteryManagment.o
 .debug_line      0x001060         0x78 build/default/debug/ADS1015.o

.debug_frame      0x000000       0x10d8
 *(.debug_frame)
 .debug_frame     0x000000        0x218 build/default/debug/FastTransfer.o
 .debug_frame     0x000218         0x98 build/default/debug/Function.o
 .debug_frame     0x0002b0         0x3e build/default/debug/main.o
 .debug_frame     0x0002ee         0x84 build/default/debug/pwm.o
 .debug_frame     0x000372        0x164 build/default/debug/I2C.o
 .debug_frame     0x0004d6        0x21c build/default/debug/UART.o
 .debug_frame     0x0006f2        0x186 build/default/debug/Timers.o
 .debug_frame     0x000878         0xa0 build/default/debug/Communications.o
 .debug_frame     0x000918         0x30 build/default/debug/UART1.o
 .debug_frame     0x000948        0x266 build/default/debug/LT6804.o
 .debug_frame     0x000bae         0xc2 build/default/debug/spi2.o
 .debug_frame     0x000c70        0x3c8 build/default/debug/BatteryManagment.o
 .debug_frame     0x001038         0xa0 build/default/debug/ADS1015.o

.debug_str        0x000000        0x694
 *(.debug_str)
 .debug_str       0x000000        0x13c build/default/debug/FastTransfer.o
 .debug_str       0x00013c         0x9f build/default/debug/Function.o
 .debug_str       0x0001db         0x20 build/default/debug/pwm.o
 .debug_str       0x0001fb         0x2c build/default/debug/I2C.o
 .debug_str       0x000227         0x57 build/default/debug/UART.o
 .debug_str       0x00027e         0xdd build/default/debug/Timers.o
 .debug_str       0x00035b         0x55 build/default/debug/Communications.o
 .debug_str       0x0003b0         0x32 build/default/debug/UART1.o
 .debug_str       0x0003e2         0xb3 build/default/debug/LT6804.o
 .debug_str       0x000495         0x28 build/default/debug/spi2.o
 .debug_str       0x0004bd        0x1b3 build/default/debug/BatteryManagment.o
 .debug_str       0x000670         0x24 build/default/debug/ADS1015.o

.debug_loc
 *(.debug_loc)

.debug_macinfo
 *(.debug_macinfo)

.debug_pubnames
                  0x000000       0x1024
 *(.debug_pubnames)
 .debug_pubnames
                  0x000000        0x2da build/default/debug/FastTransfer.o
 .debug_pubnames
                  0x0002da         0x42 build/default/debug/Function.o
 .debug_pubnames
                  0x00031c         0x1b build/default/debug/main.o
 .debug_pubnames
                  0x000337         0x4d build/default/debug/pwm.o
 .debug_pubnames
                  0x000384         0xaa build/default/debug/I2C.o
 .debug_pubnames
                  0x00042e        0x168 build/default/debug/UART.o
 .debug_pubnames
                  0x000596        0x135 build/default/debug/Timers.o
 .debug_pubnames
                  0x0006cb         0xd2 build/default/debug/Communications.o
 .debug_pubnames
                  0x00079d         0x5a build/default/debug/UART1.o
 .debug_pubnames
                  0x0007f7        0x1d4 build/default/debug/LT6804.o
 .debug_pubnames
                  0x0009cb         0xb3 build/default/debug/spi2.o
 .debug_pubnames
                  0x000a7e        0x4f2 build/default/debug/BatteryManagment.o
 .debug_pubnames
                  0x000f70         0xb4 build/default/debug/ADS1015.o

.debug_ranges
 *(.debug_ranges)

.debug_aranges    0x000000        0x138
 *(.debug_aranges)
 .debug_aranges
                  0x000000         0x18 build/default/debug/FastTransfer.o
 .debug_aranges
                  0x000018         0x18 build/default/debug/Function.o
 .debug_aranges
                  0x000030         0x18 build/default/debug/main.o
 .debug_aranges
                  0x000048         0x18 build/default/debug/pwm.o
 .debug_aranges
                  0x000060         0x18 build/default/debug/I2C.o
 .debug_aranges
                  0x000078         0x18 build/default/debug/UART.o
 .debug_aranges
                  0x000090         0x18 build/default/debug/Timers.o
 .debug_aranges
                  0x0000a8         0x18 build/default/debug/Communications.o
 .debug_aranges
                  0x0000c0         0x18 build/default/debug/UART1.o
 .debug_aranges
                  0x0000d8         0x18 build/default/debug/LT6804.o
 .debug_aranges
                  0x0000f0         0x18 build/default/debug/spi2.o
 .debug_aranges
                  0x000108         0x18 build/default/debug/BatteryManagment.o
 .debug_aranges
                  0x000120         0x18 build/default/debug/ADS1015.o
                    0x0000                  WREG0 = 0x0
                    0x0000                  _WREG0 = 0x0
                    0x0002                  WREG1 = 0x2
                    0x0002                  _WREG1 = 0x2
                    0x0004                  WREG2 = 0x4
                    0x0004                  _WREG2 = 0x4
                    0x0006                  WREG3 = 0x6
                    0x0006                  _WREG3 = 0x6
                    0x0008                  WREG4 = 0x8
                    0x0008                  _WREG4 = 0x8
                    0x000a                  WREG5 = 0xa
                    0x000a                  _WREG5 = 0xa
                    0x000c                  WREG6 = 0xc
                    0x000c                  _WREG6 = 0xc
                    0x000e                  WREG7 = 0xe
                    0x000e                  _WREG7 = 0xe
                    0x0010                  WREG8 = 0x10
                    0x0010                  _WREG8 = 0x10
                    0x0012                  WREG9 = 0x12
                    0x0012                  _WREG9 = 0x12
                    0x0014                  WREG10 = 0x14
                    0x0014                  _WREG10 = 0x14
                    0x0016                  WREG11 = 0x16
                    0x0016                  _WREG11 = 0x16
                    0x0018                  WREG12 = 0x18
                    0x0018                  _WREG12 = 0x18
                    0x001a                  WREG13 = 0x1a
                    0x001a                  _WREG13 = 0x1a
                    0x001c                  WREG14 = 0x1c
                    0x001c                  _WREG14 = 0x1c
                    0x001e                  WREG15 = 0x1e
                    0x001e                  _WREG15 = 0x1e
                    0x0020                  SPLIM = 0x20
                    0x0020                  _SPLIM = 0x20
                    0x0022                  ACCAL = 0x22
                    0x0022                  _ACCAL = 0x22
                    0x0024                  ACCAH = 0x24
                    0x0024                  _ACCAH = 0x24
                    0x0026                  ACCAU = 0x26
                    0x0026                  _ACCAU = 0x26
                    0x0028                  ACCBL = 0x28
                    0x0028                  _ACCBL = 0x28
                    0x002a                  ACCBH = 0x2a
                    0x002a                  _ACCBH = 0x2a
                    0x002c                  ACCBU = 0x2c
                    0x002c                  _ACCBU = 0x2c
                    0x002e                  PCL = 0x2e
                    0x002e                  _PCL = 0x2e
                    0x0030                  PCH = 0x30
                    0x0030                  _PCH = 0x30
                    0x0032                  TBLPAG = 0x32
                    0x0032                  _TBLPAG = 0x32
                    0x0034                  PSVPAG = 0x34
                    0x0034                  _PSVPAG = 0x34
                    0x0036                  RCOUNT = 0x36
                    0x0036                  _RCOUNT = 0x36
                    0x0038                  DCOUNT = 0x38
                    0x0038                  _DCOUNT = 0x38
                    0x003a                  DOSTARTL = 0x3a
                    0x003a                  _DOSTARTL = 0x3a
                    0x003c                  DOSTARTH = 0x3c
                    0x003c                  _DOSTARTH = 0x3c
                    0x003e                  DOENDL = 0x3e
                    0x003e                  _DOENDL = 0x3e
                    0x0040                  DOENDH = 0x40
                    0x0040                  _DOENDH = 0x40
                    0x0042                  SR = 0x42
                    0x0042                  _SR = 0x42
                    0x0042                  _SRbits = 0x42
                    0x0044                  CORCON = 0x44
                    0x0044                  _CORCON = 0x44
                    0x0044                  _CORCONbits = 0x44
                    0x0046                  MODCON = 0x46
                    0x0046                  _MODCON = 0x46
                    0x0046                  _MODCONbits = 0x46
                    0x0048                  XMODSRT = 0x48
                    0x0048                  _XMODSRT = 0x48
                    0x004a                  XMODEND = 0x4a
                    0x004a                  _XMODEND = 0x4a
                    0x004c                  YMODSRT = 0x4c
                    0x004c                  _YMODSRT = 0x4c
                    0x004e                  YMODEND = 0x4e
                    0x004e                  _YMODEND = 0x4e
                    0x0050                  XBREV = 0x50
                    0x0050                  _XBREV = 0x50
                    0x0050                  _XBREVbits = 0x50
                    0x0052                  DISICNT = 0x52
                    0x0052                  _DISICNT = 0x52
                    0x0060                  CNEN1 = 0x60
                    0x0060                  _CNEN1 = 0x60
                    0x0060                  _CNEN1bits = 0x60
                    0x0062                  CNEN2 = 0x62
                    0x0062                  _CNEN2 = 0x62
                    0x0062                  _CNEN2bits = 0x62
                    0x0068                  CNPU1 = 0x68
                    0x0068                  _CNPU1 = 0x68
                    0x0068                  _CNPU1bits = 0x68
                    0x006a                  CNPU2 = 0x6a
                    0x006a                  _CNPU2 = 0x6a
                    0x006a                  _CNPU2bits = 0x6a
                    0x0080                  INTCON1 = 0x80
                    0x0080                  _INTCON1 = 0x80
                    0x0080                  _INTCON1bits = 0x80
                    0x0082                  INTCON2 = 0x82
                    0x0082                  _INTCON2 = 0x82
                    0x0082                  _INTCON2bits = 0x82
                    0x0084                  IFS0 = 0x84
                    0x0084                  _IFS0 = 0x84
                    0x0084                  _IFS0bits = 0x84
                    0x0086                  IFS1 = 0x86
                    0x0086                  _IFS1 = 0x86
                    0x0086                  _IFS1bits = 0x86
                    0x0088                  IFS2 = 0x88
                    0x0088                  _IFS2 = 0x88
                    0x0088                  _IFS2bits = 0x88
                    0x008a                  IFS3 = 0x8a
                    0x008a                  _IFS3 = 0x8a
                    0x008a                  _IFS3bits = 0x8a
                    0x008c                  IFS4 = 0x8c
                    0x008c                  _IFS4 = 0x8c
                    0x008c                  _IFS4bits = 0x8c
                    0x0094                  IEC0 = 0x94
                    0x0094                  _IEC0 = 0x94
                    0x0094                  _IEC0bits = 0x94
                    0x0096                  IEC1 = 0x96
                    0x0096                  _IEC1 = 0x96
                    0x0096                  _IEC1bits = 0x96
                    0x0098                  IEC2 = 0x98
                    0x0098                  _IEC2 = 0x98
                    0x0098                  _IEC2bits = 0x98
                    0x009a                  IEC3 = 0x9a
                    0x009a                  _IEC3 = 0x9a
                    0x009a                  _IEC3bits = 0x9a
                    0x009c                  IEC4 = 0x9c
                    0x009c                  _IEC4 = 0x9c
                    0x009c                  _IEC4bits = 0x9c
                    0x00a4                  IPC0 = 0xa4
                    0x00a4                  _IPC0 = 0xa4
                    0x00a4                  _IPC0bits = 0xa4
                    0x00a6                  IPC1 = 0xa6
                    0x00a6                  _IPC1 = 0xa6
                    0x00a6                  _IPC1bits = 0xa6
                    0x00a8                  IPC2 = 0xa8
                    0x00a8                  _IPC2 = 0xa8
                    0x00a8                  _IPC2bits = 0xa8
                    0x00aa                  IPC3 = 0xaa
                    0x00aa                  _IPC3 = 0xaa
                    0x00aa                  _IPC3bits = 0xaa
                    0x00ac                  IPC4 = 0xac
                    0x00ac                  _IPC4 = 0xac
                    0x00ac                  _IPC4bits = 0xac
                    0x00ae                  IPC5 = 0xae
                    0x00ae                  _IPC5 = 0xae
                    0x00ae                  _IPC5bits = 0xae
                    0x00b0                  IPC6 = 0xb0
                    0x00b0                  _IPC6 = 0xb0
                    0x00b0                  _IPC6bits = 0xb0
                    0x00b2                  IPC7 = 0xb2
                    0x00b2                  _IPC7 = 0xb2
                    0x00b2                  _IPC7bits = 0xb2
                    0x00b4                  IPC8 = 0xb4
                    0x00b4                  _IPC8 = 0xb4
                    0x00b4                  _IPC8bits = 0xb4
                    0x00b6                  IPC9 = 0xb6
                    0x00b6                  _IPC9 = 0xb6
                    0x00b6                  _IPC9bits = 0xb6
                    0x00ba                  IPC11 = 0xba
                    0x00ba                  _IPC11 = 0xba
                    0x00ba                  _IPC11bits = 0xba
                    0x00c0                  IPC14 = 0xc0
                    0x00c0                  _IPC14 = 0xc0
                    0x00c0                  _IPC14bits = 0xc0
                    0x00c2                  IPC15 = 0xc2
                    0x00c2                  _IPC15 = 0xc2
                    0x00c2                  _IPC15bits = 0xc2
                    0x00c4                  IPC16 = 0xc4
                    0x00c4                  _IPC16 = 0xc4
                    0x00c4                  _IPC16bits = 0xc4
                    0x00c6                  IPC17 = 0xc6
                    0x00c6                  _IPC17 = 0xc6
                    0x00c6                  _IPC17bits = 0xc6
                    0x00ca                  IPC19 = 0xca
                    0x00ca                  _IPC19 = 0xca
                    0x00ca                  _IPC19bits = 0xca
                    0x00e0                  INTTREG = 0xe0
                    0x00e0                  _INTTREG = 0xe0
                    0x00e0                  _INTTREGbits = 0xe0
                    0x0100                  TMR1 = 0x100
                    0x0100                  _TMR1 = 0x100
                    0x0102                  PR1 = 0x102
                    0x0102                  _PR1 = 0x102
                    0x0104                  T1CON = 0x104
                    0x0104                  _T1CON = 0x104
                    0x0104                  _T1CONbits = 0x104
                    0x0106                  TMR2 = 0x106
                    0x0106                  _TMR2 = 0x106
                    0x0108                  TMR3HLD = 0x108
                    0x0108                  _TMR3HLD = 0x108
                    0x010a                  TMR3 = 0x10a
                    0x010a                  _TMR3 = 0x10a
                    0x010c                  PR2 = 0x10c
                    0x010c                  _PR2 = 0x10c
                    0x010e                  PR3 = 0x10e
                    0x010e                  _PR3 = 0x10e
                    0x0110                  T2CON = 0x110
                    0x0110                  _T2CON = 0x110
                    0x0110                  _T2CONbits = 0x110
                    0x0112                  T3CON = 0x112
                    0x0112                  _T3CON = 0x112
                    0x0112                  _T3CONbits = 0x112
                    0x0114                  TMR4 = 0x114
                    0x0114                  _TMR4 = 0x114
                    0x0116                  TMR5HLD = 0x116
                    0x0116                  _TMR5HLD = 0x116
                    0x0118                  TMR5 = 0x118
                    0x0118                  _TMR5 = 0x118
                    0x011a                  PR4 = 0x11a
                    0x011a                  _PR4 = 0x11a
                    0x011c                  PR5 = 0x11c
                    0x011c                  _PR5 = 0x11c
                    0x011e                  T4CON = 0x11e
                    0x011e                  _T4CON = 0x11e
                    0x011e                  _T4CONbits = 0x11e
                    0x0120                  T5CON = 0x120
                    0x0120                  _T5CON = 0x120
                    0x0120                  _T5CONbits = 0x120
                    0x0140                  IC1BUF = 0x140
                    0x0140                  _IC1BUF = 0x140
                    0x0142                  IC1CON = 0x142
                    0x0142                  _IC1CON = 0x142
                    0x0142                  _IC1CONbits = 0x142
                    0x0144                  IC2BUF = 0x144
                    0x0144                  _IC2BUF = 0x144
                    0x0146                  IC2CON = 0x146
                    0x0146                  _IC2CON = 0x146
                    0x0146                  _IC2CONbits = 0x146
                    0x0158                  IC7BUF = 0x158
                    0x0158                  _IC7BUF = 0x158
                    0x015a                  IC7CON = 0x15a
                    0x015a                  _IC7CON = 0x15a
                    0x015a                  _IC7CONbits = 0x15a
                    0x015c                  IC8BUF = 0x15c
                    0x015c                  _IC8BUF = 0x15c
                    0x015e                  IC8CON = 0x15e
                    0x015e                  _IC8CON = 0x15e
                    0x015e                  _IC8CONbits = 0x15e
                    0x0180                  OC1RS = 0x180
                    0x0180                  _OC1RS = 0x180
                    0x0182                  OC1R = 0x182
                    0x0182                  _OC1R = 0x182
                    0x0184                  OC1CON = 0x184
                    0x0184                  _OC1CON = 0x184
                    0x0184                  _OC1CONbits = 0x184
                    0x0186                  OC2RS = 0x186
                    0x0186                  _OC2RS = 0x186
                    0x0188                  OC2R = 0x188
                    0x0188                  _OC2R = 0x188
                    0x018a                  OC2CON = 0x18a
                    0x018a                  _OC2CON = 0x18a
                    0x018a                  _OC2CONbits = 0x18a
                    0x018c                  OC3RS = 0x18c
                    0x018c                  _OC3RS = 0x18c
                    0x018e                  OC3R = 0x18e
                    0x018e                  _OC3R = 0x18e
                    0x0190                  OC3CON = 0x190
                    0x0190                  _OC3CON = 0x190
                    0x0190                  _OC3CONbits = 0x190
                    0x0192                  OC4RS = 0x192
                    0x0192                  _OC4RS = 0x192
                    0x0194                  OC4R = 0x194
                    0x0194                  _OC4R = 0x194
                    0x0196                  OC4CON = 0x196
                    0x0196                  _OC4CON = 0x196
                    0x0196                  _OC4CONbits = 0x196
                    0x0200                  I2C1RCV = 0x200
                    0x0200                  _I2C1RCV = 0x200
                    0x0200                  I2CRCV = 0x200
                    0x0200                  _I2CRCV = 0x200
                    0x0202                  I2C1TRN = 0x202
                    0x0202                  _I2C1TRN = 0x202
                    0x0202                  I2CTRN = 0x202
                    0x0202                  _I2CTRN = 0x202
                    0x0204                  I2C1BRG = 0x204
                    0x0204                  _I2C1BRG = 0x204
                    0x0206                  I2C1CON = 0x206
                    0x0206                  _I2C1CON = 0x206
                    0x0206                  _I2C1CONbits = 0x206
                    0x0206                  I2CCON = 0x206
                    0x0206                  _I2CCON = 0x206
                    0x0206                  _I2CCONbits = 0x206
                    0x0208                  I2C1STAT = 0x208
                    0x0208                  _I2C1STAT = 0x208
                    0x0208                  _I2C1STATbits = 0x208
                    0x0208                  I2CSTAT = 0x208
                    0x0208                  _I2CSTAT = 0x208
                    0x0208                  _I2CSTATbits = 0x208
                    0x020a                  I2C1ADD = 0x20a
                    0x020a                  _I2C1ADD = 0x20a
                    0x020a                  I2CADD = 0x20a
                    0x020a                  _I2CADD = 0x20a
                    0x020c                  I2C1MSK = 0x20c
                    0x020c                  _I2C1MSK = 0x20c
                    0x0220                  U1MODE = 0x220
                    0x0220                  _U1MODE = 0x220
                    0x0220                  _U1MODEbits = 0x220
                    0x0222                  U1STA = 0x222
                    0x0222                  _U1STA = 0x222
                    0x0222                  _U1STAbits = 0x222
                    0x0224                  U1TXREG = 0x224
                    0x0224                  _U1TXREG = 0x224
                    0x0224                  _U1TXREGbits = 0x224
                    0x0226                  U1RXREG = 0x226
                    0x0226                  _U1RXREG = 0x226
                    0x0226                  _U1RXREGbits = 0x226
                    0x0228                  U1BRG = 0x228
                    0x0228                  _U1BRG = 0x228
                    0x0230                  U2MODE = 0x230
                    0x0230                  _U2MODE = 0x230
                    0x0230                  _U2MODEbits = 0x230
                    0x0232                  U2STA = 0x232
                    0x0232                  _U2STA = 0x232
                    0x0232                  _U2STAbits = 0x232
                    0x0234                  U2TXREG = 0x234
                    0x0234                  _U2TXREG = 0x234
                    0x0234                  _U2TXREGbits = 0x234
                    0x0236                  U2RXREG = 0x236
                    0x0236                  _U2RXREG = 0x236
                    0x0236                  _U2RXREGbits = 0x236
                    0x0238                  U2BRG = 0x238
                    0x0238                  _U2BRG = 0x238
                    0x0240                  SPI1STAT = 0x240
                    0x0240                  _SPI1STAT = 0x240
                    0x0240                  _SPI1STATbits = 0x240
                    0x0242                  SPI1CON1 = 0x242
                    0x0242                  _SPI1CON1 = 0x242
                    0x0242                  _SPI1CON1bits = 0x242
                    0x0244                  SPI1CON2 = 0x244
                    0x0244                  _SPI1CON2 = 0x244
                    0x0244                  _SPI1CON2bits = 0x244
                    0x0248                  SPI1BUF = 0x248
                    0x0248                  _SPI1BUF = 0x248
                    0x0260                  SPI2STAT = 0x260
                    0x0260                  _SPI2STAT = 0x260
                    0x0260                  _SPI2STATbits = 0x260
                    0x0262                  SPI2CON1 = 0x262
                    0x0262                  _SPI2CON1 = 0x262
                    0x0262                  _SPI2CON1bits = 0x262
                    0x0264                  SPI2CON2 = 0x264
                    0x0264                  _SPI2CON2 = 0x264
                    0x0264                  _SPI2CON2bits = 0x264
                    0x0268                  SPI2BUF = 0x268
                    0x0268                  _SPI2BUF = 0x268
                    0x0280                  DCICON1 = 0x280
                    0x0280                  _DCICON1 = 0x280
                    0x0280                  _DCICON1bits = 0x280
                    0x0282                  DCICON2 = 0x282
                    0x0282                  _DCICON2 = 0x282
                    0x0282                  _DCICON2bits = 0x282
                    0x0284                  DCICON3 = 0x284
                    0x0284                  _DCICON3 = 0x284
                    0x0284                  _DCICON3bits = 0x284
                    0x0286                  DCISTAT = 0x286
                    0x0286                  _DCISTAT = 0x286
                    0x0286                  _DCISTATbits = 0x286
                    0x0288                  TSCON = 0x288
                    0x0288                  _TSCON = 0x288
                    0x0288                  _TSCONbits = 0x288
                    0x028c                  RSCON = 0x28c
                    0x028c                  _RSCON = 0x28c
                    0x028c                  _RSCONbits = 0x28c
                    0x0290                  RXBUF0 = 0x290
                    0x0290                  _RXBUF0 = 0x290
                    0x0292                  RXBUF1 = 0x292
                    0x0292                  _RXBUF1 = 0x292
                    0x0294                  RXBUF2 = 0x294
                    0x0294                  _RXBUF2 = 0x294
                    0x0296                  RXBUF3 = 0x296
                    0x0296                  _RXBUF3 = 0x296
                    0x0298                  TXBUF0 = 0x298
                    0x0298                  _TXBUF0 = 0x298
                    0x029a                  TXBUF1 = 0x29a
                    0x029a                  _TXBUF1 = 0x29a
                    0x029c                  TXBUF2 = 0x29c
                    0x029c                  _TXBUF2 = 0x29c
                    0x029e                  TXBUF3 = 0x29e
                    0x029e                  _TXBUF3 = 0x29e
                    0x02c0                  TRISA = 0x2c0
                    0x02c0                  _TRISA = 0x2c0
                    0x02c0                  _TRISAbits = 0x2c0
                    0x02c2                  PORTA = 0x2c2
                    0x02c2                  _PORTA = 0x2c2
                    0x02c2                  _PORTAbits = 0x2c2
                    0x02c4                  LATA = 0x2c4
                    0x02c4                  _LATA = 0x2c4
                    0x02c4                  _LATAbits = 0x2c4
                    0x02c6                  ODCA = 0x2c6
                    0x02c6                  _ODCA = 0x2c6
                    0x02c6                  _ODCAbits = 0x2c6
                    0x02c8                  TRISB = 0x2c8
                    0x02c8                  _TRISB = 0x2c8
                    0x02c8                  _TRISBbits = 0x2c8
                    0x02ca                  PORTB = 0x2ca
                    0x02ca                  _PORTB = 0x2ca
                    0x02ca                  _PORTBbits = 0x2ca
                    0x02cc                  LATB = 0x2cc
                    0x02cc                  _LATB = 0x2cc
                    0x02cc                  _LATBbits = 0x2cc
                    0x02ce                  ODCB = 0x2ce
                    0x02ce                  _ODCB = 0x2ce
                    0x02ce                  _ODCBbits = 0x2ce
                    0x02d0                  TRISC = 0x2d0
                    0x02d0                  _TRISC = 0x2d0
                    0x02d0                  _TRISCbits = 0x2d0
                    0x02d2                  PORTC = 0x2d2
                    0x02d2                  _PORTC = 0x2d2
                    0x02d2                  _PORTCbits = 0x2d2
                    0x02d4                  LATC = 0x2d4
                    0x02d4                  _LATC = 0x2d4
                    0x02d4                  _LATCbits = 0x2d4
                    0x02d6                  ODCC = 0x2d6
                    0x02d6                  _ODCC = 0x2d6
                    0x02d6                  _ODCCbits = 0x2d6
                    0x02fc                  PADCFG1 = 0x2fc
                    0x02fc                  _PADCFG1 = 0x2fc
                    0x02fc                  _PADCFG1bits = 0x2fc
                    0x0300                  ADC1BUF0 = 0x300
                    0x0300                  _ADC1BUF0 = 0x300
                    0x0300                  ADCBUF0 = 0x300
                    0x0300                  _ADCBUF0 = 0x300
                    0x0320                  AD1CON1 = 0x320
                    0x0320                  _AD1CON1 = 0x320
                    0x0320                  _AD1CON1bits = 0x320
                    0x0322                  AD1CON2 = 0x322
                    0x0322                  _AD1CON2 = 0x322
                    0x0322                  _AD1CON2bits = 0x322
                    0x0324                  AD1CON3 = 0x324
                    0x0324                  _AD1CON3 = 0x324
                    0x0324                  _AD1CON3bits = 0x324
                    0x0326                  AD1CHS123 = 0x326
                    0x0326                  _AD1CHS123 = 0x326
                    0x0326                  _AD1CHS123bits = 0x326
                    0x0328                  AD1CHS0 = 0x328
                    0x0328                  _AD1CHS0 = 0x328
                    0x0328                  _AD1CHS0bits = 0x328
                    0x032c                  AD1PCFGL = 0x32c
                    0x032c                  _AD1PCFGL = 0x32c
                    0x032c                  _AD1PCFGLbits = 0x32c
                    0x032c                  ADPCFG = 0x32c
                    0x032c                  _ADPCFG = 0x32c
                    0x032c                  _ADPCFGbits = 0x32c
                    0x0330                  AD1CSSL = 0x330
                    0x0330                  _AD1CSSL = 0x330
                    0x0330                  _AD1CSSLbits = 0x330
                    0x0332                  AD1CON4 = 0x332
                    0x0332                  _AD1CON4 = 0x332
                    0x0332                  _AD1CON4bits = 0x332
                    0x0380                  DMA0CON = 0x380
                    0x0380                  _DMA0CON = 0x380
                    0x0380                  _DMA0CONbits = 0x380
                    0x0382                  DMA0REQ = 0x382
                    0x0382                  _DMA0REQ = 0x382
                    0x0382                  _DMA0REQbits = 0x382
                    0x0384                  DMA0STA = 0x384
                    0x0384                  _DMA0STA = 0x384
                    0x0386                  DMA0STB = 0x386
                    0x0386                  _DMA0STB = 0x386
                    0x0388                  DMA0PAD = 0x388
                    0x0388                  _DMA0PAD = 0x388
                    0x038a                  DMA0CNT = 0x38a
                    0x038a                  _DMA0CNT = 0x38a
                    0x038c                  DMA1CON = 0x38c
                    0x038c                  _DMA1CON = 0x38c
                    0x038c                  _DMA1CONbits = 0x38c
                    0x038e                  DMA1REQ = 0x38e
                    0x038e                  _DMA1REQ = 0x38e
                    0x038e                  _DMA1REQbits = 0x38e
                    0x0390                  DMA1STA = 0x390
                    0x0390                  _DMA1STA = 0x390
                    0x0392                  DMA1STB = 0x392
                    0x0392                  _DMA1STB = 0x392
                    0x0394                  DMA1PAD = 0x394
                    0x0394                  _DMA1PAD = 0x394
                    0x0396                  DMA1CNT = 0x396
                    0x0396                  _DMA1CNT = 0x396
                    0x0398                  DMA2CON = 0x398
                    0x0398                  _DMA2CON = 0x398
                    0x0398                  _DMA2CONbits = 0x398
                    0x039a                  DMA2REQ = 0x39a
                    0x039a                  _DMA2REQ = 0x39a
                    0x039a                  _DMA2REQbits = 0x39a
                    0x039c                  DMA2STA = 0x39c
                    0x039c                  _DMA2STA = 0x39c
                    0x039e                  DMA2STB = 0x39e
                    0x039e                  _DMA2STB = 0x39e
                    0x03a0                  DMA2PAD = 0x3a0
                    0x03a0                  _DMA2PAD = 0x3a0
                    0x03a2                  DMA2CNT = 0x3a2
                    0x03a2                  _DMA2CNT = 0x3a2
                    0x03a4                  DMA3CON = 0x3a4
                    0x03a4                  _DMA3CON = 0x3a4
                    0x03a4                  _DMA3CONbits = 0x3a4
                    0x03a6                  DMA3REQ = 0x3a6
                    0x03a6                  _DMA3REQ = 0x3a6
                    0x03a6                  _DMA3REQbits = 0x3a6
                    0x03a8                  DMA3STA = 0x3a8
                    0x03a8                  _DMA3STA = 0x3a8
                    0x03aa                  DMA3STB = 0x3aa
                    0x03aa                  _DMA3STB = 0x3aa
                    0x03ac                  DMA3PAD = 0x3ac
                    0x03ac                  _DMA3PAD = 0x3ac
                    0x03ae                  DMA3CNT = 0x3ae
                    0x03ae                  _DMA3CNT = 0x3ae
                    0x03b0                  DMA4CON = 0x3b0
                    0x03b0                  _DMA4CON = 0x3b0
                    0x03b0                  _DMA4CONbits = 0x3b0
                    0x03b2                  DMA4REQ = 0x3b2
                    0x03b2                  _DMA4REQ = 0x3b2
                    0x03b2                  _DMA4REQbits = 0x3b2
                    0x03b4                  DMA4STA = 0x3b4
                    0x03b4                  _DMA4STA = 0x3b4
                    0x03b6                  DMA4STB = 0x3b6
                    0x03b6                  _DMA4STB = 0x3b6
                    0x03b8                  DMA4PAD = 0x3b8
                    0x03b8                  _DMA4PAD = 0x3b8
                    0x03ba                  DMA4CNT = 0x3ba
                    0x03ba                  _DMA4CNT = 0x3ba
                    0x03bc                  DMA5CON = 0x3bc
                    0x03bc                  _DMA5CON = 0x3bc
                    0x03bc                  _DMA5CONbits = 0x3bc
                    0x03be                  DMA5REQ = 0x3be
                    0x03be                  _DMA5REQ = 0x3be
                    0x03be                  _DMA5REQbits = 0x3be
                    0x03c0                  DMA5STA = 0x3c0
                    0x03c0                  _DMA5STA = 0x3c0
                    0x03c2                  DMA5STB = 0x3c2
                    0x03c2                  _DMA5STB = 0x3c2
                    0x03c4                  DMA5PAD = 0x3c4
                    0x03c4                  _DMA5PAD = 0x3c4
                    0x03c6                  DMA5CNT = 0x3c6
                    0x03c6                  _DMA5CNT = 0x3c6
                    0x03c8                  DMA6CON = 0x3c8
                    0x03c8                  _DMA6CON = 0x3c8
                    0x03c8                  _DMA6CONbits = 0x3c8
                    0x03ca                  DMA6REQ = 0x3ca
                    0x03ca                  _DMA6REQ = 0x3ca
                    0x03ca                  _DMA6REQbits = 0x3ca
                    0x03cc                  DMA6STA = 0x3cc
                    0x03cc                  _DMA6STA = 0x3cc
                    0x03ce                  DMA6STB = 0x3ce
                    0x03ce                  _DMA6STB = 0x3ce
                    0x03d0                  DMA6PAD = 0x3d0
                    0x03d0                  _DMA6PAD = 0x3d0
                    0x03d2                  DMA6CNT = 0x3d2
                    0x03d2                  _DMA6CNT = 0x3d2
                    0x03d4                  DMA7CON = 0x3d4
                    0x03d4                  _DMA7CON = 0x3d4
                    0x03d4                  _DMA7CONbits = 0x3d4
                    0x03d6                  DMA7REQ = 0x3d6
                    0x03d6                  _DMA7REQ = 0x3d6
                    0x03d6                  _DMA7REQbits = 0x3d6
                    0x03d8                  DMA7STA = 0x3d8
                    0x03d8                  _DMA7STA = 0x3d8
                    0x03da                  DMA7STB = 0x3da
                    0x03da                  _DMA7STB = 0x3da
                    0x03dc                  DMA7PAD = 0x3dc
                    0x03dc                  _DMA7PAD = 0x3dc
                    0x03de                  DMA7CNT = 0x3de
                    0x03de                  _DMA7CNT = 0x3de
                    0x03e0                  DMACS0 = 0x3e0
                    0x03e0                  _DMACS0 = 0x3e0
                    0x03e0                  _DMACS0bits = 0x3e0
                    0x03e2                  DMACS1 = 0x3e2
                    0x03e2                  _DMACS1 = 0x3e2
                    0x03e2                  _DMACS1bits = 0x3e2
                    0x03e4                  DSADR = 0x3e4
                    0x03e4                  _DSADR = 0x3e4
                    0x03f0                  DAC1CON = 0x3f0
                    0x03f0                  _DAC1CON = 0x3f0
                    0x03f0                  _DAC1CONbits = 0x3f0
                    0x03f2                  DAC1STAT = 0x3f2
                    0x03f2                  _DAC1STAT = 0x3f2
                    0x03f2                  _DAC1STATbits = 0x3f2
                    0x03f4                  DAC1DFLT = 0x3f4
                    0x03f4                  _DAC1DFLT = 0x3f4
                    0x03f6                  DAC1RDAT = 0x3f6
                    0x03f6                  _DAC1RDAT = 0x3f6
                    0x03f8                  DAC1LDAT = 0x3f8
                    0x03f8                  _DAC1LDAT = 0x3f8
                    0x0400                  C1CTRL1 = 0x400
                    0x0400                  _C1CTRL1 = 0x400
                    0x0400                  _C1CTRL1bits = 0x400
                    0x0402                  C1CTRL2 = 0x402
                    0x0402                  _C1CTRL2 = 0x402
                    0x0402                  _C1CTRL2bits = 0x402
                    0x0404                  C1VEC = 0x404
                    0x0404                  _C1VEC = 0x404
                    0x0404                  _C1VECbits = 0x404
                    0x0406                  C1FCTRL = 0x406
                    0x0406                  _C1FCTRL = 0x406
                    0x0406                  _C1FCTRLbits = 0x406
                    0x0408                  C1FIFO = 0x408
                    0x0408                  _C1FIFO = 0x408
                    0x0408                  _C1FIFObits = 0x408
                    0x040a                  C1INTF = 0x40a
                    0x040a                  _C1INTF = 0x40a
                    0x040a                  _C1INTFbits = 0x40a
                    0x040c                  C1INTE = 0x40c
                    0x040c                  _C1INTE = 0x40c
                    0x040c                  _C1INTEbits = 0x40c
                    0x040e                  C1EC = 0x40e
                    0x040e                  _C1EC = 0x40e
                    0x040e                  _C1ECbits = 0x40e
                    0x040e                  C1RERRCNT = 0x40e
                    0x040e                  _C1RERRCNT = 0x40e
                    0x040f                  C1TERRCNT = 0x40f
                    0x040f                  _C1TERRCNT = 0x40f
                    0x0410                  C1CFG1 = 0x410
                    0x0410                  _C1CFG1 = 0x410
                    0x0410                  _C1CFG1bits = 0x410
                    0x0412                  C1CFG2 = 0x412
                    0x0412                  _C1CFG2 = 0x412
                    0x0412                  _C1CFG2bits = 0x412
                    0x0414                  C1FEN1 = 0x414
                    0x0414                  _C1FEN1 = 0x414
                    0x0414                  _C1FEN1bits = 0x414
                    0x0418                  C1FMSKSEL1 = 0x418
                    0x0418                  _C1FMSKSEL1 = 0x418
                    0x0418                  _C1FMSKSEL1bits = 0x418
                    0x041a                  C1FMSKSEL2 = 0x41a
                    0x041a                  _C1FMSKSEL2 = 0x41a
                    0x041a                  _C1FMSKSEL2bits = 0x41a
                    0x0420                  C1BUFPNT1 = 0x420
                    0x0420                  _C1BUFPNT1 = 0x420
                    0x0420                  _C1BUFPNT1bits = 0x420
                    0x0420                  C1RXFUL1 = 0x420
                    0x0420                  _C1RXFUL1 = 0x420
                    0x0420                  _C1RXFUL1bits = 0x420
                    0x0422                  C1BUFPNT2 = 0x422
                    0x0422                  _C1BUFPNT2 = 0x422
                    0x0422                  _C1BUFPNT2bits = 0x422
                    0x0422                  C1RXFUL2 = 0x422
                    0x0422                  _C1RXFUL2 = 0x422
                    0x0422                  _C1RXFUL2bits = 0x422
                    0x0424                  C1BUFPNT3 = 0x424
                    0x0424                  _C1BUFPNT3 = 0x424
                    0x0424                  _C1BUFPNT3bits = 0x424
                    0x0426                  C1BUFPNT4 = 0x426
                    0x0426                  _C1BUFPNT4 = 0x426
                    0x0426                  _C1BUFPNT4bits = 0x426
                    0x0428                  C1RXOVF1 = 0x428
                    0x0428                  _C1RXOVF1 = 0x428
                    0x0428                  _C1RXOVF1bits = 0x428
                    0x042a                  C1RXOVF2 = 0x42a
                    0x042a                  _C1RXOVF2 = 0x42a
                    0x042a                  _C1RXOVF2bits = 0x42a
                    0x0430                  C1RXM0SID = 0x430
                    0x0430                  _C1RXM0SID = 0x430
                    0x0430                  _C1RXM0SIDbits = 0x430
                    0x0430                  C1TR01CON = 0x430
                    0x0430                  _C1TR01CON = 0x430
                    0x0430                  _C1TR01CONbits = 0x430
                    0x0432                  C1RXM0EID = 0x432
                    0x0432                  _C1RXM0EID = 0x432
                    0x0432                  _C1RXM0EIDbits = 0x432
                    0x0432                  C1TR23CON = 0x432
                    0x0432                  _C1TR23CON = 0x432
                    0x0432                  _C1TR23CONbits = 0x432
                    0x0434                  C1RXM1SID = 0x434
                    0x0434                  _C1RXM1SID = 0x434
                    0x0434                  _C1RXM1SIDbits = 0x434
                    0x0434                  C1TR45CON = 0x434
                    0x0434                  _C1TR45CON = 0x434
                    0x0434                  _C1TR45CONbits = 0x434
                    0x0436                  C1RXM1EID = 0x436
                    0x0436                  _C1RXM1EID = 0x436
                    0x0436                  _C1RXM1EIDbits = 0x436
                    0x0436                  C1TR67CON = 0x436
                    0x0436                  _C1TR67CON = 0x436
                    0x0436                  _C1TR67CONbits = 0x436
                    0x0438                  C1RXM2SID = 0x438
                    0x0438                  _C1RXM2SID = 0x438
                    0x0438                  _C1RXM2SIDbits = 0x438
                    0x043a                  C1RXM2EID = 0x43a
                    0x043a                  _C1RXM2EID = 0x43a
                    0x043a                  _C1RXM2EIDbits = 0x43a
                    0x0440                  C1RXD = 0x440
                    0x0440                  _C1RXD = 0x440
                    0x0440                  C1RXF0SID = 0x440
                    0x0440                  _C1RXF0SID = 0x440
                    0x0440                  _C1RXF0SIDbits = 0x440
                    0x0442                  C1RXF0EID = 0x442
                    0x0442                  _C1RXF0EID = 0x442
                    0x0442                  _C1RXF0EIDbits = 0x442
                    0x0442                  C1TXD = 0x442
                    0x0442                  _C1TXD = 0x442
                    0x0444                  C1RXF1SID = 0x444
                    0x0444                  _C1RXF1SID = 0x444
                    0x0444                  _C1RXF1SIDbits = 0x444
                    0x0446                  C1RXF1EID = 0x446
                    0x0446                  _C1RXF1EID = 0x446
                    0x0446                  _C1RXF1EIDbits = 0x446
                    0x0448                  C1RXF2SID = 0x448
                    0x0448                  _C1RXF2SID = 0x448
                    0x0448                  _C1RXF2SIDbits = 0x448
                    0x044a                  C1RXF2EID = 0x44a
                    0x044a                  _C1RXF2EID = 0x44a
                    0x044a                  _C1RXF2EIDbits = 0x44a
                    0x044c                  C1RXF3SID = 0x44c
                    0x044c                  _C1RXF3SID = 0x44c
                    0x044c                  _C1RXF3SIDbits = 0x44c
                    0x044e                  C1RXF3EID = 0x44e
                    0x044e                  _C1RXF3EID = 0x44e
                    0x044e                  _C1RXF3EIDbits = 0x44e
                    0x0450                  C1RXF4SID = 0x450
                    0x0450                  _C1RXF4SID = 0x450
                    0x0450                  _C1RXF4SIDbits = 0x450
                    0x0452                  C1RXF4EID = 0x452
                    0x0452                  _C1RXF4EID = 0x452
                    0x0452                  _C1RXF4EIDbits = 0x452
                    0x0454                  C1RXF5SID = 0x454
                    0x0454                  _C1RXF5SID = 0x454
                    0x0454                  _C1RXF5SIDbits = 0x454
                    0x0456                  C1RXF5EID = 0x456
                    0x0456                  _C1RXF5EID = 0x456
                    0x0456                  _C1RXF5EIDbits = 0x456
                    0x0458                  C1RXF6SID = 0x458
                    0x0458                  _C1RXF6SID = 0x458
                    0x0458                  _C1RXF6SIDbits = 0x458
                    0x045a                  C1RXF6EID = 0x45a
                    0x045a                  _C1RXF6EID = 0x45a
                    0x045a                  _C1RXF6EIDbits = 0x45a
                    0x045c                  C1RXF7SID = 0x45c
                    0x045c                  _C1RXF7SID = 0x45c
                    0x045c                  _C1RXF7SIDbits = 0x45c
                    0x045e                  C1RXF7EID = 0x45e
                    0x045e                  _C1RXF7EID = 0x45e
                    0x045e                  _C1RXF7EIDbits = 0x45e
                    0x0460                  C1RXF8SID = 0x460
                    0x0460                  _C1RXF8SID = 0x460
                    0x0460                  _C1RXF8SIDbits = 0x460
                    0x0462                  C1RXF8EID = 0x462
                    0x0462                  _C1RXF8EID = 0x462
                    0x0462                  _C1RXF8EIDbits = 0x462
                    0x0464                  C1RXF9SID = 0x464
                    0x0464                  _C1RXF9SID = 0x464
                    0x0464                  _C1RXF9SIDbits = 0x464
                    0x0466                  C1RXF9EID = 0x466
                    0x0466                  _C1RXF9EID = 0x466
                    0x0466                  _C1RXF9EIDbits = 0x466
                    0x0468                  C1RXF10SID = 0x468
                    0x0468                  _C1RXF10SID = 0x468
                    0x0468                  _C1RXF10SIDbits = 0x468
                    0x046a                  C1RXF10EID = 0x46a
                    0x046a                  _C1RXF10EID = 0x46a
                    0x046a                  _C1RXF10EIDbits = 0x46a
                    0x046c                  C1RXF11SID = 0x46c
                    0x046c                  _C1RXF11SID = 0x46c
                    0x046c                  _C1RXF11SIDbits = 0x46c
                    0x046e                  C1RXF11EID = 0x46e
                    0x046e                  _C1RXF11EID = 0x46e
                    0x046e                  _C1RXF11EIDbits = 0x46e
                    0x0470                  C1RXF12SID = 0x470
                    0x0470                  _C1RXF12SID = 0x470
                    0x0470                  _C1RXF12SIDbits = 0x470
                    0x0472                  C1RXF12EID = 0x472
                    0x0472                  _C1RXF12EID = 0x472
                    0x0472                  _C1RXF12EIDbits = 0x472
                    0x0474                  C1RXF13SID = 0x474
                    0x0474                  _C1RXF13SID = 0x474
                    0x0474                  _C1RXF13SIDbits = 0x474
                    0x0476                  C1RXF13EID = 0x476
                    0x0476                  _C1RXF13EID = 0x476
                    0x0476                  _C1RXF13EIDbits = 0x476
                    0x0478                  C1RXF14SID = 0x478
                    0x0478                  _C1RXF14SID = 0x478
                    0x0478                  _C1RXF14SIDbits = 0x478
                    0x047a                  C1RXF14EID = 0x47a
                    0x047a                  _C1RXF14EID = 0x47a
                    0x047a                  _C1RXF14EIDbits = 0x47a
                    0x047c                  C1RXF15SID = 0x47c
                    0x047c                  _C1RXF15SID = 0x47c
                    0x047c                  _C1RXF15SIDbits = 0x47c
                    0x047e                  C1RXF15EID = 0x47e
                    0x047e                  _C1RXF15EID = 0x47e
                    0x047e                  _C1RXF15EIDbits = 0x47e
                    0x0600                  PMCON = 0x600
                    0x0600                  _PMCON = 0x600
                    0x0600                  _PMCONbits = 0x600
                    0x0602                  PMMODE = 0x602
                    0x0602                  _PMMODE = 0x602
                    0x0602                  _PMMODEbits = 0x602
                    0x0604                  PMADDR = 0x604
                    0x0604                  _PMADDR = 0x604
                    0x0604                  _PMADDRbits = 0x604
                    0x0604                  PMDOUT1 = 0x604
                    0x0604                  _PMDOUT1 = 0x604
                    0x0606                  PMDOUT2 = 0x606
                    0x0606                  _PMDOUT2 = 0x606
                    0x0608                  PMDIN1 = 0x608
                    0x0608                  _PMDIN1 = 0x608
                    0x060a                  PMDIN2 = 0x60a
                    0x060a                  _PMDIN2 = 0x60a
                    0x060c                  PMAEN = 0x60c
                    0x060c                  _PMAEN = 0x60c
                    0x060c                  _PMAENbits = 0x60c
                    0x060e                  PMSTAT = 0x60e
                    0x060e                  _PMSTAT = 0x60e
                    0x060e                  _PMSTATbits = 0x60e
                    0x0620                  ALRMVAL = 0x620
                    0x0620                  _ALRMVAL = 0x620
                    0x0622                  ALCFGRPT = 0x622
                    0x0622                  _ALCFGRPT = 0x622
                    0x0622                  _ALCFGRPTbits = 0x622
                    0x0624                  RTCVAL = 0x624
                    0x0624                  _RTCVAL = 0x624
                    0x0626                  RCFGCAL = 0x626
                    0x0626                  _RCFGCAL = 0x626
                    0x0626                  _RCFGCALbits = 0x626
                    0x0630                  CMCON = 0x630
                    0x0630                  _CMCON = 0x630
                    0x0630                  _CMCONbits = 0x630
                    0x0632                  CVRCON = 0x632
                    0x0632                  _CVRCON = 0x632
                    0x0632                  _CVRCONbits = 0x632
                    0x0640                  CRCCON = 0x640
                    0x0640                  _CRCCON = 0x640
                    0x0640                  _CRCCONbits = 0x640
                    0x0642                  CRCXOR = 0x642
                    0x0642                  _CRCXOR = 0x642
                    0x0644                  CRCDAT = 0x644
                    0x0644                  _CRCDAT = 0x644
                    0x0646                  CRCWDAT = 0x646
                    0x0646                  _CRCWDAT = 0x646
                    0x0680                  RPINR0 = 0x680
                    0x0680                  _RPINR0 = 0x680
                    0x0680                  _RPINR0bits = 0x680
                    0x0682                  RPINR1 = 0x682
                    0x0682                  _RPINR1 = 0x682
                    0x0682                  _RPINR1bits = 0x682
                    0x0686                  RPINR3 = 0x686
                    0x0686                  _RPINR3 = 0x686
                    0x0686                  _RPINR3bits = 0x686
                    0x0688                  RPINR4 = 0x688
                    0x0688                  _RPINR4 = 0x688
                    0x0688                  _RPINR4bits = 0x688
                    0x068e                  RPINR7 = 0x68e
                    0x068e                  _RPINR7 = 0x68e
                    0x068e                  _RPINR7bits = 0x68e
                    0x0694                  RPINR10 = 0x694
                    0x0694                  _RPINR10 = 0x694
                    0x0694                  _RPINR10bits = 0x694
                    0x0696                  RPINR11 = 0x696
                    0x0696                  _RPINR11 = 0x696
                    0x0696                  _RPINR11bits = 0x696
                    0x06a4                  RPINR18 = 0x6a4
                    0x06a4                  _RPINR18 = 0x6a4
                    0x06a4                  _RPINR18bits = 0x6a4
                    0x06a6                  RPINR19 = 0x6a6
                    0x06a6                  _RPINR19 = 0x6a6
                    0x06a6                  _RPINR19bits = 0x6a6
                    0x06a8                  RPINR20 = 0x6a8
                    0x06a8                  _RPINR20 = 0x6a8
                    0x06a8                  _RPINR20bits = 0x6a8
                    0x06aa                  RPINR21 = 0x6aa
                    0x06aa                  _RPINR21 = 0x6aa
                    0x06aa                  _RPINR21bits = 0x6aa
                    0x06ac                  RPINR22 = 0x6ac
                    0x06ac                  _RPINR22 = 0x6ac
                    0x06ac                  _RPINR22bits = 0x6ac
                    0x06ae                  RPINR23 = 0x6ae
                    0x06ae                  _RPINR23 = 0x6ae
                    0x06ae                  _RPINR23bits = 0x6ae
                    0x06b0                  RPINR24 = 0x6b0
                    0x06b0                  _RPINR24 = 0x6b0
                    0x06b0                  _RPINR24bits = 0x6b0
                    0x06b2                  RPINR25 = 0x6b2
                    0x06b2                  _RPINR25 = 0x6b2
                    0x06b2                  _RPINR25bits = 0x6b2
                    0x06b4                  RPINR26 = 0x6b4
                    0x06b4                  _RPINR26 = 0x6b4
                    0x06b4                  _RPINR26bits = 0x6b4
                    0x06c0                  RPOR0 = 0x6c0
                    0x06c0                  _RPOR0 = 0x6c0
                    0x06c0                  _RPOR0bits = 0x6c0
                    0x06c2                  RPOR1 = 0x6c2
                    0x06c2                  _RPOR1 = 0x6c2
                    0x06c2                  _RPOR1bits = 0x6c2
                    0x06c4                  RPOR2 = 0x6c4
                    0x06c4                  _RPOR2 = 0x6c4
                    0x06c4                  _RPOR2bits = 0x6c4
                    0x06c6                  RPOR3 = 0x6c6
                    0x06c6                  _RPOR3 = 0x6c6
                    0x06c6                  _RPOR3bits = 0x6c6
                    0x06c8                  RPOR4 = 0x6c8
                    0x06c8                  _RPOR4 = 0x6c8
                    0x06c8                  _RPOR4bits = 0x6c8
                    0x06ca                  RPOR5 = 0x6ca
                    0x06ca                  _RPOR5 = 0x6ca
                    0x06ca                  _RPOR5bits = 0x6ca
                    0x06cc                  RPOR6 = 0x6cc
                    0x06cc                  _RPOR6 = 0x6cc
                    0x06cc                  _RPOR6bits = 0x6cc
                    0x06ce                  RPOR7 = 0x6ce
                    0x06ce                  _RPOR7 = 0x6ce
                    0x06ce                  _RPOR7bits = 0x6ce
                    0x06d0                  RPOR8 = 0x6d0
                    0x06d0                  _RPOR8 = 0x6d0
                    0x06d0                  _RPOR8bits = 0x6d0
                    0x06d2                  RPOR9 = 0x6d2
                    0x06d2                  _RPOR9 = 0x6d2
                    0x06d2                  _RPOR9bits = 0x6d2
                    0x06d4                  RPOR10 = 0x6d4
                    0x06d4                  _RPOR10 = 0x6d4
                    0x06d4                  _RPOR10bits = 0x6d4
                    0x06d6                  RPOR11 = 0x6d6
                    0x06d6                  _RPOR11 = 0x6d6
                    0x06d6                  _RPOR11bits = 0x6d6
                    0x06d8                  RPOR12 = 0x6d8
                    0x06d8                  _RPOR12 = 0x6d8
                    0x06d8                  _RPOR12bits = 0x6d8
                    0x0740                  RCON = 0x740
                    0x0740                  _RCON = 0x740
                    0x0740                  _RCONbits = 0x740
                    0x0742                  OSCCON = 0x742
                    0x0742                  _OSCCON = 0x742
                    0x0742                  _OSCCONbits = 0x742
                    0x0742                  OSCCONL = 0x742
                    0x0742                  _OSCCONL = 0x742
                    0x0743                  OSCCONH = 0x743
                    0x0743                  _OSCCONH = 0x743
                    0x0744                  CLKDIV = 0x744
                    0x0744                  _CLKDIV = 0x744
                    0x0744                  _CLKDIVbits = 0x744
                    0x0746                  PLLFBD = 0x746
                    0x0746                  _PLLFBD = 0x746
                    0x0746                  _PLLFBDbits = 0x746
                    0x0748                  OSCTUN = 0x748
                    0x0748                  _OSCTUN = 0x748
                    0x0748                  _OSCTUNbits = 0x748
                    0x074a                  ACLKCON = 0x74a
                    0x074a                  _ACLKCON = 0x74a
                    0x074a                  _ACLKCONbits = 0x74a
                    0x0750                  BSRAM = 0x750
                    0x0750                  _BSRAM = 0x750
                    0x0750                  _BSRAMbits = 0x750
                    0x0752                  SSRAM = 0x752
                    0x0752                  _SSRAM = 0x752
                    0x0752                  _SSRAMbits = 0x752
                    0x0760                  NVMCON = 0x760
                    0x0760                  _NVMCON = 0x760
                    0x0760                  _NVMCONbits = 0x760
                    0x0766                  NVMKEY = 0x766
                    0x0766                  _NVMKEY = 0x766
                    0x0770                  PMD1 = 0x770
                    0x0770                  _PMD1 = 0x770
                    0x0770                  _PMD1bits = 0x770
                    0x0772                  PMD2 = 0x772
                    0x0772                  _PMD2 = 0x772
                    0x0772                  _PMD2bits = 0x772
                    0x0774                  PMD3 = 0x774
                    0x0774                  _PMD3 = 0x774
                    0x0774                  _PMD3bits = 0x774
                    0x0022                  ACCA = 0x22
                    0x0022                  _ACCA = 0x22
                    0x0028                  ACCB = 0x28
                    0x0028                  _ACCB = 0x28
                    0x0440                  CAN1 = 0x440
                    0x0440                  _CAN1 = 0x440
                    0x0140                  IC1 = 0x140
                    0x0140                  _IC1 = 0x140
                    0x0144                  IC2 = 0x144
                    0x0144                  _IC2 = 0x144
                    0x0158                  IC7 = 0x158
                    0x0158                  _IC7 = 0x158
                    0x015c                  IC8 = 0x15c
                    0x015c                  _IC8 = 0x15c
                    0x0180                  OC1 = 0x180
                    0x0180                  _OC1 = 0x180
                    0x0186                  OC2 = 0x186
                    0x0186                  _OC2 = 0x186
                    0x018c                  OC3 = 0x18c
                    0x018c                  _OC3 = 0x18c
                    0x0192                  OC4 = 0x192
                    0x0192                  _OC4 = 0x192
                    0x0240                  SPI1 = 0x240
                    0x0240                  _SPI1 = 0x240
                    0x0260                  SPI2 = 0x260
                    0x0260                  _SPI2 = 0x260
                    0x0220                  UART1 = 0x220
                    0x0220                  _UART1 = 0x220
                    0x0230                  UART2 = 0x230
                    0x0230                  _UART2 = 0x230
START GROUP
LOAD c:/program files (x86)/microchip/xc16/v1.26/bin/bin/../../lib\libpic30-elf.a
LOAD c:/program files (x86)/microchip/xc16/v1.26/bin/bin/../../lib\libm-elf.a
LOAD c:/program files (x86)/microchip/xc16/v1.26/bin/bin/../../lib\libc-elf.a
END GROUP
OUTPUT(dist/default/debug/BMM.X.debug.elf elf32-pic30)
LOAD FGS
LOAD FSS
LOAD FBS
LOAD jump_table
LOAD default_isr
LOAD heap
LOAD data_init
LOAD shared_data_init

.debug_pubtypes
                  0x000138        0x680
 .debug_pubtypes
                  0x000138         0x12 build/default/debug/ConfigBits.o
 .debug_pubtypes
                  0x00014a         0x54 build/default/debug/FastTransfer.o
 .debug_pubtypes
                  0x00019e        0x1b7 build/default/debug/Function.o
 .debug_pubtypes
                  0x000355         0x12 build/default/debug/main.o
 .debug_pubtypes
                  0x000367         0x73 build/default/debug/pwm.o
 .debug_pubtypes
                  0x0003da         0x96 build/default/debug/I2C.o
 .debug_pubtypes
                  0x000470         0x9f build/default/debug/UART.o
 .debug_pubtypes
                  0x00050f         0xe5 build/default/debug/Timers.o
 .debug_pubtypes
                  0x0005f4         0x54 build/default/debug/Communications.o
 .debug_pubtypes
                  0x000648         0xa0 build/default/debug/UART1.o
 .debug_pubtypes
                  0x0006e8         0x3c build/default/debug/LT6804.o
 .debug_pubtypes
                  0x000724         0x43 build/default/debug/spi2.o
 .debug_pubtypes
                  0x000767         0x31 build/default/debug/BatteryManagment.o
 .debug_pubtypes
                  0x000798         0x20 build/default/debug/ADS1015.o

__c30_signature
                  0x0007b8        0x150
 __c30_signature
                  0x0007b8          0x6 build/default/debug/ConfigBits.o
 __c30_signature
                  0x0007be          0x6 build/default/debug/FastTransfer.o
 __c30_signature
                  0x0007c4          0x6 build/default/debug/Function.o
 __c30_signature
                  0x0007ca          0x6 build/default/debug/main.o
 __c30_signature
                  0x0007d0          0x6 build/default/debug/pwm.o
 __c30_signature
                  0x0007d6          0x6 build/default/debug/I2C.o
 __c30_signature
                  0x0007dc          0x6 build/default/debug/UART.o
 __c30_signature
                  0x0007e2          0x6 build/default/debug/Timers.o
 __c30_signature
                  0x0007e8          0x6 build/default/debug/Communications.o
 __c30_signature
                  0x0007ee          0x6 build/default/debug/UART1.o
 __c30_signature
                  0x0007f4          0x6 build/default/debug/LT6804.o
 __c30_signature
                  0x0007fa          0x6 build/default/debug/spi2.o
 __c30_signature
                  0x000800          0x6 build/default/debug/BatteryManagment.o
 __c30_signature
                  0x000806          0x6 build/default/debug/ADS1015.o
 __c30_signature
                  0x00080c          0x6 c:/program files (x86)/microchip/xc16/v1.26/bin/bin/../../lib\libpic30-elf.a(crt0_standard.o)
 __c30_signature
                  0x000812          0x6 c:/program files (x86)/microchip/xc16/v1.26/bin/bin/../../lib\libpic30-elf.a(data_init_standard.o)
 __c30_signature
                  0x000818          0x6 c:/program files (x86)/microchip/xc16/v1.26/bin/bin/../../lib\libpic30-elf.a(c30_uart.eo)
 __c30_signature
                  0x00081e          0x6 c:/program files (x86)/microchip/xc16/v1.26/bin/bin/../../lib\libpic30-elf.a(delay32.eo)
 __c30_signature
                  0x000824          0x6 c:/program files (x86)/microchip/xc16/v1.26/bin/bin/../../lib\libm-elf.a(addsf3.eo)
 __c30_signature
                  0x00082a          0x6 c:/program files (x86)/microchip/xc16/v1.26/bin/bin/../../lib\libm-elf.a(divsf3.eo)
 __c30_signature
                  0x000830          0x6 c:/program files (x86)/microchip/xc16/v1.26/bin/bin/../../lib\libm-elf.a(feqltle.eo)
 __c30_signature
                  0x000836          0x6 c:/program files (x86)/microchip/xc16/v1.26/bin/bin/../../lib\libm-elf.a(fgtge.eo)
 __c30_signature
                  0x00083c          0x6 c:/program files (x86)/microchip/xc16/v1.26/bin/bin/../../lib\libm-elf.a(fixsfsi.eo)
 __c30_signature
                  0x000842          0x6 c:/program files (x86)/microchip/xc16/v1.26/bin/bin/../../lib\libm-elf.a(floatsisf.eo)
 __c30_signature
                  0x000848          0x6 c:/program files (x86)/microchip/xc16/v1.26/bin/bin/../../lib\libm-elf.a(fpack.eo)
 __c30_signature
                  0x00084e          0x6 c:/program files (x86)/microchip/xc16/v1.26/bin/bin/../../lib\libm-elf.a(funpack.eo)
 __c30_signature
                  0x000854          0x6 c:/program files (x86)/microchip/xc16/v1.26/bin/bin/../../lib\libm-elf.a(funpack2.eo)
 __c30_signature
                  0x00085a          0x6 c:/program files (x86)/microchip/xc16/v1.26/bin/bin/../../lib\libm-elf.a(futil.eo)
 __c30_signature
                  0x000860          0x6 c:/program files (x86)/microchip/xc16/v1.26/bin/bin/../../lib\libm-elf.a(logf.eo)
 __c30_signature
                  0x000866          0x6 c:/program files (x86)/microchip/xc16/v1.26/bin/bin/../../lib\libm-elf.a(mulsf3.eo)
 __c30_signature
                  0x00086c          0x6 c:/program files (x86)/microchip/xc16/v1.26/bin/bin/../../lib\libm-elf.a(powf.eo)
 __c30_signature
                  0x000872          0x6 c:/program files (x86)/microchip/xc16/v1.26/bin/bin/../../lib\libm-elf.a(_frexpf.eo)
 __c30_signature
                  0x000878          0x6 c:/program files (x86)/microchip/xc16/v1.26/bin/bin/../../lib\libm-elf.a(errno.eo)
 __c30_signature
                  0x00087e          0x6 c:/program files (x86)/microchip/xc16/v1.26/bin/bin/../../lib\libm-elf.a(expf.eo)
 __c30_signature
                  0x000884          0x6 c:/program files (x86)/microchip/xc16/v1.26/bin/bin/../../lib\libm-elf.a(fchop.eo)
 __c30_signature
                  0x00088a          0x6 c:/program files (x86)/microchip/xc16/v1.26/bin/bin/../../lib\libm-elf.a(fcompare.eo)
 __c30_signature
                  0x000890          0x6 c:/program files (x86)/microchip/xc16/v1.26/bin/bin/../../lib\libm-elf.a(floatdisf.eo)
 __c30_signature
                  0x000896          0x6 c:/program files (x86)/microchip/xc16/v1.26/bin/bin/../../lib\libm-elf.a(floatundisf.eo)
 __c30_signature
                  0x00089c          0x6 c:/program files (x86)/microchip/xc16/v1.26/bin/bin/../../lib\libm-elf.a(ldexpf.eo)
 __c30_signature
                  0x0008a2          0x6 c:/program files (x86)/microchip/xc16/v1.26/bin/bin/../../lib\libc-elf.a(malloc.eo)
 __c30_signature
                  0x0008a8          0x6 c:/program files (x86)/microchip/xc16/v1.26/bin/bin/../../lib\libc-elf.a(memcpy.eo)
 __c30_signature
                  0x0008ae          0x6 c:/program files (x86)/microchip/xc16/v1.26/bin/bin/../../lib\libc-elf.a(memset.eo)
 __c30_signature
                  0x0008b4          0x6 c:/program files (x86)/microchip/xc16/v1.26/bin/bin/../../lib\libc-elf.a(printf_cdnopuxX.XXeo)
 __c30_signature
                  0x0008ba          0x6 c:/program files (x86)/microchip/xc16/v1.26/bin/bin/../../lib\libc-elf.a(printf_s.XXeo)
 __c30_signature
                  0x0008c0          0x6 c:/program files (x86)/microchip/xc16/v1.26/bin/bin/../../lib\libc-elf.a(_iob.eo)
 __c30_signature
                  0x0008c6          0x6 c:/program files (x86)/microchip/xc16/v1.26/bin/bin/../../lib\libc-elf.a(fputc.eo)
 __c30_signature
                  0x0008cc          0x6 c:/program files (x86)/microchip/xc16/v1.26/bin/bin/../../lib\libc-elf.a(flsbuf.eo)
 __c30_signature
                  0x0008d2          0x6 c:/program files (x86)/microchip/xc16/v1.26/bin/bin/../../lib\libpic30-elf.a(write.eo)
 __c30_signature
                  0x0008d8          0x6 c:/program files (x86)/microchip/xc16/v1.26/bin/bin/../../lib\libpic30-elf.a(sbrk.eo)
 __c30_signature
                  0x0008de          0x6 c:/program files (x86)/microchip/xc16/v1.26/bin/bin/../../lib\libpic30-elf.a(brk.elo)
 __c30_signature
                  0x0008e4          0x6 c:/program files (x86)/microchip/xc16/v1.26/bin/bin/../../lib\libm-elf.a(udivsi3.eo)
 __c30_signature
                  0x0008ea          0x6 c:/program files (x86)/microchip/xc16/v1.26/bin/bin/../../lib\libm-elf.a(mulsi3.eo)
 __c30_signature
                  0x0008f0          0x6 c:/program files (x86)/microchip/xc16/v1.26/bin/bin/../../lib\libm-elf.a(divmoddi3.eo)
 __c30_signature
                  0x0008f6          0x6 c:/program files (x86)/microchip/xc16/v1.26/bin/bin/../../lib\libm-elf.a(muldi3.eo)
 __c30_signature
                  0x0008fc          0x6 c:/program files (x86)/microchip/xc16/v1.26/bin/bin/../../lib\libm-elf.a(umuldi3.eo)
 __c30_signature
                  0x000902          0x6 c:/program files (x86)/microchip/xc16/v1.26/bin/bin/../../lib\libc-elf.a(doprnt_cdnopsuxX.XXeo)

.nbss               0x0850         0x98
 .nbss              0x0850         0x2c build/default/debug/Timers.o
                    0x0850                  _timer_3_Function
                    0x0852                  _slaveTime
                    0x0856                  _time
                    0x085a                  _ADCTime
                    0x085e                  _LEDtime
                    0x0862                  _talkTime
                    0x0876                  _FaultValueHistory
                    0x0878                  _count
 .nbss              0x087c         0x2a build/default/debug/BatteryManagment.o
                    0x087c                  _k
                    0x087e                  _j
                    0x0880                  _Volt1
                    0x0884                  _Volt2
                    0x0888                  _CC1
                    0x088c                  _CC2
                    0x0890                  _CC3
                    0x0894                  _CFGR0
                    0x0895                  _CFGR1
                    0x0896                  _CFGR2
                    0x0897                  _CFGR3
                    0x0898                  _CFGR4
                    0x0899                  _CFGR5
                    0x089a                  _TempK
                    0x089e                  _Vin
                    0x08a0                  _Over_Temp_Value
                    0x08a2                  _Battery_Is_Charging_Flag
                    0x08a4                  _FaultValue
 .nbss              0x08a6         0x22 build/default/debug/FastTransfer.o
                    0x08a6                  _serial_write
                    0x08a8                  _serial_read
                    0x08aa                  _serial_available
                    0x08ac                  _serial_peek
                    0x08ae                  _rx_buffer
                    0x08b0                  _rx_array_inx
                    0x08b1                  _rx_len
                    0x08b2                  _calc_CS
                    0x08b3                  _moduleAddress
                    0x08b4                  _returnAddress
                    0x08b5                  _maxDataAddress
                    0x08b6                  _receiveArrayAddress
                    0x08b8                  _sendStructAddress
                    0x08ba                  _AKNAKsend
                    0x08bc                  _alignErrorCounter
                    0x08be                  _crcErrorCounter
                    0x08c0                  _addressErrorCounter
                    0x08c2                  _dataAdressErrorCounter
                    0x08c4                  _rx_address
                    0x08c6                  _group
 .nbss              0x08c8         0x12 build/default/debug/LT6804.o
                    0x08c8                  _i
                    0x08ca                  _current_ic
                    0x08cc                  _current_byte
                    0x08ce                  _ADCV
                    0x08d2                  _ADAX
                    0x08d6                  _ADSTAT
 .nbss              0x08da          0xe build/default/debug/Communications.o
                    0x08da                  _x
                    0x08dc                  _pendingSend
                    0x08de                  _COMM_STATE
                    0x08e0                  _faultFlag
                    0x08e2                  _slaveaddr
                    0x08e4                  _portClosed

.ndata              0x08e8         0x10
 .ndata             0x08e8          0x8 build/default/debug/BatteryManagment.o
                    0x08e8                  _CarOn
                    0x08e9                  _CurrentDir
                    0x08ea                  _VoltageDividerResistance
                    0x08ec                  _Over_Voltage_Value
                    0x08ee                  _Under_Voltage_Value
 .ndata             0x08f0          0x4 build/default/debug/ADS1015.o
                    0x08f0                  _conversionDelay
                    0x08f1                  _bitShift
                    0x08f2                  _IC_gain
 .ndata             0x08f4          0x2 build/default/debug/UART.o
                    0x08f4                  _Transmit_stall
 .ndata             0x08f6          0x2 build/default/debug/UART1.o
                    0x08f6                  _Transmit_stall1

.nbss               0x08f8          0x4
 .nbss              0x08f8          0x2 build/default/debug/ADS1015.o
                    0x08f8                  _i2cAddress
 .nbss              0x08fa          0x2 c:/program files (x86)/microchip/xc16/v1.26/bin/bin/../../lib\libm-elf.a(errno.eo)
                    0x08fa                  _errno

.bss                0x08fc        0xd78
 .bss               0x08fc        0x960 build/default/debug/BatteryManagment.o
                    0x08fc                  _CurrentOffset
                    0x0914                  _Current
                    0x0920                  _CVolt
                    0x0938                  _TempCBank1
                    0x0a58                  _TempCBank2
                    0x0b78                  _Voltage_data
                    0x0b90                  _Aux_data
                    0x0b9c                  _LTC6804_DATA_ConfigBank1
                    0x0c2c                  _LTC6804_DATA_ConfigBank2
                    0x0cbc                  _Stat_codes_Bank1
                    0x0d4c                  _Stat_codes_Bank2
                    0x0ddc                  _aux_codes_Bank1
                    0x0e6c                  _aux_codes_Bank2
                    0x0efc                  _cell_codes_Bank1
                    0x101c                  _cell_codes_Bank2
                    0x113c                  _Aux_codes_Bank1
                    0x11cc                  _Aux_codes_Bank2
 .bss               0x125c        0x19c build/default/debug/UART.o
                    0x125c                  _input_buffer
                    0x132a                  _output_buffer
 .bss               0x13f8        0x19c build/default/debug/UART1.o
                    0x13f8                  _input_buffer1
                    0x14c6                  _output_buffer1
 .bss               0x1594         0xe0 build/default/debug/FastTransfer.o
                    0x1594                  _ring_buffer
                    0x1662                  _crc_buffer

.data               0x1674         0xca
 .data              0x1674         0xca c:/program files (x86)/microchip/xc16/v1.26/bin/bin/../../lib\libc-elf.a(doprnt_cdnopsuxX.XXeo)

.bss                0x173e         0x64
 .bss               0x173e         0x64 build/default/debug/Communications.o
                    0x173e                  _receiveArray

.data               0x17a2         0x26
 .data              0x17a2         0x26 c:/program files (x86)/microchip/xc16/v1.26/bin/bin/../../lib\libc-elf.a(_iob.eo)
                    0x17a2                  __iob
                    0x17c6                  __Files

.bss                0x17c8         0x16
 .bss               0x17c8         0x10 c:/program files (x86)/microchip/xc16/v1.26/bin/bin/../../lib\libc-elf.a(malloc.eo)
                    0x17c8                  ___allocs
                    0x17d0                  ___allocp
                    0x17d2                  ___alloct
                    0x17d4                  ___allocx
 .bss               0x17d8          0x6 c:/program files (x86)/microchip/xc16/v1.26/bin/bin/../../lib\libc-elf.a(_iob.eo)
                    0x17d8                  __outdone
                    0x17d9                  __sibuf
                    0x17db                  __sobuf

.data               0x17de          0x2
 .data              0x17de          0x2 c:/program files (x86)/microchip/xc16/v1.26/bin/bin/../../lib\libpic30-elf.a(c30_uart.eo)
                    0x17de                  ___C30_UART

.bss                0x17e0          0x2
 .bss               0x17e0          0x2 c:/program files (x86)/microchip/xc16/v1.26/bin/bin/../../lib\libpic30-elf.a(brk.elo)
                    0x17e0                  ___curbrk

.heap               0x17e2        0x1f4
 .heap              0x17e2        0x1f4 heap

.config_JTAGEN    0xf8000e          0x2
 .config_JTAGEN
                  0xf8000e          0x2 build/default/debug/ConfigBits.o

.config_ALTI2C    0xf8000c          0x2
 .config_ALTI2C
                  0xf8000c          0x2 build/default/debug/ConfigBits.o

.config_FWDTEN    0xf8000a          0x2
 .config_FWDTEN
                  0xf8000a          0x2 build/default/debug/ConfigBits.o

.config_FCKSM     0xf80008          0x2
 .config_FCKSM    0xf80008          0x2 build/default/debug/ConfigBits.o

.config_IESO      0xf80006          0x2
 .config_IESO     0xf80006          0x2 build/default/debug/ConfigBits.o

.ivt._U1RXInterrupt
                  0x00002a          0x2
 .ivt._U1RXInterrupt
                  0x00002a          0x2 build/default/debug/UART.o

.ivt._U1TXInterrupt
                  0x00002c          0x2
 .ivt._U1TXInterrupt
                  0x00002c          0x2 build/default/debug/UART.o

.ivt._T1Interrupt
                  0x00001a          0x2
 .ivt._T1Interrupt
                  0x00001a          0x2 build/default/debug/Timers.o

.ivt._T2Interrupt
                  0x000022          0x2
 .ivt._T2Interrupt
                  0x000022          0x2 build/default/debug/Timers.o

.ivt._T3Interrupt
                  0x000024          0x2
 .ivt._T3Interrupt
                  0x000024          0x2 build/default/debug/Timers.o

.const              0x9960        0x418 load address 0x001960  
 .const             0x9960        0x200 build/default/debug/LT6804.o
 .const             0x9b60        0x200 build/default/debug/BatteryManagment.o
 .const             0x9d60         0x12 build/default/debug/Function.o
 .const             0x9d72          0x6 build/default/debug/main.o

.text             0x001d78       0x275e
 .text            0x001d78       0x10d8 build/default/debug/BatteryManagment.o
                  0x001d78                  _Start_BMS
                  0x001d9e                  _Charge_Mode
                  0x001db4                  _Run_Mode
                  0x001dbc                  _Run_GPIO_Temp_ColumbCounting_Timer
                  0x001dc4                  _Initalize_LT6804b
                  0x001e1e                  _Run_ByPass
                  0x001ea4                  _Open_All_ByPass
                  0x001ef2                  _Startuptests
                  0x001f4c                  _CheckTestReading
                  0x002306                  _CheckThresholdsBank
                  0x00235e                  _CheckThresholds
                  0x00239a                  _Read_Total_Voltage
                  0x002450                  _Read_Total_GPIO
                  0x0024c8                  _Read_Battery
                  0x0025e2                  _Read_GPIO
                  0x0026c0                  _CalculateTemp
                  0x00279e                  _Test_Temp_Sensors
                  0x002834                  _SetBypass
                  0x0028fc                  _RunBypass_Set
                  0x002978                  _SetTempEnable
                  0x0029da                  _SetUnderOverVoltage
                  0x002a88                  _Set_ADC_Mode
                  0x002ae6                  _Set_DCC_Mode_OFF
                  0x002b56                  _Set_DCTO_Mode_OFF
                  0x002ba0                  _Set_REFON_Pin
                  0x002bfe                  _UpdateLT6804
                  0x002c2c                  _ReadCurrentVolt
                  0x002c88                  _ReadVolt
                  0x002cde                  _ReadVoltToCurrent
                  0x002d1c                  _ChargerEN
                  0x002d24                  _ChargerVal
                  0x002d2c                  _CurrentCoulombCount
                  0x002de2                  _CurrentGet
 .text            0x002e50        0xb02 build/default/debug/LT6804.o
                  0x002e50                  _LTC6804_initialize
                  0x002e62                  _set_adc
                  0x002eb4                  _Set_Stat
                  0x002ede                  _LTC6804_adcv
                  0x002f0c                  _LTC6804_adax
                  0x002f3a                  _LTC6804_ADSTAT
                  0x002f68                  _LTC6804_rdcv
                  0x00312a                  _LTC6804_rdcv_reg
                  0x0031ba                  _LTC6804_rdaux
                  0x003372                  _LTC6804_rdaux_reg
                  0x003400                  _LTC6804_rdStat
                  0x0035b8                  _LTC6804_rdStat_reg
                  0x003628                  _LTC6804_clrcell
                  0x00365a                  _LTC6804_clraux
                  0x003682                  _LTC6804_wrcfg
                  0x00378e                  _LTC6804_rdcfg
                  0x003882                  _wakeup_idle
                  0x003892                  _wakeup_sleep
                  0x0038a0                  _pec15_calc
                  0x0038ee                  _spi_write_array
                  0x003916                  _spi_write_read
 .text            0x003952        0x658 build/default/debug/FastTransfer.o
                  0x003952                  _begin
                  0x003998                  _CRC8
                  0x0039fc                  _sendData
                  0x003a66                  _receiveData
                  0x003c9a                  _ToSend
                  0x003cac                  _FastTransfer_buffer_put
                  0x003d30                  _FastTransfer_buffer_get
                  0x003d68                  _FastTransfer_buffer_flush
                  0x003d92                  _FastTransfer_buffer_modulo_inc
                  0x003dae                  _AKNAK
                  0x003de6                  _alignError
                  0x003dee                  _CRCError
                  0x003df6                  _addressError
                  0x003dfe                  _dataAddressError
                  0x003e06                  _crcBufS_put
                  0x003e5e                  _crcBufS_status_put
                  0x003eac                  _crcBufS_get
                  0x003f08                  _CRCcheck
 .text            0x003faa        0x222 build/default/debug/UART.o
                  0x003faa                  _UART_init
                  0x003fe4                  _UART_buff_init
                  0x003ff4                  _UART_buff_put
                  0x004052                  _UART_buff_get
                  0x00408a                  _UART_buff_flush
                  0x0040b4                  _UART_buff_size
                  0x0040c0                  _UART_buff_modulo_inc
                  0x0040dc                  _UART_buff_peek
                  0x0040ec                  _Receive_peek
                  0x0040f6                  _Receive_available
                  0x004100                  _Receive_get
                  0x00410a                  _Send_put
                  0x004128                  __U1RXInterrupt
                  0x004184                  __U1TXInterrupt
                  0x0041b6                  _SetTxStall
                  0x0041c4                  _GetTxStall
 .text            0x0041cc        0x186 build/default/debug/Function.o
                  0x0041cc                  _Setup
                  0x0042ac                  _Delay
                  0x0042ca                  _PinSetMode
                  0x0042f6                  _ledDebug
 .text            0x004352        0x184 build/default/debug/Communications.o
                  0x004352                  _CommStart
                  0x00436c                  _updateComms
                  0x004486                  _checkCommDirection
                  0x0044aa                  _populateBatteryT
                  0x0044c0                  _populateBatteryV

.dinit            0x0044d6        0x138
 .dinit           0x0044d6        0x138 data_init

.text             0x00460e        0x3e0
 .text            0x00460e        0x11e build/default/debug/I2C.o
                  0x00460e                  _InitI2C
                  0x00462c                  _StartI2C
                  0x00463e                  _RestartI2C
                  0x004650                  _StopI2C
                  0x004668                  _WriteI2C
                  0x00467e                  _IdleI2C
                  0x004690                  _ACKStatus
                  0x00469e                  _NotAckI2C
                  0x0046aa                  _AckI2C
                  0x0046be                  _getsI2C
                  0x0046fe                  _getI2C
                  0x004716                  _i2c_wait
 .text            0x00472c         0xfa build/default/debug/ADS1015.o
                  0x00472c                  _writeRegister
                  0x00475c                  _readRegister
                  0x00479e                  _ADS1015Begin
                  0x0047a6                  _ADS1015SetGain
                  0x0047b2                  _ADS1015readADC_SingleEnded
 .text            0x004826         0xd2 build/default/debug/spi2.o
                  0x004826                  _SPI2_Initialize
                  0x004836                  _SPI2_Exchange8bit
                  0x004870                  _SPI2_Exchange8bitBuffer
                  0x0048e2                  _SPI2_IsBufferFull
                  0x0048ea                  _SPI2_HasWriteCollisionOccured
                  0x0048f2                  _SPI2_ClearWriteCollisionStatus
 .text            0x0048f8         0xc0 build/default/debug/pwm.o
                  0x0048f8                  _PWM_Init
                  0x004944                  _Timmer2Init
                  0x004960                  _PWM1update
                  0x00498c                  _PWM2update
 .text            0x0049b8         0x36 build/default/debug/UART1.o
                  0x0049b8                  _UART1_init

.init.delay32     0x0049ee         0x1c
 .init.delay32    0x0049ee         0x1c c:/program files (x86)/microchip/xc16/v1.26/bin/bin/../../lib\libpic30-elf.a(delay32.eo)
                  0x0049ee                  ___delay32

.text             0x004a0a         0x18
 .text            0x004a0a         0x18 build/default/debug/main.o
                  0x004a0a                  _main

.shared.dinit     0x004a22          0x2
 .shared.dinit    0x004a22          0x2 shared_data_init
